 VS17

 Timestamp is 642d5510 (Wed Apr  5 13:01:36 2023)

 Preferred load address is 0000000140000000

 Start         Length     Name                   Class
 0001:00000000 00024367H .textbss                DATA
 0002:00000000 00004210H .text$di                CODE
 0002:00004210 00048680H .text$mn                CODE
 0002:0004c890 00001040H .text$mn$00             CODE
 0002:0004d8d0 00002900H .text$x                 CODE
 0002:000501d0 0000105fH .text$yd                CODE
 0003:00000000 00000110H .CRT$XCA                DATA
 0003:00000110 00000110H .CRT$XCAA               DATA
 0003:00000220 00000138H .CRT$XCU                DATA
 0003:00000358 00000110H .CRT$XCZ                DATA
 0003:00000468 00000110H .CRT$XIA                DATA
 0003:00000578 00000110H .CRT$XIAA               DATA
 0003:00000688 00000110H .CRT$XIAC               DATA
 0003:00000798 00000110H .CRT$XIZ                DATA
 0003:000008a8 00000110H .CRT$XPA                DATA
 0003:000009b8 00000110H .CRT$XPZ                DATA
 0003:00000ac8 00000110H .CRT$XTA                DATA
 0003:00000bd8 00000118H .CRT$XTZ                DATA
 0003:00000cf0 0000a310H .rdata                  DATA
 0003:0000b000 00000110H .rdata$CastGuardVftablesA DATA
 0003:0000b110 00000110H .rdata$CastGuardVftablesC DATA
 0003:0000b220 0000075cH .rdata$r                DATA
 0003:0000b97c 00000164H .rdata$zzzdbg           DATA
 0003:0000bae0 00000110H .rtc$IAA                DATA
 0003:0000bbf0 000002f0H .rtc$IMZ                DATA
 0003:0000bee0 00000110H .rtc$IZZ                DATA
 0003:0000bff0 00000110H .rtc$TAA                DATA
 0003:0000c100 000002f0H .rtc$TMZ                DATA
 0003:0000c3f0 00000110H .rtc$TZZ                DATA
 0003:0000c500 00005c38H .xdata                  DATA
 0003:00012138 00000364H .xdata$x                DATA
 0003:0001249c 00000000H .edata                  DATA
 0004:00000000 00000268H .data                   DATA
 0004:00000268 00000270H .data$r                 DATA
 0004:000004d8 000001e8H .data$rs                DATA
 0004:000006c0 00014778H .bss                    DATA
 0005:00000000 00005340H .pdata                  DATA
 0006:00000000 00000ca0H .idata$5                DATA
 0006:00000ca0 000000dcH .idata$2                DATA
 0006:00000d7c 00000014H .idata$3                DATA
 0006:00000d90 00000ca0H .idata$4                DATA
 0006:00001a30 0000146cH .idata$6                DATA
 0007:00000000 00000865H .msvcjmc                DATA
 0008:00000000 00000151H .00cfg                  DATA
 0009:00000000 00000170H .rsrc$01                DATA
 0009:00000170 000002ccH .rsrc$02                DATA

  Address         Publics by Value              Rva+Base               Lib:Object

 0000:00000000       __guard_longjmp_count      0000000000000000     <absolute>
 0000:00000000       __enclave_config           0000000000000000     <absolute>
 0000:00000000       __dynamic_value_reloc_table 0000000000000000     <absolute>
 0000:00000000       __guard_check_icall_a64n_fptr 0000000000000000     <absolute>
 0000:00000000       __arm64x_redirection_metadata_count 0000000000000000     <absolute>
 0000:00000000       __guard_iat_table          0000000000000000     <absolute>
 0000:00000000       __hybrid_code_map_count    0000000000000000     <absolute>
 0000:00000000       __guard_fids_count         0000000000000000     <absolute>
 0000:00000000       __arm64x_redirection_metadata 0000000000000000     <absolute>
 0000:00000000       __x64_code_ranges_to_entry_points_count 0000000000000000     <absolute>
 0000:00000000       __arm64x_extra_rfe_table_size 0000000000000000     <absolute>
 0000:00000000       __hybrid_auxiliary_iat     0000000000000000     <absolute>
 0000:00000000       __volatile_metadata        0000000000000000     <absolute>
 0000:00000000       __arm64x_native_entrypoint 0000000000000000     <absolute>
 0000:00000000       __arm64x_extra_rfe_table   0000000000000000     <absolute>
 0000:00000000       __guard_iat_count          0000000000000000     <absolute>
 0000:00000000       __guard_fids_table         0000000000000000     <absolute>
 0000:00000000       __guard_eh_cont_table      0000000000000000     <absolute>
 0000:00000000       __guard_eh_cont_count      0000000000000000     <absolute>
 0000:00000000       __guard_longjmp_table      0000000000000000     <absolute>
 0000:00000000       __x64_code_ranges_to_entry_points 0000000000000000     <absolute>
 0000:00000000       __AbsoluteZero             0000000000000000     <absolute>
 0000:00000000       __hybrid_code_map          0000000000000000     <absolute>
 0000:00000000       __hybrid_auxiliary_iat_copy 0000000000000000     <absolute>
 0000:00000100       __guard_flags              0000000000000100     <absolute>
 0000:00000000       __ImageBase                0000000140000000     <linker-defined>
 0001:00000000       __enc$textbss$begin        0000000140001000     <linker-defined>
 0001:00024367       __enc$textbss$end          0000000140025367     <linker-defined>
 0002:00004210       __JustMyCode_Default       000000014002a210 f i device.obj
 0002:00004220       __local_stdio_printf_options 000000014002a220 f i device.obj
 0002:00004260       _vfprintf_l                000000014002a260 f i device.obj
 0002:00004830       fprintf                    000000014002a830 f i device.obj
 0002:00005420       snprintf                   000000014002b420 f i device.obj
 0002:000056c0       sync_connect               000000014002b6c0 f   device.obj
 0002:00005730       sync_create_device         000000014002b730 f   device.obj
 0002:00005880       sync_destroy_device        000000014002b880 f   device.obj
 0002:000059b0       sync_get_track             000000014002b9b0 f   device.obj
 0002:00005ab0       sync_save_tracks           000000014002bab0 f   device.obj
 0002:00005b70       sync_tcp_connect           000000014002bb70 f   device.obj
 0002:00005ea0       sync_update                000000014002bea0 f   device.obj
 0002:00006340       vsnprintf                  000000014002c340 f i device.obj
 0002:000069d0       sync_del_key               000000014002c9d0 f   track.obj
 0002:00006b90       sync_find_key              000000014002cb90 f   track.obj
 0002:00006cf0       sync_get_val               000000014002ccf0 f   track.obj
 0002:00006f30       sync_set_key               000000014002cf30 f   track.obj
 0002:000070d0       ??0Matrix44@@AEAA@XZ       000000014002d0d0 f i Matrix44.obj
 0002:00007140       ??0Quaternion@@QEAA@AEBVVector4@@@Z 000000014002d140 f i Matrix44.obj
 0002:000071a0       ??0Vector3@@QEAA@MMM@Z     000000014002d1a0 f i Matrix44.obj
 0002:00007250       ??0Vector4@@QEAA@MMMM@Z    000000014002d250 f i Matrix44.obj
 0002:00007310       ??0Vector4@@QEAA@XZ        000000014002d310 f i Matrix44.obj
 0002:00007350       ??1Quaternion@@QEAA@XZ     000000014002d350 f i Matrix44.obj
 0002:00007390       ??DVector3@@QEBA?BMAEBV0@@Z 000000014002d390 f i Matrix44.obj
 0002:000073f0       ??DVector3@@QEBA?BV0@M@Z   000000014002d3f0 f i Matrix44.obj
 0002:00007460       ??DVector4@@QEBA?BMAEBV0@@Z 000000014002d460 f i Matrix44.obj
 0002:000074c0       ??DVector4@@QEBA?BV0@M@Z   000000014002d4c0 f i Matrix44.obj
 0002:00007530       ??GVector3@@QEBA?BV0@AEBV0@@Z 000000014002d530 f i Matrix44.obj
 0002:000075a0       ??LVector3@@QEBA?BV0@AEBV0@@Z 000000014002d5a0 f i Matrix44.obj
 0002:00007610       ??XVector3@@QEAAAEAV0@M@Z  000000014002d610 f i Matrix44.obj
 0002:00007690       ??XVector4@@QEAAAEAV0@M@Z  000000014002d690 f i Matrix44.obj
 0002:00007710       ??_H@YAXPEAX_K1P6APEAX0@Z@Z 000000014002d710 f i Matrix44.obj
 0002:000077f0       ?AffineInverse@Matrix44@@QEBA?BV1@XZ 000000014002d7f0 f   Matrix44.obj
 0002:00007850       ?Cross@Vector3@@SA?BV1@AEBV1@0@Z 000000014002d850 f i Matrix44.obj
 0002:00007990       ?Dot@Vector3@@SAMAEBV1@0@Z 000000014002d990 f i Matrix44.obj
 0002:00007a30       ?Dot@Vector4@@SAMAEBV1@0@Z 000000014002da30 f i Matrix44.obj
 0002:00007af0       ?FromArray33@Matrix44@@SA?BV1@QEBM@Z 000000014002daf0 f   Matrix44.obj
 0002:00007d80       ?FromArray@Matrix44@@SA?BV1@QEBM@Z 000000014002dd80 f   Matrix44.obj
 0002:00007e50       ?GeneralInverse@Matrix44@@QEBA?BV1@XZ 000000014002de50 f   Matrix44.obj
 0002:00009df0       ?Identity@Matrix44@@SA?BV1@XZ 000000014002fdf0 f   Matrix44.obj
 0002:00009fd0       ?Length@Vector3@@QEBAMXZ   000000014002ffd0 f i Matrix44.obj
 0002:0000a030       ?Length@Vector4@@QEBAMXZ   0000000140030030 f i Matrix44.obj
 0002:0000a080       ?LengthSq@Vector4@@QEBAMXZ 0000000140030080 f i Matrix44.obj
 0002:0000a0d0       ?Multiply@Matrix44@@QEBA?BV1@AEBV1@@Z 00000001400300d0 f   Matrix44.obj
 0002:0000b180       ?Normalize@Vector3@@QEAAXXZ 0000000140031180 f i Matrix44.obj
 0002:0000b200       ?Normalize@Vector4@@QEAAXXZ 0000000140031200 f i Matrix44.obj
 0002:0000b280       ?Normalized@Quaternion@@QEBA?BV1@XZ 0000000140031280 f i Matrix44.obj
 0002:0000b310       ?Normalized@Vector3@@QEBA?BV1@XZ 0000000140031310 f i Matrix44.obj
 0002:0000b3c0       ?Normalized@Vector4@@QEBA?BV1@XZ 00000001400313c0 f i Matrix44.obj
 0002:0000b470       ?OrthoInverse@Matrix44@@QEBA?BV1@XZ 0000000140031470 f   Matrix44.obj
 0002:0000b810       ?Orthographic@Matrix44@@SA?BV1@AEBVVector2@@0MM@Z 0000000140031810 f   Matrix44.obj
 0002:0000bb80       ?Perspective@Matrix44@@SA?BV1@MMMM@Z 0000000140031b80 f   Matrix44.obj
 0002:0000be10       ?Rotation@Matrix44@@SA?BV1@AEBVQuaternion@@@Z 0000000140031e10 f   Matrix44.obj
 0002:0000c260       ?RotationAxis@Matrix44@@SA?BV1@AEBVVector3@@M@Z 0000000140032260 f   Matrix44.obj
 0002:0000c310       ?RotationX@Matrix44@@SA?BV1@M@Z 0000000140032310 f   Matrix44.obj
 0002:0000c530       ?RotationY@Matrix44@@SA?BV1@M@Z 0000000140032530 f   Matrix44.obj
 0002:0000c750       ?RotationYawPitchRoll@Matrix44@@SA?BV1@MMM@Z 0000000140032750 f   Matrix44.obj
 0002:0000cb30       ?RotationZ@Matrix44@@SA?BV1@M@Z 0000000140032b30 f   Matrix44.obj
 0002:0000cd50       ?Scale@Matrix44@@QEAAAEAV1@AEBVVector3@@@Z 0000000140032d50 f   Matrix44.obj
 0002:0000cdd0       ?Scale@Vector3@@SA?BV1@AEBV1@M@Z 0000000140032dd0 f i Matrix44.obj
 0002:0000ce90       ?Scale@Vector4@@SA?BV1@AEBV1@M@Z 0000000140032e90 f i Matrix44.obj
 0002:0000cf70       ?Scaling@Matrix44@@SA?BV1@AEBVVector3@@@Z 0000000140032f70 f   Matrix44.obj
 0002:0000d160       ?SetTranslation@Matrix44@@QEAAXAEBVVector3@@@Z 0000000140033160 f   Matrix44.obj
 0002:0000d220       ?Sub@Vector3@@SA?BV1@AEBV1@0@Z 0000000140033220 f i Matrix44.obj
 0002:0000d2e0       ?Transform3@Matrix44@@QEBA?BVVector3@@AEBV2@@Z 00000001400332e0 f   Matrix44.obj
 0002:0000d4f0       ?Transform4@Matrix44@@QEBA?BVVector3@@AEBV2@@Z 00000001400334f0 f   Matrix44.obj
 0002:0000d750       ?Transform4@Matrix44@@QEBA?BVVector4@@AEBV2@@Z 0000000140033750 f   Matrix44.obj
 0002:0000d8f0       ?Translate@Matrix44@@QEAAAEAV1@AEBVVector3@@@Z 00000001400338f0 f   Matrix44.obj
 0002:0000da00       ?Translation@Matrix44@@SA?BV1@AEBVVector3@@@Z 0000000140033a00 f   Matrix44.obj
 0002:0000dac0       ?Transpose@Matrix44@@QEBA?BV1@XZ 0000000140033ac0 f   Matrix44.obj
 0002:0000ddf0       ?View@Matrix44@@SA?BV1@AEBVVector3@@00@Z 0000000140033df0 f   Matrix44.obj
 0002:0000e220       fabsf                      0000000140034220 f i Matrix44.obj
 0002:0000e330       ??0Vector4@@QEAA@AEBVVector3@@M@Z 0000000140034330 f i Quaternion.obj
 0002:0000e3f0       ??0Vector4@@QEAA@M@Z       00000001400343f0 f i Quaternion.obj
 0002:0000e4a0       ??DQuaternion@@AEBA?BV0@M@Z 00000001400344a0 f i Quaternion.obj
 0002:0000e550       ??GVector4@@QEBA?BV0@AEBV0@@Z 0000000140034550 f i Quaternion.obj
 0002:0000e5c0       ??HVector4@@QEBA?BV0@AEBV0@@Z 00000001400345c0 f i Quaternion.obj
 0002:0000e630       ?Add@Vector4@@SA?BV1@AEBV1@0@Z 0000000140034630 f i Quaternion.obj
 0002:0000e720       ?AxisAngle@Quaternion@@SA?BV1@AEBVVector3@@M@Z 0000000140034720 f   Quaternion.obj
 0002:0000e880       ?Identity@Quaternion@@SA?BV1@XZ 0000000140034880 f   Quaternion.obj
 0002:0000e920       ?Mul@Vector4@@SA?BV1@AEBV1@0@Z 0000000140034920 f i Quaternion.obj
 0002:0000ea10       ?Slerp@Quaternion@@SA?BV1@AEBV1@0M@Z 0000000140034a10 f   Quaternion.obj
 0002:0000ed00       ?Sub@Vector4@@SA?BV1@AEBV1@0@Z 0000000140034d00 f i Quaternion.obj
 0002:0000ee90       ??$?0$$V@?$_Compressed_pair@V?$allocator@D@std@@V?$_String_val@U?$_Simple_types@D@std@@@2@$00@std@@QEAA@U_Zero_then_variadic_args_t@1@@Z 0000000140034e90 f i audio.obj
 0002:0000ef00       ??$?0D@?$allocator@U_Container_proxy@std@@@std@@QEAA@AEBV?$allocator@D@1@@Z 0000000140034f00 f i audio.obj
 0002:0000ef50       ??$?0V?$allocator@D@std@@$$V@?$_Compressed_pair@V?$allocator@D@std@@V?$_String_val@U?$_Simple_types@D@std@@@2@$00@std@@QEAA@U_One_then_variadic_args_t@1@$$QEAV?$allocator@D@1@@Z 0000000140034f50 f i audio.obj
 0002:0000efc0       ??$?HDU?$char_traits@D@std@@V?$allocator@D@1@@std@@YA?AV?$basic_string@DU?$char_traits@D@std@@V?$allocator@D@2@@0@QEBDAEBV10@@Z 0000000140034fc0 f i audio.obj
 0002:0000f100       ??$_Allocate@$0BA@U_Default_allocate_traits@std@@$0A@@std@@YAPEAX_K@Z 0000000140035100 f i audio.obj
 0002:0000f190       ??$_Allocate_manually_vector_aligned@U_Default_allocate_traits@std@@@std@@YAPEAX_K@Z 0000000140035190 f i audio.obj
 0002:0000f2f0       ??$_Construct_in_place@PEADAEBQEAD@std@@YAXAEAPEADAEBQEAD@Z 00000001400352f0 f i audio.obj
 0002:0000f3e0       ??$_Construct_in_place@U_Container_proxy@std@@PEAU_Container_base12@2@@std@@YAXAEAU_Container_proxy@0@$$QEAPEAU_Container_base12@0@@Z 00000001400353e0 f i audio.obj
 0002:0000f4e0       ??$_Convert_size@_K@std@@YA_K_K@Z 00000001400354e0 f i audio.obj
 0002:0000f520       ??$_Deallocate@$0BA@$0A@@std@@YAXPEAX_K@Z 0000000140035520 f i audio.obj
 0002:0000f5c0       ??$_Deallocate_plain@V?$allocator@U_Container_proxy@std@@@std@@@std@@YAXAEAV?$allocator@U_Container_proxy@std@@@0@QEAU_Container_proxy@0@@Z 00000001400355c0 f i audio.obj
 0002:0000f620       ??$_Delete_plain_internal@V?$allocator@U_Container_proxy@std@@@std@@@std@@YAXAEAV?$allocator@U_Container_proxy@std@@@0@QEAU_Container_proxy@0@@Z 0000000140035620 f i audio.obj
 0002:0000f680       ??$_Destroy_in_place@PEAD@std@@YAXAEAPEAD@Z 0000000140035680 f i audio.obj
 0002:0000f6c0       ??$_Get_size_of_n@$00@std@@YA_K_K@Z 00000001400356c0 f i audio.obj
 0002:0000f710       ??$_Get_size_of_n@$0BA@@std@@YA_K_K@Z 0000000140035710 f i audio.obj
 0002:0000f790       ??$_Reallocate_for@V<lambda_1>@?1??assign@?$basic_string@DU?$char_traits@D@std@@V?$allocator@D@2@@std@@QEAAAEAV34@QEBD_K@Z@PEBD@?$basic_string@DU?$char_traits@D@std@@V?$allocator@D@2@@std@@AEAAAEAV01@_KV<lambda_1>@?1??assign@01@QEAAAEAV01@QEBD0@Z@PEBD@Z 0000000140035790 f i audio.obj
 0002:0000f9b0       ??$_Unfancy@D@std@@YAPEADPEAD@Z 00000001400359b0 f i audio.obj
 0002:0000f9f0       ??$_Unfancy@U_Container_proxy@std@@@std@@YAPEAU_Container_proxy@0@PEAU10@@Z 00000001400359f0 f i audio.obj
 0002:0000fa30       ??$_Voidify_iter@PEAD@std@@YAPEAXPEAD@Z 0000000140035a30 f i audio.obj
 0002:0000fa70       ??$_Voidify_iter@PEAPEAD@std@@YAPEAXPEAPEAD@Z 0000000140035a70 f i audio.obj
 0002:0000fab0       ??$_Voidify_iter@PEAU_Container_proxy@std@@@std@@YAPEAXPEAU_Container_proxy@0@@Z 0000000140035ab0 f i audio.obj
 0002:0000faf0       ??$addressof@PEAD@std@@YAPEAPEADAEAPEAD@Z 0000000140035af0 f i audio.obj
 0002:0000fb30       ??$addressof@U_Container_base12@std@@@std@@YAPEAU_Container_base12@0@AEAU10@@Z 0000000140035b30 f i audio.obj
 0002:0000fb70       ??$addressof@U_Container_proxy@std@@@std@@YAPEAU_Container_proxy@0@AEAU10@@Z 0000000140035b70 f i audio.obj
 0002:0000fbb0       ??$construct_at@DAEBDX@std@@YAPEADQEADAEBD@Z 0000000140035bb0 f i audio.obj
 0002:0000fc40       ??$construct_at@PEADAEBQEADX@std@@YAPEAPEADQEAPEADAEBQEAD@Z 0000000140035c40 f i audio.obj
 0002:0000fcd0       ??$construct_at@U_Container_proxy@std@@PEAU_Container_base12@2@X@std@@YAPEAU_Container_proxy@0@QEAU10@$$QEAPEAU_Container_base12@0@@Z 0000000140035cd0 f i audio.obj
 0002:0000fd70       ??$forward@AEBD@std@@YAAEBDAEBD@Z 0000000140035d70 f i audio.obj
 0002:0000fdb0       ??$forward@AEBQEAD@std@@YAAEBQEADAEBQEAD@Z 0000000140035db0 f i audio.obj
 0002:0000fdf0       ??$forward@PEAU_Container_base12@std@@@std@@YA$$QEAPEAU_Container_base12@0@AEAPEAU10@@Z 0000000140035df0 f i audio.obj
 0002:0000fe30       ??$forward@V?$allocator@D@std@@@std@@YA$$QEAV?$allocator@D@0@AEAV10@@Z 0000000140035e30 f i audio.obj
 0002:0000fe70       ??$max@_K@std@@YAAEB_KAEB_K0@Z 0000000140035e70 f i audio.obj
 0002:0000ff10       ??$min@_K@std@@YAAEB_KAEB_K0@Z 0000000140035f10 f i audio.obj
 0002:0000ffb0       ??0?$_Container_proxy_ptr12@V?$allocator@U_Container_proxy@std@@@std@@@std@@QEAA@AEAV?$allocator@U_Container_proxy@std@@@1@AEAU_Container_base12@1@@Z 0000000140035fb0 f i audio.obj
 0002:000100a0       ??0?$_String_val@U?$_Simple_types@D@std@@@std@@QEAA@XZ 00000001400360a0 f i audio.obj
 0002:00010130       ??0?$allocator@D@std@@QEAA@XZ 0000000140036130 f i audio.obj
 0002:00010170       ??0?$basic_string@DU?$char_traits@D@std@@V?$allocator@D@2@@std@@QEAA@QEBD@Z 0000000140036170 f i audio.obj
 0002:000102a0       ??0?$basic_string@DU?$char_traits@D@std@@V?$allocator@D@2@@std@@QEAA@U_String_constructor_concat_tag@1@AEBV01@QEBD_K23@Z 00000001400362a0 f i audio.obj
 0002:00010620       ??0_Basic_container_proxy_ptr12@std@@IEAA@XZ 0000000140036620 f i audio.obj
 0002:00010670       ??0_Bxty@?$_String_val@U?$_Simple_types@D@std@@@std@@QEAA@XZ 0000000140036670 f i audio.obj
 0002:000106c0       ??0_Container_base12@std@@QEAA@XZ 00000001400366c0 f i audio.obj
 0002:00010710       ??0_Container_proxy@std@@QEAA@PEAU_Container_base12@1@@Z 0000000140036710 f i audio.obj
 0002:00010780       ??0bad_alloc@std@@AEAA@QEBD@Z 0000000140036780 f i audio.obj
 0002:00010800       ??0bad_alloc@std@@QEAA@AEBV01@@Z 0000000140036800 f i audio.obj
 0002:00010860       ??0bad_array_new_length@std@@QEAA@AEBV01@@Z 0000000140036860 f i audio.obj
 0002:000108c0       ??0bad_array_new_length@std@@QEAA@XZ 00000001400368c0 f i audio.obj
 0002:00010930       ??0exception@std@@QEAA@AEBV01@@Z 0000000140036930 f i audio.obj
 0002:000109d0       ??0exception@std@@QEAA@QEBDH@Z 00000001400369d0 f i audio.obj
 0002:00010a70       ??1?$_Compressed_pair@V?$allocator@D@std@@V?$_String_val@U?$_Simple_types@D@std@@@2@$00@std@@QEAA@XZ 0000000140036a70 f i audio.obj
 0002:00010ab0       ??1?$_Container_proxy_ptr12@V?$allocator@U_Container_proxy@std@@@std@@@std@@QEAA@XZ 0000000140036ab0 f i audio.obj
 0002:00010b20       ??1?$_String_val@U?$_Simple_types@D@std@@@std@@QEAA@XZ 0000000140036b20 f i audio.obj
 0002:00010b60       ??1?$basic_string@DU?$char_traits@D@std@@V?$allocator@D@2@@std@@QEAA@XZ 0000000140036b60 f i audio.obj
 0002:00010c50       ??1_Bxty@?$_String_val@U?$_Simple_types@D@std@@@std@@QEAA@XZ 0000000140036c50 f i audio.obj
 0002:00010c90       ??1bad_alloc@std@@UEAA@XZ  0000000140036c90 f i audio.obj
 0002:00010cd0       ??1bad_array_new_length@std@@UEAA@XZ 0000000140036cd0 f i audio.obj
 0002:00010d10       ??1exception@std@@UEAA@XZ  0000000140036d10 f i audio.obj
 0002:00010d70       ??2@YAPEAX_KPEAX@Z         0000000140036d70 f i audio.obj
 0002:00010dc0       ??R<lambda_1>@?1??assign@?$basic_string@DU?$char_traits@D@std@@V?$allocator@D@2@@std@@QEAAAEAV23@QEBD_K@Z@QEBA@QEAD10@Z 0000000140036dc0 f i audio.obj
 0002:00010e60       ??_Ebad_alloc@std@@UEAAPEAXI@Z 0000000140036e60 f i audio.obj
 0002:00010e60       ??_Gbad_alloc@std@@UEAAPEAXI@Z 0000000140036e60 f i audio.obj
 0002:00010ed0       ??_Ebad_array_new_length@std@@UEAAPEAXI@Z 0000000140036ed0 f i audio.obj
 0002:00010ed0       ??_Gbad_array_new_length@std@@UEAAPEAXI@Z 0000000140036ed0 f i audio.obj
 0002:00010f40       ??_Gexception@std@@UEAAPEAXI@Z 0000000140036f40 f i audio.obj
 0002:00010f40       ??_Eexception@std@@UEAAPEAXI@Z 0000000140036f40 f i audio.obj
 0002:00010fb0       ?Audio_Check_Stream@@YA_NXZ 0000000140036fb0 f   audio.obj
 0002:00011010       ?Audio_Create@@YA_NIAEBV?$basic_string@DU?$char_traits@D@std@@V?$allocator@D@2@@std@@PEAUHWND__@@_N@Z 0000000140037010 f   audio.obj
 0002:00011340       ?Audio_Destroy@@YAXXZ      0000000140037340 f   audio.obj
 0002:00011380       ?Audio_Get_Pos_In_Sec@@YAMXZ 0000000140037380 f   audio.obj
 0002:000113f0       ?Audio_Rocket_IsPlaying@@YAHPEAX@Z 00000001400373f0 f   audio.obj
 0002:00011440       ?Audio_Rocket_Pause@@YAXPEAXH@Z 0000000140037440 f   audio.obj
 0002:000114b0       ?Audio_Rocket_SetRow@@YAXPEAXH@Z 00000001400374b0 f   audio.obj
 0002:00011540       ?Audio_Rocket_Sync@@YANAEAI0AEAM@Z 0000000140037540 f   audio.obj
 0002:000115d0       ?Audio_Start_Stream@@YAXI@Z 00000001400375d0 f   audio.obj
 0002:00011620       ?Audio_Update@@YAXXZ       0000000140037620 f   audio.obj
 0002:00011650       ?_Adjust_manually_vector_aligned@std@@YAXAEAPEAXAEA_K@Z 0000000140037650 f i audio.obj
 0002:00011890       ?_Allocate@_Default_allocate_traits@std@@SAPEAX_K@Z 0000000140037890 f i audio.obj
 0002:000118e0       ?_Calculate_growth@?$basic_string@DU?$char_traits@D@std@@V?$allocator@D@2@@std@@AEBA_K_K@Z 00000001400378e0 f i audio.obj
 0002:00011970       ?_Calculate_growth@?$basic_string@DU?$char_traits@D@std@@V?$allocator@D@2@@std@@CA_K_K00@Z 0000000140037970 f i audio.obj
 0002:00011aa0       ?_Get_first@?$_Compressed_pair@V?$allocator@D@std@@V?$_String_val@U?$_Simple_types@D@std@@@2@$00@std@@QEAAAEAV?$allocator@D@2@XZ 0000000140037aa0 f i audio.obj
 0002:00011ae0       ?_Get_first@?$_Compressed_pair@V?$allocator@D@std@@V?$_String_val@U?$_Simple_types@D@std@@@2@$00@std@@QEBAAEBV?$allocator@D@2@XZ 0000000140037ae0 f i audio.obj
 0002:00011b20       ?_Getal@?$basic_string@DU?$char_traits@D@std@@V?$allocator@D@2@@std@@AEAAAEAV?$allocator@D@2@XZ 0000000140037b20 f i audio.obj
 0002:00011b70       ?_Getal@?$basic_string@DU?$char_traits@D@std@@V?$allocator@D@2@@std@@AEBAAEBV?$allocator@D@2@XZ 0000000140037b70 f i audio.obj
 0002:00011bc0       ?_Large_string_engaged@?$_String_val@U?$_Simple_types@D@std@@@std@@QEBA_NXZ 0000000140037bc0 f i audio.obj
 0002:00011c40       ?_Myptr@?$_String_val@U?$_Simple_types@D@std@@@std@@QEAAPEADXZ 0000000140037c40 f i audio.obj
 0002:00011cc0       ?_Myptr@?$_String_val@U?$_Simple_types@D@std@@@std@@QEBAPEBDXZ 0000000140037cc0 f i audio.obj
 0002:00011d40       ?_Orphan_all@_Container_base12@std@@QEAAXXZ 0000000140037d40 f i audio.obj
 0002:00011db0       ?_Orphan_all_locked_v3@_Container_base12@std@@AEAAXXZ 0000000140037db0 f i audio.obj
 0002:00011e50       ?_Orphan_all_unlocked_v3@_Container_base12@std@@AEAAXXZ 0000000140037e50 f i audio.obj
 0002:00011f00       ?_Release@_Basic_container_proxy_ptr12@std@@QEAAXXZ 0000000140037f00 f i audio.obj
 0002:00011f50       ?_Throw_bad_array_new_length@std@@YAXXZ 0000000140037f50 f i audio.obj
 0002:00011fb0       ?_Tidy_deallocate@?$basic_string@DU?$char_traits@D@std@@V?$allocator@D@2@@std@@AEAAXXZ 0000000140037fb0 f i audio.obj
 0002:00012120       ?_Tidy_init@?$basic_string@DU?$char_traits@D@std@@V?$allocator@D@2@@std@@AEAAXXZ 0000000140038120 f i audio.obj
 0002:00012240       ?_Xlen_string@std@@YAXXZ   0000000140038240 f i audio.obj
 0002:00012280       ?allocate@?$allocator@D@std@@QEAAPEAD_K@Z 0000000140038280 f i audio.obj
 0002:000122e0       ?allocate@?$allocator@U_Container_proxy@std@@@std@@QEAAPEAU_Container_proxy@2@_K@Z 00000001400382e0 f i audio.obj
 0002:00012340       ?assign@?$_Char_traits@DH@std@@SAPEADQEAD_KD@Z 0000000140038340 f i audio.obj
 0002:00012450       ?assign@?$_Narrow_char_traits@DH@std@@SAPEADQEAD_KD@Z 0000000140038450 f i audio.obj
 0002:000124f0       ?assign@?$_Narrow_char_traits@DH@std@@SAXAEADAEBD@Z 00000001400384f0 f i audio.obj
 0002:00012550       ?assign@?$basic_string@DU?$char_traits@D@std@@V?$allocator@D@2@@std@@QEAAAEAV12@QEBD@Z 0000000140038550 f i audio.obj
 0002:000125c0       ?assign@?$basic_string@DU?$char_traits@D@std@@V?$allocator@D@2@@std@@QEAAAEAV12@QEBD_K@Z 00000001400385c0 f i audio.obj
 0002:000126d0       ?c_str@?$basic_string@DU?$char_traits@D@std@@V?$allocator@D@2@@std@@QEBAPEBDXZ 00000001400386d0 f i audio.obj
 0002:00012720       ?copy@?$_Char_traits@DH@std@@SAPEADQEADQEBD_K@Z 0000000140038720 f i audio.obj
 0002:00012810       ?deallocate@?$_Default_allocator_traits@V?$allocator@U_Container_proxy@std@@@std@@@std@@SAXAEAV?$allocator@U_Container_proxy@std@@@2@QEAU_Container_proxy@2@_K@Z 0000000140038810 f i audio.obj
 0002:000128a0       ?deallocate@?$allocator@D@std@@QEAAXQEAD_K@Z 00000001400388a0 f i audio.obj
 0002:00012900       ?deallocate@?$allocator@U_Container_proxy@std@@@std@@QEAAXQEAU_Container_proxy@2@_K@Z 0000000140038900 f i audio.obj
 0002:00012960       ?is_constant_evaluated@std@@YA_NXZ 0000000140038960 f i audio.obj
 0002:00012990       ?length@?$_Narrow_char_traits@DH@std@@SA_KQEBD@Z 0000000140038990 f i audio.obj
 0002:00012a10       ?max@?$numeric_limits@_J@std@@SA_JXZ 0000000140038a10 f i audio.obj
 0002:00012a50       ?max_size@?$_Default_allocator_traits@V?$allocator@D@std@@@std@@SA_KAEBV?$allocator@D@2@@Z 0000000140038a50 f i audio.obj
 0002:00012a90       ?max_size@?$basic_string@DU?$char_traits@D@std@@V?$allocator@D@2@@std@@QEBA_KXZ 0000000140038a90 f i audio.obj
 0002:00012b90       ?move@?$_Char_traits@DH@std@@SAPEADQEADQEBD_K@Z 0000000140038b90 f i audio.obj
 0002:00012d70       ?select_on_container_copy_construction@?$_Default_allocator_traits@V?$allocator@D@std@@@std@@SA?AV?$allocator@D@2@AEBV32@@Z 0000000140038d70 f i audio.obj
 0002:00012dc0       ?size@?$basic_string@DU?$char_traits@D@std@@V?$allocator@D@2@@std@@QEBA_KXZ 0000000140038dc0 f i audio.obj
 0002:00012e10       ?what@exception@std@@UEBAPEBDXZ 0000000140038e10 f i audio.obj
 0002:00012f10       ??$max@H@std@@YAAEBHAEBH0@Z 0000000140038f10 f i ball.obj
 0002:00012fb0       ??$max@M@std@@YAAEBMAEBM0@Z 0000000140038fb0 f i ball.obj
 0002:00013050       ??$min@H@std@@YAAEBHAEBH0@Z 0000000140039050 f i ball.obj
 0002:000130f0       ??$min@I@std@@YAAEBIAEBI0@Z 00000001400390f0 f i ball.obj
 0002:00013190       ??$min@M@std@@YAAEBMAEBM0@Z 0000000140039190 f i ball.obj
 0002:00013230       ?Ball_Create@@YA_NXZ       0000000140039230 f   ball.obj
 0002:00013850       ?Ball_Destroy@@YAXXZ       0000000140039850 f   ball.obj
 0002:000138a0       ?Ball_Draw@@YAXPEAIMM@Z    00000001400398a0 f   ball.obj
 0002:00013d70       ?Ball_GetBackground@@YAPEAIXZ 0000000140039d70 f   ball.obj
 0002:00013de0       ?Ball_HasBeams@@YA_NXZ     0000000140039de0 f   ball.obj
 0002:00014c70       ?freeAligned@@YAXPEAX@Z    000000014003ac70 f i ball.obj
 0002:00014db0       ?mallocAligned@@YAPEAX_K0@Z 000000014003adb0 f i ball.obj
 0002:00016be0       ?BoxBlur32@@YAXPEAIPEBIIIM@Z 000000014003cbe0 f   boxblur.obj
 0002:00016cc0       ?BoxBlur_Create@@YA_NXZ    000000014003ccc0 f   boxblur.obj
 0002:00016cf0       ?BoxBlur_Destroy@@YAXXZ    000000014003ccf0 f   boxblur.obj
 0002:000173d0       ?HorizontalBoxBlur32@@YAXPEAIPEBIIIM@Z 000000014003d3d0 f   boxblur.obj
 0002:00017e40       ?VerticalBoxBlur32@@YAXPEAIPEBIIIM@Z 000000014003de40 f   boxblur.obj
 0002:00018200       ?InitializeFastCosine@@YAXXZ 000000014003e200 f   fast-cosine.obj
 0002:00018290       ?FxBlitter_Create@@YA_NXZ  000000014003e290 f   fx-blitter.obj
 0002:000183b0       ?FxBlitter_Destroy@@YAXXZ  000000014003e3b0 f   fx-blitter.obj
 0002:00018400       ?FxBlitter_DrawTestPattern@@YAXPEAI@Z 000000014003e400 f   fx-blitter.obj
 0002:00018bc0       ?Fx_Blit_2x2@@YAXPEAI0@Z   000000014003ebc0 f   fx-blitter.obj
 0002:00018e30       ?initialize_random_generator@@YAXXZ 000000014003ee30 f   random.obj
 0002:00018e80       ?mt_rand32@@YAHXZ          000000014003ee80 f   random.obj
 0002:00018ec0       ?mt_randf@@YAMXZ           000000014003eec0 f   random.obj
 0002:00018f00       ?mt_randu32@@YAIXZ         000000014003ef00 f   random.obj
 0002:000191b0       tinymt32_init              000000014003f1b0 f   random.obj
 0002:00019350       tinymt32_init_by_array     000000014003f350 f   random.obj
 0002:00019ec0       ?AddTrack@Rocket@@YAPEBUsync_track@@PEBD@Z 000000014003fec0 f   rocket.obj
 0002:00019f10       ?Boost@Rocket@@YA_NXZ      000000014003ff10 f   rocket.obj
 0002:0001a040       ?Land@Rocket@@YAXXZ        0000000140040040 f   rocket.obj
 0002:0001a0a0       ?Launch@Rocket@@YA_NXZ     00000001400400a0 f   rocket.obj
 0002:0001a160       ?get@Rocket@@YANPEBUsync_track@@@Z 0000000140040160 f   rocket.obj
 0002:0001a1b0       ?SatoriLumaBlur_Create@@YA_NXZ 00000001400401b0 f   satori-lumablur.obj
 0002:0001a1e0       ?SatoriLumaBlur_Destroy@@YAXXZ 00000001400401e0 f   satori-lumablur.obj
 0002:0001a290       ??0Vector2@@QEAA@MM@Z      0000000140040290 f i shadertoy.obj
 0002:0001a310       ??0Vector3@@QEAA@M@Z       0000000140040310 f i shadertoy.obj
 0002:0001a3b0       ??0Vector3@@QEAA@T__m128@@@Z 00000001400403b0 f i shadertoy.obj
 0002:0001a410       ??0Vector3@@QEAA@XZ        0000000140040410 f i shadertoy.obj
 0002:0001a450       ??BVector3@@QEBA?AT__m128@@XZ 0000000140040450 f i shadertoy.obj
 0002:0001a4b0       ??HVector3@@QEBA?BV0@AEBV0@@Z 00000001400404b0 f i shadertoy.obj
 0002:0001a520       ??HVector3@@QEBA?BV0@M@Z   0000000140040520 f i shadertoy.obj
 0002:0001a5a0       ??YVector3@@QEAAAEAV0@AEBV0@@Z 00000001400405a0 f i shadertoy.obj
 0002:0001a620       ??YVector3@@QEAAAEAV0@M@Z  0000000140040620 f i shadertoy.obj
 0002:0001a6a0       ?Add@Vector3@@SA?BV1@AEBV1@0@Z 00000001400406a0 f i shadertoy.obj
 0002:0001acb0       ?Laura_Draw@@YAXPEAIMM@Z   0000000140040cb0 f   shadertoy.obj
 0002:0001ae50       ?Nautilus_Draw@@YAXPEAIMM@Z 0000000140040e50 f   shadertoy.obj
 0002:0001af70       ?Plasma_Draw@@YAXPEAIMM@Z  0000000140040f70 f   shadertoy.obj
 0002:0001b860       ?RenderLaura_2x2@@YAXPEAIM@Z 0000000140041860 f   shadertoy.obj
 0002:000204a0       ?Shadertoy_Create@@YA_NXZ  00000001400464a0 f   shadertoy.obj
 0002:00020ba0       ?Shadertoy_Destroy@@YAXXZ  0000000140046ba0 f   shadertoy.obj
 0002:00020be0       ?Sinuses_Draw@@YAXPEAIMM@Z 0000000140046be0 f   shadertoy.obj
 0002:00020de0       ?Spikey_Draw@@YAXPEAIMM_N@Z 0000000140046de0 f   shadertoy.obj
 0002:000219e0       ?Tunnel_Draw@@YAXPEAIMM@Z  00000001400479e0 f   shadertoy.obj
 0002:000224b0       ?cos_ps@@YA?AT__m128@@T1@@Z 00000001400484b0 f   shadertoy.obj
 0002:00022ea0       ?exp_ps@@YA?AT__m128@@T1@@Z 0000000140048ea0 f   shadertoy.obj
 0002:00023ff0       ?log_ps@@YA?AT__m128@@T1@@Z 0000000140049ff0 f   shadertoy.obj
 0002:00024d10       ?sin_ps@@YA?AT__m128@@T1@@Z 000000014004ad10 f   shadertoy.obj
 0002:00025500       ?sincos_ps@@YAXT__m128@@PEAT1@1@Z 000000014004b500 f   shadertoy.obj
 0002:00026540       ?Demo_Create@@YA_NXZ       000000014004c540 f   demo.obj
 0002:00028020       ?Demo_Destroy@@YAXXZ       000000014004e020 f   demo.obj
 0002:00028080       ?Demo_Draw@@YA_NPEAIMM@Z   000000014004e080 f   demo.obj
 0002:0002a410       ??0Display@@QEAA@XZ        0000000140050410 f   display.obj
 0002:0002a4a0       ??1Display@@QEAA@XZ        00000001400504a0 f   display.obj
 0002:0002a510       ?Open@Display@@QEAA_NAEBV?$basic_string@DU?$char_traits@D@std@@V?$allocator@D@2@@std@@II_N@Z 0000000140050510 f   display.obj
 0002:0002a7a0       ?Update@Display@@QEAAXPEBI@Z 00000001400507a0 f   display.obj
 0002:0002a870       ?ClampAxisDeadzone@@YAMH@Z 0000000140050870 f i gamepad.obj
 0002:0002a910       ?Gamepad_Create@@YAXXZ     0000000140050910 f   gamepad.obj
 0002:0002a990       ?Gamepad_Destroy@@YAXXZ    0000000140050990 f   gamepad.obj
 0002:0002a9e0       ?Gamepad_Update@@YA_NAEAUPadState@@@Z 00000001400509e0 f   gamepad.obj
 0002:0002ac90       ??$?0$$V@?$_Compressed_pair@V?$allocator@PEAX@std@@V?$_Vector_val@U?$_Simple_types@PEAX@std@@@2@$00@std@@QEAA@U_Zero_then_variadic_args_t@1@@Z 0000000140050c90 f i image.obj
 0002:0002ad00       ??$?0PEAX@?$allocator@U_Container_proxy@std@@@std@@QEAA@AEBV?$allocator@PEAX@1@@Z 0000000140050d00 f i image.obj
 0002:0002ad50       ??$_Alloc_proxy@V?$allocator@U_Container_proxy@std@@@std@@@_Container_base12@std@@QEAAX$$QEAV?$allocator@U_Container_proxy@std@@@1@@Z 0000000140050d50 f i image.obj
 0002:0002ae00       ??$_Copy_memmove@PEAPEAXPEAPEAX@std@@YAPEAPEAXPEAPEAX00@Z 0000000140050e00 f i image.obj
 0002:0002af00       ??$_Destroy_range@V?$allocator@PEAX@std@@@std@@YAXPEAPEAXQEAPEAXAEAV?$allocator@PEAX@0@@Z 0000000140050f00 f i image.obj
 0002:0002af40       ??$_Emplace_back@PEAX@?$_Uninitialized_backout_al@V?$allocator@PEAX@std@@@std@@QEAAX$$QEAPEAX@Z 0000000140050f40 f i image.obj
 0002:0002b010       ??$_Emplace_back_with_unused_capacity@AEBQEAX@?$vector@PEAXV?$allocator@PEAX@std@@@std@@AEAA?A_TAEBQEAX@Z 0000000140051010 f i image.obj
 0002:0002b120       ??$_Emplace_reallocate@AEBQEAX@?$vector@PEAXV?$allocator@PEAX@std@@@std@@QEAAPEAPEAXQEAPEAXAEBQEAX@Z 0000000140051120 f i image.obj
 0002:0002b410       ??$_Get_size_of_n@$07@std@@YA_K_K@Z 0000000140051410 f i image.obj
 0002:0002b490       ??$_Get_unwrapped@AEBQEAPEAX@std@@YA?A_TAEBQEAPEAX@Z 0000000140051490 f i image.obj
 0002:0002b4d0       ??$_To_address@PEAPEAX@std@@YA?A_PAEBQEAPEAX@Z 00000001400514d0 f i image.obj
 0002:0002b520       ??$_Unfancy@PEAX@std@@YAPEAPEAXPEAPEAX@Z 0000000140051520 f i image.obj
 0002:0002b560       ??$_Uninitialized_move@PEAPEAXV?$allocator@PEAX@std@@@std@@YAPEAPEAXQEAPEAX0PEAPEAXAEAV?$allocator@PEAX@0@@Z 0000000140051560 f i image.obj
 0002:0002b6f0       ??$_Voidify_iter@PEAPEAX@std@@YAPEAXPEAPEAX@Z 00000001400516f0 f i image.obj
 0002:0002b730       ??$construct@PEAXAEBQEAX@?$_Default_allocator_traits@V?$allocator@PEAX@std@@@std@@SAXAEAV?$allocator@PEAX@1@QEAPEAXAEBQEAX@Z 0000000140051730 f i image.obj
 0002:0002b7f0       ??$construct@PEAXPEAX@?$_Default_allocator_traits@V?$allocator@PEAX@std@@@std@@SAXAEAV?$allocator@PEAX@1@QEAPEAX$$QEAPEAX@Z 00000001400517f0 f i image.obj
 0002:0002b8b0       ??$construct_at@PEAXAEBQEAXX@std@@YAPEAPEAXQEAPEAXAEBQEAX@Z 00000001400518b0 f i image.obj
 0002:0002b940       ??$construct_at@PEAXPEAXX@std@@YAPEAPEAXQEAPEAX$$QEAPEAX@Z 0000000140051940 f i image.obj
 0002:0002b9d0       ??$emplace_back@AEBQEAX@?$vector@PEAXV?$allocator@PEAX@std@@@std@@QEAA?A_TAEBQEAX@Z 00000001400519d0 f i image.obj
 0002:0002bac0       ??$exchange@PEAU_Container_proxy@std@@$$T@std@@YAPEAU_Container_proxy@0@AEAPEAU10@$$QEA$$T@Z 0000000140051ac0 f i image.obj
 0002:0002bb30       ??$forward@AEBQEAX@std@@YAAEBQEAXAEBQEAX@Z 0000000140051b30 f i image.obj
 0002:0002bb70       ??$forward@PEAX@std@@YA$$QEAPEAXAEAPEAX@Z 0000000140051b70 f i image.obj
 0002:0002bbb0       ??$move@AEAPEAX@std@@YA$$QEAPEAXAEAPEAX@Z 0000000140051bb0 f i image.obj
 0002:0002bbf0       ??$to_address@PEAX@std@@YAPEAPEAXQEAPEAX@Z 0000000140051bf0 f i image.obj
 0002:0002bc30       ??0?$_Uninitialized_backout_al@V?$allocator@PEAX@std@@@std@@QEAA@PEAPEAXAEAV?$allocator@PEAX@1@@Z 0000000140051c30 f i image.obj
 0002:0002bcc0       ??0?$_Vector_val@U?$_Simple_types@PEAX@std@@@std@@QEAA@XZ 0000000140051cc0 f i image.obj
 0002:0002bd50       ??0?$allocator@PEAX@std@@QEAA@XZ 0000000140051d50 f i image.obj
 0002:0002bd90       ??0?$vector@PEAXV?$allocator@PEAX@std@@@std@@QEAA@XZ 0000000140051d90 f i image.obj
 0002:0002be40       ??1?$_Uninitialized_backout_al@V?$allocator@PEAX@std@@@std@@QEAA@XZ 0000000140051e40 f i image.obj
 0002:0002beb0       ??1?$vector@PEAXV?$allocator@PEAX@std@@@std@@QEAA@XZ 0000000140051eb0 f i image.obj
 0002:0002bf90       ?Image_Create@@YA_NXZ      0000000140051f90 f   image.obj
 0002:0002c000       ?Image_Destroy@@YAXXZ      0000000140052000 f   image.obj
 0002:0002c0a0       ?Image_Load32@@YAPEAIAEBV?$basic_string@DU?$char_traits@D@std@@V?$allocator@D@2@@std@@@Z 00000001400520a0 f   image.obj
 0002:0002c0f0       ?Image_Load32_CA@@YAPEAIAEBV?$basic_string@DU?$char_traits@D@std@@V?$allocator@D@2@@std@@0@Z 00000001400520f0 f   image.obj
 0002:0002c240       ?Image_Load8@@YAPEAEAEBV?$basic_string@DU?$char_traits@D@std@@V?$allocator@D@2@@std@@@Z 0000000140052240 f   image.obj
 0002:0002c580       ?_Calculate_growth@?$vector@PEAXV?$allocator@PEAX@std@@@std@@AEBA_K_K@Z 0000000140052580 f i image.obj
 0002:0002c660       ?_Change_array@?$vector@PEAXV?$allocator@PEAX@std@@@std@@AEAAXQEAPEAX_K1@Z 0000000140052660 f i image.obj
 0002:0002c7e0       ?_Destroy@?$vector@PEAXV?$allocator@PEAX@std@@@std@@AEAAXPEAPEAX0@Z 00000001400527e0 f i image.obj
 0002:0002c850       ?_Get_first@?$_Compressed_pair@V?$allocator@PEAX@std@@V?$_Vector_val@U?$_Simple_types@PEAX@std@@@2@$00@std@@QEAAAEAV?$allocator@PEAX@2@XZ 0000000140052850 f i image.obj
 0002:0002c890       ?_Get_first@?$_Compressed_pair@V?$allocator@PEAX@std@@V?$_Vector_val@U?$_Simple_types@PEAX@std@@@2@$00@std@@QEBAAEBV?$allocator@PEAX@2@XZ 0000000140052890 f i image.obj
 0002:0002c8d0       ?_Getal@?$vector@PEAXV?$allocator@PEAX@std@@@std@@AEAAAEAV?$allocator@PEAX@2@XZ 00000001400528d0 f i image.obj
 0002:0002c920       ?_Getal@?$vector@PEAXV?$allocator@PEAX@std@@@std@@AEBAAEBV?$allocator@PEAX@2@XZ 0000000140052920 f i image.obj
 0002:0002c970       ?_Orphan_range@?$vector@PEAXV?$allocator@PEAX@std@@@std@@AEBAXPEAPEAX0@Z 0000000140052970 f i image.obj
 0002:0002ca10       ?_Orphan_range_locked@?$vector@PEAXV?$allocator@PEAX@std@@@std@@AEBAXPEAPEAX0@Z 0000000140052a10 f i image.obj
 0002:0002cad0       ?_Orphan_range_unlocked@?$vector@PEAXV?$allocator@PEAX@std@@@std@@AEBAXPEAPEAX0@Z 0000000140052ad0 f i image.obj
 0002:0002cbc0       ?_Release@?$_Uninitialized_backout_al@V?$allocator@PEAX@std@@@std@@QEAAPEAPEAXXZ 0000000140052bc0 f i image.obj
 0002:0002cc20       ?_Tidy@?$vector@PEAXV?$allocator@PEAX@std@@@std@@AEAAXXZ 0000000140052c20 f i image.obj
 0002:0002cd70       ?_Umove@?$vector@PEAXV?$allocator@PEAX@std@@@std@@AEAAPEAPEAXPEAPEAX00@Z 0000000140052d70 f i image.obj
 0002:0002cdf0       ?_Umove_if_noexcept1@?$vector@PEAXV?$allocator@PEAX@std@@@std@@AEAAXPEAPEAX00U?$integral_constant@_N$00@2@@Z 0000000140052df0 f i image.obj
 0002:0002ce70       ?_Umove_if_noexcept@?$vector@PEAXV?$allocator@PEAX@std@@@std@@AEAAXPEAPEAX00@Z 0000000140052e70 f i image.obj
 0002:0002cf10       ?_Unchecked_begin@?$vector@PEAXV?$allocator@PEAX@std@@@std@@QEAAPEAPEAXXZ 0000000140052f10 f i image.obj
 0002:0002cf60       ?_Unchecked_end@?$vector@PEAXV?$allocator@PEAX@std@@@std@@QEAAPEAPEAXXZ 0000000140052f60 f i image.obj
 0002:0002cfb0       ?_Xlength@?$vector@PEAXV?$allocator@PEAX@std@@@std@@CAXXZ 0000000140052fb0 f i image.obj
 0002:0002cff0       ?allocate@?$allocator@PEAX@std@@QEAAPEAPEAX_K@Z 0000000140052ff0 f i image.obj
 0002:0002d050       ?capacity@?$vector@PEAXV?$allocator@PEAX@std@@@std@@QEBA_KXZ 0000000140053050 f i image.obj
 0002:0002d0b0       ?clear@?$vector@PEAXV?$allocator@PEAX@std@@@std@@QEAAXXZ 00000001400530b0 f i image.obj
 0002:0002d150       ?deallocate@?$allocator@PEAX@std@@QEAAXQEAPEAX_K@Z 0000000140053150 f i image.obj
 0002:0002d1b0       ?max_size@?$_Default_allocator_traits@V?$allocator@PEAX@std@@@std@@SA_KAEBV?$allocator@PEAX@2@@Z 00000001400531b0 f i image.obj
 0002:0002d1f0       ?max_size@?$vector@PEAXV?$allocator@PEAX@std@@@std@@QEBA_KXZ 00000001400531f0 f i image.obj
 0002:0002d270       ?push_back@?$vector@PEAXV?$allocator@PEAX@std@@@std@@QEAAXAEBQEAX@Z 0000000140053270 f i image.obj
 0002:0002d2d0       ?Landscape_Create@@YA_NXZ  00000001400532d0 f   landscape.obj
 0002:0002d4c0       ?Landscape_Destroy@@YAXXZ  00000001400534c0 f   landscape.obj
 0002:0002d4f0       ?Landscape_Draw@@YAXPEAIMM@Z 00000001400534f0 f   landscape.obj
 0002:0002f430       ??$?0$$BY03D$0A@@path@filesystem@std@@QEAA@AEAY03$$CBDW4format@012@@Z 0000000140055430 f i main.obj
 0002:0002f4c0       ??$?0$$V@?$_Compressed_pair@V?$allocator@_W@std@@V?$_String_val@U?$_Simple_types@_W@std@@@2@$00@std@@QEAA@U_Zero_then_variadic_args_t@1@@Z 00000001400554c0 f i main.obj
 0002:0002f530       ??$?0AEBV?$allocator@D@std@@$$V@?$_Compressed_pair@V?$allocator@D@std@@V?$_String_val@U?$_Simple_types@D@std@@@2@$00@std@@QEAA@U_One_then_variadic_args_t@1@AEBV?$allocator@D@1@@Z 0000000140055530 f i main.obj
 0002:0002f5a0       ??$?0V?$allocator@_W@std@@$$V@?$_Compressed_pair@V?$allocator@_W@std@@V?$_String_val@U?$_Simple_types@_W@std@@@2@$00@std@@QEAA@U_One_then_variadic_args_t@1@$$QEAV?$allocator@_W@1@@Z 00000001400555a0 f i main.obj
 0002:0002f610       ??$?0_W@?$allocator@U_Container_proxy@std@@@std@@QEAA@AEBV?$allocator@_W@1@@Z 0000000140055610 f i main.obj
 0002:0002f660       ??$?YV?$basic_string_view@DU?$char_traits@D@std@@@std@@$0A@@?$basic_string@DU?$char_traits@D@std@@V?$allocator@D@2@@std@@QEAAAEAV01@AEBV?$basic_string_view@DU?$char_traits@D@std@@@1@@Z 0000000140055660 f i main.obj
 0002:0002f6c0       ??$_Construct_in_place@PEADAEAPEAD@std@@YAXAEAPEAD0@Z 00000001400556c0 f i main.obj
 0002:0002f7b0       ??$_Construct_in_place@PEA_WAEAPEA_W@std@@YAXAEAPEA_W0@Z 00000001400557b0 f i main.obj
 0002:0002f8a0       ??$_Construct_in_place@PEA_WAEBQEA_W@std@@YAXAEAPEA_WAEBQEA_W@Z 00000001400558a0 f i main.obj
 0002:0002f990       ??$_Convert_Source_to_wide@$$BY03DU_Normal_conversion@filesystem@std@@@filesystem@std@@YA?AV?$basic_string@_WU?$char_traits@_W@std@@V?$allocator@_W@2@@1@AEAY03$$CBDU_Normal_conversion@01@@Z 0000000140055990 f i main.obj
 0002:0002fa50       ??$_Convert_stringoid_to_wide@U_Normal_conversion@filesystem@std@@@filesystem@std@@YA?AV?$basic_string@_WU?$char_traits@_W@std@@V?$allocator@_W@2@@1@V?$basic_string_view@DU?$char_traits@D@std@@@1@U_Normal_conversion@01@@Z 0000000140055a50 f i main.obj
 0002:0002fb30       ??$_Convert_wide_to_narrow_replace_chars@U?$char_traits@D@std@@V?$allocator@D@2@@filesystem@std@@YA?AV?$basic_string@DU?$char_traits@D@std@@V?$allocator@D@2@@1@W4__std_code_page@@V?$basic_string_view@_WU?$char_traits@_W@std@@@1@AEBV?$allocator@D@1@@Z 0000000140055b30 f i main.obj
 0002:0002fd60       ??$_Destroy_in_place@PEA_W@std@@YAXAEAPEA_W@Z 0000000140055d60 f i main.obj
 0002:0002fda0       ??$_Get_size_of_n@$01@std@@YA_K_K@Z 0000000140055da0 f i main.obj
 0002:0002fe20       ??$_Getvals@_W@?$time_get@DV?$istreambuf_iterator@DU?$char_traits@D@std@@@std@@@std@@IEAAX_WAEBV_Locinfo@1@@Z 0000000140055e20 f i main.obj
 0002:0002ffe0       ??$_Getvals@_W@?$time_get@_WV?$istreambuf_iterator@_WU?$char_traits@_W@std@@@std@@@std@@IEAAX_WAEBV_Locinfo@1@@Z 0000000140055fe0 f i main.obj
 0002:000301a0       ??$_Immortalize_memcpy_image@V_Generic_error_category@std@@@std@@YAAEBV_Generic_error_category@0@XZ 00000001400561a0 f i main.obj
 0002:000301e0       ??$_Immortalize_memcpy_image@V_System_error_category@std@@@std@@YAAEBV_System_error_category@0@XZ 00000001400561e0 f i main.obj
 0002:00030220       ??$_Maklocstr@D@std@@YAPEADPEBDPEADAEBU_Cvtvec@@@Z 0000000140056220 f i main.obj
 0002:00030320       ??$_Maklocstr@_W@std@@YAPEA_WPEBDPEA_WAEBU_Cvtvec@@@Z 0000000140056320 f i main.obj
 0002:000305e0       ??$_Pocca@V?$allocator@D@std@@@std@@YAXAEAV?$allocator@D@0@AEBV10@@Z 00000001400565e0 f i main.obj
 0002:00030620       ??$_Reallocate_grow_by@V<lambda_1>@?1??append@?$basic_string@DU?$char_traits@D@std@@V?$allocator@D@2@@std@@QEAAAEAV34@QEBD_K@Z@PEBD_K@?$basic_string@DU?$char_traits@D@std@@V?$allocator@D@2@@std@@AEAAAEAV01@_KV<lambda_1>@?1??append@01@QEAAAEAV01@QEBD0@Z@PEBD_K@Z 0000000140056620 f i main.obj
 0002:00030910       ??$_Reallocate_grow_by@V<lambda_1>@?1??append@?$basic_string@DU?$char_traits@D@std@@V?$allocator@D@2@@std@@QEAAAEAV34@_KD@Z@_KD@?$basic_string@DU?$char_traits@D@std@@V?$allocator@D@2@@std@@AEAAAEAV01@_KV<lambda_1>@?1??append@01@QEAAAEAV01@0D@Z@_KD@Z 0000000140056910 f i main.obj
 0002:00030c00       ??$_Reallocate_grow_by@V<lambda_1>@?1??append@?$basic_string@_WU?$char_traits@_W@std@@V?$allocator@_W@2@@std@@QEAAAEAV34@_K_W@Z@_K_W@?$basic_string@_WU?$char_traits@_W@std@@V?$allocator@_W@2@@std@@AEAAAEAV01@_KV<lambda_1>@?1??append@01@QEAAAEAV01@0_W@Z@_K_W@Z 0000000140056c00 f i main.obj
 0002:00030ef0       ??$_Reallocate_grow_by@V<lambda_1>@?1??push_back@?$basic_string@DU?$char_traits@D@std@@V?$allocator@D@2@@std@@QEAAXD@Z@D@?$basic_string@DU?$char_traits@D@std@@V?$allocator@D@2@@std@@AEAAAEAV01@_KV<lambda_1>@?1??push_back@01@QEAAXD@Z@D@Z 0000000140056ef0 f i main.obj
 0002:000311c0       ??$_Reallocate_grow_by@V<lambda_1>@?1??reserve@?$basic_string@DU?$char_traits@D@std@@V?$allocator@D@2@@std@@QEAAX_K@Z@$$V@?$basic_string@DU?$char_traits@D@std@@V?$allocator@D@2@@std@@AEAAAEAV01@_KV<lambda_1>@?1??reserve@01@QEAAX0@Z@@Z 00000001400571c0 f i main.obj
 0002:00031470       ??$_Stringoid_from_Source@D$03@filesystem@std@@YA?AV?$basic_string_view@DU?$char_traits@D@std@@@1@AEAY03$$CBD@Z 0000000140057470 f i main.obj
 0002:000315b0       ??$_Unfancy@_W@std@@YAPEA_WPEA_W@Z 00000001400575b0 f i main.obj
 0002:000315f0       ??$_Voidify_iter@PEAPEA_W@std@@YAPEAXPEAPEA_W@Z 00000001400575f0 f i main.obj
 0002:00031630       ??$_Voidify_iter@PEA_W@std@@YAPEAXPEA_W@Z 0000000140057630 f i main.obj
 0002:00031670       ??$addressof@$$CBV?$_String_val@U?$_Simple_types@D@std@@@std@@@std@@YAPEBV?$_String_val@U?$_Simple_types@D@std@@@0@AEBV10@@Z 0000000140057670 f i main.obj
 0002:000316b0       ??$addressof@$$CBV?$_String_val@U?$_Simple_types@_W@std@@@std@@@std@@YAPEBV?$_String_val@U?$_Simple_types@_W@std@@@0@AEBV10@@Z 00000001400576b0 f i main.obj
 0002:000316f0       ??$addressof@$$CBV?$basic_string@DU?$char_traits@D@std@@V?$allocator@D@2@@std@@@std@@YAPEBV?$basic_string@DU?$char_traits@D@std@@V?$allocator@D@2@@0@AEBV10@@Z 00000001400576f0 f i main.obj
 0002:00031730       ??$addressof@PEA_W@std@@YAPEAPEA_WAEAPEA_W@Z 0000000140057730 f i main.obj
 0002:00031770       ??$addressof@V?$_String_val@U?$_Simple_types@D@std@@@std@@@std@@YAPEAV?$_String_val@U?$_Simple_types@D@std@@@0@AEAV10@@Z 0000000140057770 f i main.obj
 0002:000317b0       ??$addressof@V?$_String_val@U?$_Simple_types@_W@std@@@std@@@std@@YAPEAV?$_String_val@U?$_Simple_types@_W@std@@@0@AEAV10@@Z 00000001400577b0 f i main.obj
 0002:000317f0       ??$append@V?$basic_string_view@DU?$char_traits@D@std@@@std@@$0A@@?$basic_string@DU?$char_traits@D@std@@V?$allocator@D@2@@std@@QEAAAEAV01@AEBV?$basic_string_view@DU?$char_traits@D@std@@@1@@Z 00000001400577f0 f i main.obj
 0002:000318e0       ??$construct_at@PEADAEAPEADX@std@@YAPEAPEADQEAPEADAEAPEAD@Z 00000001400578e0 f i main.obj
 0002:00031970       ??$construct_at@PEA_WAEAPEA_WX@std@@YAPEAPEA_WQEAPEA_WAEAPEA_W@Z 0000000140057970 f i main.obj
 0002:00031a00       ??$construct_at@PEA_WAEBQEA_WX@std@@YAPEAPEA_WQEAPEA_WAEBQEA_W@Z 0000000140057a00 f i main.obj
 0002:00031a90       ??$construct_at@_WAEB_WX@std@@YAPEA_WQEA_WAEB_W@Z 0000000140057a90 f i main.obj
 0002:00031b20       ??$forward@AEAPEAD@std@@YAAEAPEADAEAPEAD@Z 0000000140057b20 f i main.obj
 0002:00031b60       ??$forward@AEAPEA_W@std@@YAAEAPEA_WAEAPEA_W@Z 0000000140057b60 f i main.obj
 0002:00031ba0       ??$forward@AEBQEA_W@std@@YAAEBQEA_WAEBQEA_W@Z 0000000140057ba0 f i main.obj
 0002:00031be0       ??$forward@AEBV?$allocator@D@std@@@std@@YAAEBV?$allocator@D@0@AEBV10@@Z 0000000140057be0 f i main.obj
 0002:00031c20       ??$forward@AEB_W@std@@YAAEB_WAEB_W@Z 0000000140057c20 f i main.obj
 0002:00031c60       ??$forward@V?$allocator@_W@std@@@std@@YA$$QEAV?$allocator@_W@0@AEAV10@@Z 0000000140057c60 f i main.obj
 0002:00031ca0       ??$move@AEAV?$allocator@D@std@@@std@@YA$$QEAV?$allocator@D@0@AEAV10@@Z 0000000140057ca0 f i main.obj
 0002:00031ce0       ??$move@AEAV?$allocator@_W@std@@@std@@YA$$QEAV?$allocator@_W@0@AEAV10@@Z 0000000140057ce0 f i main.obj
 0002:00031d20       ??0?$_String_val@U?$_Simple_types@_W@std@@@std@@QEAA@XZ 0000000140057d20 f i main.obj
 0002:00031db0       ??0?$allocator@_W@std@@QEAA@XZ 0000000140057db0 f i main.obj
 0002:00031df0       ??0?$basic_string@DU?$char_traits@D@std@@V?$allocator@D@2@@std@@QEAA@$$QEAV01@@Z 0000000140057df0 f i main.obj
 0002:00031f00       ??0?$basic_string@DU?$char_traits@D@std@@V?$allocator@D@2@@std@@QEAA@AEBV01@@Z 0000000140057f00 f i main.obj
 0002:00032070       ??0?$basic_string@DU?$char_traits@D@std@@V?$allocator@D@2@@std@@QEAA@AEBV?$allocator@D@1@@Z 0000000140058070 f i main.obj
 0002:00032140       ??0?$basic_string@DU?$char_traits@D@std@@V?$allocator@D@2@@std@@QEAA@QEBD_K@Z 0000000140058140 f i main.obj
 0002:00032280       ??0?$basic_string@DU?$char_traits@D@std@@V?$allocator@D@2@@std@@QEAA@XZ 0000000140058280 f i main.obj
 0002:00032340       ??0?$basic_string@_WU?$char_traits@_W@std@@V?$allocator@_W@2@@std@@QEAA@$$QEAV01@@Z 0000000140058340 f i main.obj
 0002:00032450       ??0?$basic_string@_WU?$char_traits@_W@std@@V?$allocator@_W@2@@std@@QEAA@AEBV01@@Z 0000000140058450 f i main.obj
 0002:000325c0       ??0?$basic_string@_WU?$char_traits@_W@std@@V?$allocator@_W@2@@std@@QEAA@XZ 00000001400585c0 f i main.obj
 0002:00032680       ??0?$basic_string_view@DU?$char_traits@D@std@@@std@@QEAA@QEBD@Z 0000000140058680 f i main.obj
 0002:00032700       ??0?$basic_string_view@DU?$char_traits@D@std@@@std@@QEAA@QEBD_K@Z 0000000140058700 f i main.obj
 0002:00032830       ??0?$basic_string_view@_WU?$char_traits@_W@std@@@std@@QEAA@QEB_W_K@Z 0000000140058830 f i main.obj
 0002:00032960       ??0Timer@@QEAA@XZ          0000000140058960 f i main.obj
 0002:000329b0       ??0_Bxty@?$_String_val@U?$_Simple_types@_W@std@@@std@@QEAA@XZ 00000001400589b0 f i main.obj
 0002:00032a00       ??0_System_error@std@@IEAA@Verror_code@1@AEBV?$basic_string@DU?$char_traits@D@std@@V?$allocator@D@2@@1@@Z 0000000140058a00 f i main.obj
 0002:00032b70       ??0_System_error@std@@QEAA@AEBV01@@Z 0000000140058b70 f i main.obj
 0002:00032c00       ??0_System_error_message@std@@QEAA@K@Z 0000000140058c00 f i main.obj
 0002:00032c80       ??0error_code@std@@QEAA@HAEBVerror_category@1@@Z 0000000140058c80 f i main.obj
 0002:00032cf0       ??0error_condition@std@@QEAA@HAEBVerror_category@1@@Z 0000000140058cf0 f i main.obj
 0002:00032d60       ??0exception@std@@QEAA@QEBD@Z 0000000140058d60 f i main.obj
 0002:00032e40       ??0filesystem_error@filesystem@std@@QEAA@AEBV012@@Z 0000000140058e40 f i main.obj
 0002:00032f50       ??0filesystem_error@filesystem@std@@QEAA@AEBV?$basic_string@DU?$char_traits@D@std@@V?$allocator@D@2@@2@AEBVpath@12@Verror_code@2@@Z 0000000140058f50 f i main.obj
 0002:00033120       ??0path@filesystem@std@@QEAA@AEBV012@@Z 0000000140059120 f i main.obj
 0002:00033190       ??0path@filesystem@std@@QEAA@XZ 0000000140059190 f i main.obj
 0002:000331e0       ??0runtime_error@std@@QEAA@AEBV01@@Z 00000001400591e0 f i main.obj
 0002:00033240       ??0runtime_error@std@@QEAA@AEBV?$basic_string@DU?$char_traits@D@std@@V?$allocator@D@2@@1@@Z 0000000140059240 f i main.obj
 0002:000332c0       ??0system_error@std@@QEAA@AEBV01@@Z 00000001400592c0 f i main.obj
 0002:00033320       ??0system_error@std@@QEAA@Verror_code@1@@Z 0000000140059320 f i main.obj
 0002:000333f0       ??0system_error@std@@QEAA@Verror_code@1@AEBV?$basic_string@DU?$char_traits@D@std@@V?$allocator@D@2@@1@@Z 00000001400593f0 f i main.obj
 0002:00033490       ??1?$_Compressed_pair@V?$allocator@_W@std@@V?$_String_val@U?$_Simple_types@_W@std@@@2@$00@std@@QEAA@XZ 0000000140059490 f i main.obj
 0002:000334d0       ??1?$_String_val@U?$_Simple_types@_W@std@@@std@@QEAA@XZ 00000001400594d0 f i main.obj
 0002:00033510       ??1?$basic_string@_WU?$char_traits@_W@std@@V?$allocator@_W@2@@std@@QEAA@XZ 0000000140059510 f i main.obj
 0002:00033600       ??1_Bxty@?$_String_val@U?$_Simple_types@_W@std@@@std@@QEAA@XZ 0000000140059600 f i main.obj
 0002:00033640       ??1_Generic_error_category@std@@UEAA@XZ 0000000140059640 f i main.obj
 0002:00033680       ??1_System_error@std@@UEAA@XZ 0000000140059680 f i main.obj
 0002:000336c0       ??1_System_error_category@std@@UEAA@XZ 00000001400596c0 f i main.obj
 0002:00033700       ??1_System_error_message@std@@QEAA@XZ 0000000140059700 f i main.obj
 0002:00033750       ??1error_category@std@@UEAA@XZ 0000000140059750 f i main.obj
 0002:00033790       ??1filesystem_error@filesystem@std@@UEAA@XZ 0000000140059790 f i main.obj
 0002:00033810       ??1path@filesystem@std@@QEAA@XZ 0000000140059810 f i main.obj
 0002:00033860       ??1runtime_error@std@@UEAA@XZ 0000000140059860 f i main.obj
 0002:000338a0       ??1system_error@std@@UEAA@XZ 00000001400598a0 f i main.obj
 0002:000338e0       ??4?$basic_string@DU?$char_traits@D@std@@V?$allocator@D@2@@std@@QEAAAEAV01@AEBV01@@Z 00000001400598e0 f i main.obj
 0002:00033980       ??8error_category@std@@QEBA_NAEBV01@@Z 0000000140059980 f i main.obj
 0002:00033a00       ??8std@@YA_NAEBVerror_condition@0@0@Z 0000000140059a00 f i main.obj
 0002:00033ae0       ??B?$basic_string@_WU?$char_traits@_W@std@@V?$allocator@_W@2@@std@@QEBA?AV?$basic_string_view@_WU?$char_traits@_W@std@@@1@XZ 0000000140059ae0 f i main.obj
 0002:00033b80       ??R<lambda_1>@?1??append@?$basic_string@DU?$char_traits@D@std@@V?$allocator@D@2@@std@@QEAAAEAV23@QEBD_K@Z@QEBA@QEAD0101@Z 0000000140059b80 f i main.obj
 0002:00033c60       ??R<lambda_1>@?1??append@?$basic_string@DU?$char_traits@D@std@@V?$allocator@D@2@@std@@QEAAAEAV23@_KD@Z@QEBA@QEADQEBD00D@Z 0000000140059c60 f i main.obj
 0002:00033d50       ??R<lambda_1>@?1??append@?$basic_string@_WU?$char_traits@_W@std@@V?$allocator@_W@2@@std@@QEAAAEAV23@_K_W@Z@QEBA@QEA_WQEB_W001@Z 0000000140059d50 f i main.obj
 0002:00033e30       ??R<lambda_1>@?1??push_back@?$basic_string@DU?$char_traits@D@std@@V?$allocator@D@2@@std@@QEAAXD@Z@QEBA@QEADQEBD_KD@Z 0000000140059e30 f i main.obj
 0002:00033f00       ??R<lambda_1>@?1??reserve@?$basic_string@DU?$char_traits@D@std@@V?$allocator@D@2@@std@@QEAAX_K@Z@QEBA@QEADQEBD0@Z 0000000140059f00 f i main.obj
 0002:00033f70       ??Y?$basic_string@DU?$char_traits@D@std@@V?$allocator@D@2@@std@@QEAAAEAV01@AEBV01@@Z 0000000140059f70 f i main.obj
 0002:00033fd0       ??Y?$basic_string@DU?$char_traits@D@std@@V?$allocator@D@2@@std@@QEAAAEAV01@D@Z 0000000140059fd0 f i main.obj
 0002:00034030       ??_E_Generic_error_category@std@@UEAAPEAXI@Z 000000014005a030 f i main.obj
 0002:00034030       ??_G_Generic_error_category@std@@UEAAPEAXI@Z 000000014005a030 f i main.obj
 0002:000340a0       ??_G_System_error@std@@UEAAPEAXI@Z 000000014005a0a0 f i main.obj
 0002:000340a0       ??_E_System_error@std@@UEAAPEAXI@Z 000000014005a0a0 f i main.obj
 0002:00034110       ??_E_System_error_category@std@@UEAAPEAXI@Z 000000014005a110 f i main.obj
 0002:00034110       ??_G_System_error_category@std@@UEAAPEAXI@Z 000000014005a110 f i main.obj
 0002:00034180       ??_Efilesystem_error@filesystem@std@@UEAAPEAXI@Z 000000014005a180 f i main.obj
 0002:00034180       ??_Gfilesystem_error@filesystem@std@@UEAAPEAXI@Z 000000014005a180 f i main.obj
 0002:000341f0       ??_Eruntime_error@std@@UEAAPEAXI@Z 000000014005a1f0 f i main.obj
 0002:000341f0       ??_Gruntime_error@std@@UEAAPEAXI@Z 000000014005a1f0 f i main.obj
 0002:00034260       ??_Esystem_error@std@@UEAAPEAXI@Z 000000014005a260 f i main.obj
 0002:00034260       ??_Gsystem_error@std@@UEAAPEAXI@Z 000000014005a260 f i main.obj
 0002:000342d0       ??__Ksv@string_view_literals@literals@std@@YA?AV?$basic_string_view@DU?$char_traits@D@std@@@3@PEBD_K@Z 000000014005a2d0 f i main.obj
 0002:00034340       ?Get@Timer@@QEBAMXZ        000000014005a340 f i main.obj
 0002:000344a0       ?Reset@Timer@@QEAAXXZ      000000014005a4a0 f i main.obj
 0002:00034560       ?SetLastError@@YAXAEBV?$basic_string@DU?$char_traits@D@std@@V?$allocator@D@2@@std@@@Z 000000014005a560 f   main.obj
 0002:000345b0       ?_Calculate_growth@?$basic_string@_WU?$char_traits@_W@std@@V?$allocator@_W@2@@std@@AEBA_K_K@Z 000000014005a5b0 f i main.obj
 0002:00034640       ?_Calculate_growth@?$basic_string@_WU?$char_traits@_W@std@@V?$allocator@_W@2@@std@@CA_K_K00@Z 000000014005a640 f i main.obj
 0002:00034770       ?_Check_convert_result@filesystem@std@@YAHU__std_fs_convert_result@@@Z 000000014005a770 f i main.obj
 0002:000347d0       ?_Construct_lv_contents@?$basic_string@DU?$char_traits@D@std@@V?$allocator@D@2@@std@@AEAAXAEBV12@@Z 000000014005a7d0 f i main.obj
 0002:00034a60       ?_Construct_lv_contents@?$basic_string@_WU?$char_traits@_W@std@@V?$allocator@_W@2@@std@@AEAAXAEBV12@@Z 000000014005aa60 f i main.obj
 0002:00034cf0       ?_Convert_narrow_to_wide@filesystem@std@@YA?AV?$basic_string@_WU?$char_traits@_W@std@@V?$allocator@_W@2@@2@W4__std_code_page@@V?$basic_string_view@DU?$char_traits@D@std@@@2@@Z 000000014005acf0 f i main.obj
 0002:00034f20       ?_Copy_assign@?$basic_string@DU?$char_traits@D@std@@V?$allocator@D@2@@std@@AEAAXAEBV12@U?$integral_constant@_N$0A@@2@@Z 000000014005af20 f i main.obj
 0002:00035000       ?_Eos@?$basic_string@DU?$char_traits@D@std@@V?$allocator@D@2@@std@@AEAAX_K@Z 000000014005b000 f i main.obj
 0002:000350c0       ?_Eos@?$basic_string@_WU?$char_traits@_W@std@@V?$allocator@_W@2@@std@@AEAAX_K@Z 000000014005b0c0 f i main.obj
 0002:00035180       ?_Get_first@?$_Compressed_pair@V?$allocator@_W@std@@V?$_String_val@U?$_Simple_types@_W@std@@@2@$00@std@@QEAAAEAV?$allocator@_W@2@XZ 000000014005b180 f i main.obj
 0002:000351c0       ?_Get_first@?$_Compressed_pair@V?$allocator@_W@std@@V?$_String_val@U?$_Simple_types@_W@std@@@2@$00@std@@QEBAAEBV?$allocator@_W@2@XZ 000000014005b1c0 f i main.obj
 0002:00035200       ?_Getal@?$basic_string@_WU?$char_traits@_W@std@@V?$allocator@_W@2@@std@@AEAAAEAV?$allocator@_W@2@XZ 000000014005b200 f i main.obj
 0002:00035250       ?_Getal@?$basic_string@_WU?$char_traits@_W@std@@V?$allocator@_W@2@@std@@AEBAAEBV?$allocator@_W@2@XZ 000000014005b250 f i main.obj
 0002:000352a0       ?_Large_string_engaged@?$_String_val@U?$_Simple_types@_W@std@@@std@@QEBA_NXZ 000000014005b2a0 f i main.obj
 0002:00035320       ?_Make_ec@filesystem@std@@YA?AVerror_code@2@W4__std_win_error@@@Z 000000014005b320 f i main.obj
 0002:00035390       ?_Makestr@_System_error@std@@CA?AV?$basic_string@DU?$char_traits@D@std@@V?$allocator@D@2@@2@Verror_code@2@V32@@Z 000000014005b390 f i main.obj
 0002:000354c0       ?_Maklocwcs@std@@YAPEA_WPEB_W@Z 000000014005b4c0 f i main.obj
 0002:00035580       ?_Memcpy_val_from@?$basic_string@DU?$char_traits@D@std@@V?$allocator@D@2@@std@@AEAAXAEBV12@@Z 000000014005b580 f i main.obj
 0002:00035610       ?_Memcpy_val_from@?$basic_string@_WU?$char_traits@_W@std@@V?$allocator@_W@2@@std@@AEAAXAEBV12@@Z 000000014005b610 f i main.obj
 0002:000356a0       ?_Myptr@?$_String_val@U?$_Simple_types@_W@std@@@std@@QEAAPEA_WXZ 000000014005b6a0 f i main.obj
 0002:00035720       ?_Myptr@?$_String_val@U?$_Simple_types@_W@std@@@std@@QEBAPEB_WXZ 000000014005b720 f i main.obj
 0002:000357a0       ?_Pretty_message@filesystem_error@filesystem@std@@CA?AV?$basic_string@DU?$char_traits@D@std@@V?$allocator@D@2@@3@V?$basic_string_view@DU?$char_traits@D@std@@@3@AEBVpath@23@1@Z 000000014005b7a0 f i main.obj
 0002:00035b50       ?_Swap_proxy_and_iterators@?$basic_string@DU?$char_traits@D@std@@V?$allocator@D@2@@std@@AEAAXAEAV12@@Z 000000014005bb50 f i main.obj
 0002:00035bc0       ?_Swap_proxy_and_iterators@?$basic_string@_WU?$char_traits@_W@std@@V?$allocator@_W@2@@std@@AEAAXAEAV12@@Z 000000014005bbc0 f i main.obj
 0002:00035c30       ?_Swap_proxy_and_iterators@_Container_base12@std@@QEAAXAEAU12@@Z 000000014005bc30 f i main.obj
 0002:00035cb0       ?_Swap_proxy_and_iterators_locked@_Container_base12@std@@AEAAXAEAU12@@Z 000000014005bcb0 f i main.obj
 0002:00035d60       ?_Swap_proxy_and_iterators_unlocked@_Container_base12@std@@AEAAXAEAU12@@Z 000000014005bd60 f i main.obj
 0002:00035e30       ?_Take_contents@?$basic_string@DU?$char_traits@D@std@@V?$allocator@D@2@@std@@AEAAXAEAV12@@Z 000000014005be30 f i main.obj
 0002:00035fe0       ?_Take_contents@?$basic_string@_WU?$char_traits@_W@std@@V?$allocator@_W@2@@std@@AEAAXAEAV12@@Z 000000014005bfe0 f i main.obj
 0002:00036190       ?_Throw_fs_error@filesystem@std@@YAXPEBDW4__std_win_error@@AEBVpath@12@@Z 000000014005c190 f i main.obj
 0002:00036290       ?_Throw_system_error@std@@YAXW4errc@1@@Z 000000014005c290 f i main.obj
 0002:00036330       ?_Throw_system_error_from_std_win_error@filesystem@std@@YAXW4__std_win_error@@@Z 000000014005c330 f i main.obj
 0002:000363d0       ?_Tidy_deallocate@?$basic_string@_WU?$char_traits@_W@std@@V?$allocator@_W@2@@std@@AEAAXXZ 000000014005c3d0 f i main.obj
 0002:00036540       ?_Tidy_init@?$basic_string@_WU?$char_traits@_W@std@@V?$allocator@_W@2@@std@@AEAAXXZ 000000014005c540 f i main.obj
 0002:00036660       ?__empty_global_delete@@YAXPEAX@Z 000000014005c660 f i main.obj
 0002:000366a0       ?__empty_global_delete@@YAXPEAXW4align_val_t@std@@@Z 000000014005c6a0 f i main.obj
 0002:000366e0       ?__empty_global_delete@@YAXPEAX_K@Z 000000014005c6e0 f i main.obj
 0002:00036720       ?__empty_global_delete@@YAXPEAX_KW4align_val_t@std@@@Z 000000014005c720 f i main.obj
 0002:00036760       ?allocate@?$allocator@_W@std@@QEAAPEA_W_K@Z 000000014005c760 f i main.obj
 0002:000367c0       ?append@?$basic_string@DU?$char_traits@D@std@@V?$allocator@D@2@@std@@QEAAAEAV12@AEBV12@@Z 000000014005c7c0 f i main.obj
 0002:00036850       ?append@?$basic_string@DU?$char_traits@D@std@@V?$allocator@D@2@@std@@QEAAAEAV12@QEBD@Z 000000014005c850 f i main.obj
 0002:000368c0       ?append@?$basic_string@DU?$char_traits@D@std@@V?$allocator@D@2@@std@@QEAAAEAV12@QEBD_K@Z 000000014005c8c0 f i main.obj
 0002:00036a30       ?append@?$basic_string@DU?$char_traits@D@std@@V?$allocator@D@2@@std@@QEAAAEAV12@_KD@Z 000000014005ca30 f i main.obj
 0002:00036ba0       ?append@?$basic_string@_WU?$char_traits@_W@std@@V?$allocator@_W@2@@std@@QEAAAEAV12@_K_W@Z 000000014005cba0 f i main.obj
 0002:00036d10       ?assign@?$_Char_traits@_WG@std@@SAPEA_WQEA_W_K_W@Z 000000014005cd10 f i main.obj
 0002:00036e20       ?assign@?$_WChar_traits@_W@std@@SAPEA_WQEA_W_K_W@Z 000000014005ce20 f i main.obj
 0002:00036ec0       ?assign@?$_WChar_traits@_W@std@@SAXAEA_WAEB_W@Z 000000014005cec0 f i main.obj
 0002:00036f20       ?category@error_code@std@@QEBAAEBVerror_category@2@XZ 000000014005cf20 f i main.obj
 0002:00036f70       ?category@error_condition@std@@QEBAAEBVerror_category@2@XZ 000000014005cf70 f i main.obj
 0002:00036fc0       ?copy@?$_Char_traits@_WG@std@@SAPEA_WQEA_WQEB_W_K@Z 000000014005cfc0 f i main.obj
 0002:000370a0       ?current_path@filesystem@std@@YAXAEBVpath@12@@Z 000000014005d0a0 f i main.obj
 0002:00037120       ?data@?$basic_string@DU?$char_traits@D@std@@V?$allocator@D@2@@std@@QEAAPEADXZ 000000014005d120 f i main.obj
 0002:00037170       ?data@?$basic_string@_WU?$char_traits@_W@std@@V?$allocator@_W@2@@std@@QEAAPEA_WXZ 000000014005d170 f i main.obj
 0002:000371c0       ?data@?$basic_string@_WU?$char_traits@_W@std@@V?$allocator@_W@2@@std@@QEBAPEB_WXZ 000000014005d1c0 f i main.obj
 0002:00037210       ?data@?$basic_string_view@DU?$char_traits@D@std@@@std@@QEBAPEBDXZ 000000014005d210 f i main.obj
 0002:00037250       ?data@?$basic_string_view@_WU?$char_traits@_W@std@@@std@@QEBAPEB_WXZ 000000014005d250 f i main.obj
 0002:00037290       ?deallocate@?$allocator@_W@std@@QEAAXQEA_W_K@Z 000000014005d290 f i main.obj
 0002:000372f0       ?default_error_condition@_System_error_category@std@@UEBA?AVerror_condition@2@H@Z 000000014005d2f0 f i main.obj
 0002:000373a0       ?default_error_condition@error_category@std@@UEBA?AVerror_condition@2@H@Z 000000014005d3a0 f i main.obj
 0002:00037410       ?empty@?$basic_string@DU?$char_traits@D@std@@V?$allocator@D@2@@std@@QEBA_NXZ 000000014005d410 f i main.obj
 0002:00037480       ?empty@?$basic_string_view@DU?$char_traits@D@std@@@std@@QEBA_NXZ 000000014005d480 f i main.obj
 0002:000374f0       ?empty@?$basic_string_view@_WU?$char_traits@_W@std@@@std@@QEBA_NXZ 000000014005d4f0 f i main.obj
 0002:00037560       ?equivalent@error_category@std@@UEBA_NAEBVerror_code@2@H@Z 000000014005d560 f i main.obj
 0002:00037610       ?equivalent@error_category@std@@UEBA_NHAEBVerror_condition@2@@Z 000000014005d610 f i main.obj
 0002:000376a0       ?generic_category@std@@YAAEBVerror_category@1@XZ 000000014005d6a0 f i main.obj
 0002:000376e0       ?make_error_code@std@@YA?AVerror_code@1@W4errc@1@@Z 000000014005d6e0 f i main.obj
 0002:00037750       ?max_size@?$_Default_allocator_traits@V?$allocator@_W@std@@@std@@SA_KAEBV?$allocator@_W@2@@Z 000000014005d750 f i main.obj
 0002:00037790       ?max_size@?$basic_string@_WU?$char_traits@_W@std@@V?$allocator@_W@2@@std@@QEBA_KXZ 000000014005d790 f i main.obj
 0002:00037970       ?message@_Generic_error_category@std@@UEBA?AV?$basic_string@DU?$char_traits@D@std@@V?$allocator@D@2@@2@H@Z 000000014005d970 f i main.obj
 0002:00037a00       ?message@_System_error_category@std@@UEBA?AV?$basic_string@DU?$char_traits@D@std@@V?$allocator@D@2@@2@H@Z 000000014005da00 f i main.obj
 0002:00037b50       ?message@error_code@std@@QEBA?AV?$basic_string@DU?$char_traits@D@std@@V?$allocator@D@2@@2@XZ 000000014005db50 f i main.obj
 0002:00037c20       ?name@_Generic_error_category@std@@UEBAPEBDXZ 000000014005dc20 f i main.obj
 0002:00037c60       ?name@_System_error_category@std@@UEBAPEBDXZ 000000014005dc60 f i main.obj
 0002:00037ca0       ?native@path@filesystem@std@@QEBAAEBV?$basic_string@_WU?$char_traits@_W@std@@V?$allocator@_W@2@@3@XZ 000000014005dca0 f i main.obj
 0002:00037ce0       ?push_back@?$basic_string@DU?$char_traits@D@std@@V?$allocator@D@2@@std@@QEAAXD@Z 000000014005dce0 f i main.obj
 0002:00037df0       ?reserve@?$basic_string@DU?$char_traits@D@std@@V?$allocator@D@2@@std@@QEAAX_K@Z 000000014005ddf0 f i main.obj
 0002:00037ea0       ?resize@?$basic_string@DU?$char_traits@D@std@@V?$allocator@D@2@@std@@QEAAX_KD@Z 000000014005dea0 f i main.obj
 0002:00037f50       ?resize@?$basic_string@_WU?$char_traits@_W@std@@V?$allocator@_W@2@@std@@QEAAX_K_W@Z 000000014005df50 f i main.obj
 0002:00038010       ?select_on_container_copy_construction@?$_Default_allocator_traits@V?$allocator@_W@std@@@std@@SA?AV?$allocator@_W@2@AEBV32@@Z 000000014005e010 f i main.obj
 0002:00038060       ?size@?$basic_string@_WU?$char_traits@_W@std@@V?$allocator@_W@2@@std@@QEBA_KXZ 000000014005e060 f i main.obj
 0002:000380b0       ?size@?$basic_string_view@DU?$char_traits@D@std@@@std@@QEBA_KXZ 000000014005e0b0 f i main.obj
 0002:00038100       ?size@?$basic_string_view@_WU?$char_traits@_W@std@@@std@@QEBA_KXZ 000000014005e100 f i main.obj
 0002:00038150       ?system_category@std@@YAAEBVerror_category@1@XZ 000000014005e150 f i main.obj
 0002:00038190       ?value@error_code@std@@QEBAHXZ 000000014005e190 f i main.obj
 0002:000381d0       ?value@error_condition@std@@QEBAHXZ 000000014005e1d0 f i main.obj
 0002:00038210       ?what@filesystem_error@filesystem@std@@UEBAPEBDXZ 000000014005e210 f i main.obj
 0002:00038260       WinMain                    000000014005e260 f   main.obj
 0002:00038920       wmemcpy                    000000014005e920 f i main.obj
 0002:00038990       wmemset                    000000014005e990 f i main.obj
 0002:000393f0       ?Polar_Blit@@YAXPEAIPEBI_N@Z 000000014005f3f0 f   polar.obj
 0002:000397a0       ?Polar_BlitA@@YAXPEAIPEBI_N@Z 000000014005f7a0 f   polar.obj
 0002:00039b50       ?Polar_Blit_2x2@@YAXPEAIPEBI_N@Z 000000014005fb50 f   polar.obj
 0002:00039c20       ?Polar_Create@@YA_NXZ      000000014005fc20 f   polar.obj
 0002:00039d40       ?Polar_Destroy@@YAXXZ      000000014005fd40 f   polar.obj
 0002:0003a850       ?Shared_Create@@YA_NXZ     0000000140060850 f   shared-resources.obj
 0002:0003a9d0       ?Shared_Destroy@@YAXXZ     00000001400609d0 f   shared-resources.obj
 0002:0003aac0       ?CalculateCosLUT@@YAXXZ    0000000140060ac0 f   sincos-lut.obj
 0002:0003ab70       ?RunTests@@YA_NXZ          0000000140060b70 f   tests.obj
 0002:0003ac30       ?Twister_Create@@YA_NXZ    0000000140060c30 f   torus-twister.obj
 0002:0003ada0       ?Twister_Destroy@@YAXXZ    0000000140060da0 f   torus-twister.obj
 0002:0003add0       ?Twister_Draw@@YAXPEAIMM@Z 0000000140060dd0 f   torus-twister.obj
 0002:0003c0e0       ?vtwister_precalc@@YAXXZ   00000001400620e0 f   torus-twister.obj
 0002:0003c7c0       ?Tunnelscape_Create@@YA_NXZ 00000001400627c0 f   tunnelscape.obj
 0002:0003c9b0       ?Tunnelscape_Destroy@@YAXXZ 00000001400629b0 f   tunnelscape.obj
 0002:0003c9e0       ?Tunnelscape_Draw@@YAXPEAIMM@Z 00000001400629e0 f   tunnelscape.obj
 0002:0003e440       ?Add32@@YAXPEAIPEBII@Z     0000000140064440 f   util.obj
 0002:0003e7c0       ?BlitAdd32@@YAXPEAIPEBIIII@Z 00000001400647c0 f   util.obj
 0002:0003ebc0       ?BlitAdd32A@@YAXPEAIPEBIIIIM@Z 0000000140064bc0 f   util.obj
 0002:0003f060       ?BlitSrc32@@YAXPEAIPEBIIII@Z 0000000140065060 f   util.obj
 0002:0003f4f0       ?BlitSrc32A@@YAXPEAIPEBIIIIM@Z 00000001400654f0 f   util.obj
 0002:0003f950       ?Darken32_50@@YAXPEAIPEBII@Z 0000000140065950 f   util.obj
 0002:0003fc90       ?Excl32@@YAXPEAIPEBII@Z    0000000140065c90 f   util.obj
 0002:0003ff70       ?Fade32@@YAXPEAIIIE@Z      0000000140065f70 f   util.obj
 0002:00040360       ?Mix32@@YAXPEAIPEBIIE@Z    0000000140066360 f   util.obj
 0002:00040780       ?MixOver32@@YAXPEAIPEBII@Z 0000000140066780 f   util.obj
 0002:00040ae0       ?MixSrc32@@YAXPEAIPEBII@Z  0000000140066ae0 f   util.obj
 0002:00040f00       ?MixSrc32S@@YAXPEAIPEBIIII@Z 0000000140066f00 f   util.obj
 0002:00041230       ?MulSrc32@@YAXPEAIPEBII@Z  0000000140067230 f   util.obj
 0002:00041560       ?MulSrc32A@@YAXPEAIPEBII@Z 0000000140067560 f   util.obj
 0002:00041970       ?Overlay32@@YAXPEAIPEBII@Z 0000000140067970 f   util.obj
 0002:00041e10       ?Overlay32A@@YAXPEAIPEBII@Z 0000000140067e10 f   util.obj
 0002:00042110       ?SoftLight32@@YAXPEAIPEBII@Z 0000000140068110 f   util.obj
 0002:000424a0       ?SoftLight32A@@YAXPEAIPEBII@Z 00000001400684a0 f   util.obj
 0002:00042830       ?SoftLight32AA@@YAXPEAIPEBIIM@Z 0000000140068830 f   util.obj
 0002:00042c00       ?Sub32@@YAXPEAIPEBII@Z     0000000140068c00 f   util.obj
 0002:00043120       ?TapeWarp32@@YAXPEAIPEBIIIMM@Z 0000000140069120 f   util.obj
 0002:00043a43       closesocket                0000000140069a43 f   ws2_32:WS2_32.dll
 0002:00043a49       connect                    0000000140069a49 f   ws2_32:WS2_32.dll
 0002:00043a4f       htonl                      0000000140069a4f f   ws2_32:WS2_32.dll
 0002:00043a55       ntohl                      0000000140069a55 f   ws2_32:WS2_32.dll
 0002:00043a5b       recv                       0000000140069a5b f   ws2_32:WS2_32.dll
 0002:00043a61       select                     0000000140069a61 f   ws2_32:WS2_32.dll
 0002:00043a67       send                       0000000140069a67 f   ws2_32:WS2_32.dll
 0002:00043a6d       socket                     0000000140069a6d f   ws2_32:WS2_32.dll
 0002:00043a73       WSAStartup                 0000000140069a73 f   ws2_32:WS2_32.dll
 0002:00043a79       getaddrinfo                0000000140069a79 f   ws2_32:WS2_32.dll
 0002:00043a7f       freeaddrinfo               0000000140069a7f f   ws2_32:WS2_32.dll
 0002:00043a85       OutputDebugStringA         0000000140069a85 f   kernel32:KERNEL32.dll
 0002:00043a8b       GetForegroundWindow        0000000140069a8b f   user32:USER32.dll
 0002:00043a91       MessageBoxA                0000000140069a91 f   user32:USER32.dll
 0002:00043a97       BASS_ErrorGetCode          0000000140069a97 f   bass:BASS.dll
 0002:00043a9d       BASS_Init                  0000000140069a9d f   bass:BASS.dll
 0002:00043aa3       BASS_Free                  0000000140069aa3 f   bass:BASS.dll
 0002:00043aa9       BASS_GetInfo               0000000140069aa9 f   bass:BASS.dll
 0002:00043aaf       BASS_StreamCreateFile      0000000140069aaf f   bass:BASS.dll
 0002:00043ab5       BASS_ChannelBytes2Seconds  0000000140069ab5 f   bass:BASS.dll
 0002:00043abb       BASS_ChannelSeconds2Bytes  0000000140069abb f   bass:BASS.dll
 0002:00043ac1       BASS_ChannelIsActive       0000000140069ac1 f   bass:BASS.dll
 0002:00043ac7       BASS_ChannelPlay           0000000140069ac7 f   bass:BASS.dll
 0002:00043acd       BASS_ChannelPause          0000000140069acd f   bass:BASS.dll
 0002:00043ad3       BASS_ChannelSetAttribute   0000000140069ad3 f   bass:BASS.dll
 0002:00043ad9       BASS_ChannelSetPosition    0000000140069ad9 f   bass:BASS.dll
 0002:00043adf       BASS_ChannelGetPosition    0000000140069adf f   bass:BASS.dll
 0002:00043ae5       ilBindImage                0000000140069ae5 f   DevIL:DevIL.dll
 0002:00043aeb       ilConvertImage             0000000140069aeb f   DevIL:DevIL.dll
 0002:00043af1       ilCopyPixels               0000000140069af1 f   DevIL:DevIL.dll
 0002:00043af7       ilDeleteImages             0000000140069af7 f   DevIL:DevIL.dll
 0002:00043afd       ilEnable                   0000000140069afd f   DevIL:DevIL.dll
 0002:00043b03       ilGenImages                0000000140069b03 f   DevIL:DevIL.dll
 0002:00043b09       ilGetError                 0000000140069b09 f   DevIL:DevIL.dll
 0002:00043b0f       ilGetInteger               0000000140069b0f f   DevIL:DevIL.dll
 0002:00043b15       ilInit                     0000000140069b15 f   DevIL:DevIL.dll
 0002:00043b1b       ilLoadImage                0000000140069b1b f   DevIL:DevIL.dll
 0002:00043b21       ilOriginFunc               0000000140069b21 f   DevIL:DevIL.dll
 0002:00043b27       SDL_GetError               0000000140069b27 f   SDL2:SDL2.dll
 0002:00043b2d       SDL_SetWindowTitle         0000000140069b2d f   SDL2:SDL2.dll
 0002:00043b33       SDL_DestroyWindow          0000000140069b33 f   SDL2:SDL2.dll
 0002:00043b39       SDL_SetHint                0000000140069b39 f   SDL2:SDL2.dll
 0002:00043b3f       SDL_CreateWindowAndRenderer 0000000140069b3f f   SDL2:SDL2.dll
 0002:00043b45       SDL_CreateTexture          0000000140069b45 f   SDL2:SDL2.dll
 0002:00043b4b       SDL_UpdateTexture          0000000140069b4b f   SDL2:SDL2.dll
 0002:00043b51       SDL_RenderSetLogicalSize   0000000140069b51 f   SDL2:SDL2.dll
 0002:00043b57       SDL_RenderClear            0000000140069b57 f   SDL2:SDL2.dll
 0002:00043b5d       SDL_RenderCopy             0000000140069b5d f   SDL2:SDL2.dll
 0002:00043b63       SDL_RenderPresent          0000000140069b63 f   SDL2:SDL2.dll
 0002:00043b69       SDL_DestroyTexture         0000000140069b69 f   SDL2:SDL2.dll
 0002:00043b6f       SDL_DestroyRenderer        0000000140069b6f f   SDL2:SDL2.dll
 0002:00043b75       SDL_NumJoysticks           0000000140069b75 f   SDL2:SDL2.dll
 0002:00043b7b       SDL_IsGameController       0000000140069b7b f   SDL2:SDL2.dll
 0002:00043b81       SDL_GameControllerOpen     0000000140069b81 f   SDL2:SDL2.dll
 0002:00043b87       SDL_GameControllerGetAttached 0000000140069b87 f   SDL2:SDL2.dll
 0002:00043b8d       SDL_GameControllerUpdate   0000000140069b8d f   SDL2:SDL2.dll
 0002:00043b93       SDL_GameControllerGetAxis  0000000140069b93 f   SDL2:SDL2.dll
 0002:00043b99       SDL_GameControllerGetButton 0000000140069b99 f   SDL2:SDL2.dll
 0002:00043b9f       SDL_GameControllerClose    0000000140069b9f f   SDL2:SDL2.dll
 0002:00043ba5       SDL_HasSSE41               0000000140069ba5 f   SDL2:SDL2.dll
 0002:00043bab       SDL_HasNEON                0000000140069bab f   SDL2:SDL2.dll
 0002:00043bb1       SDL_ShowCursor             0000000140069bb1 f   SDL2:SDL2.dll
 0002:00043bb7       SDL_PollEvent              0000000140069bb7 f   SDL2:SDL2.dll
 0002:00043bbd       SDL_ShowSimpleMessageBox   0000000140069bbd f   SDL2:SDL2.dll
 0002:00043bc3       SDL_GetPerformanceCounter  0000000140069bc3 f   SDL2:SDL2.dll
 0002:00043bc9       SDL_GetPerformanceFrequency 0000000140069bc9 f   SDL2:SDL2.dll
 0002:00043bcf       SDL_Init                   0000000140069bcf f   SDL2:SDL2.dll
 0002:00043bd5       SDL_Quit                   0000000140069bd5 f   SDL2:SDL2.dll
 0002:00043be0       _RTC_AllocaHelper          0000000140069be0 f   MSVCRTD:stack.obj
 0002:00043c30       _RTC_CheckStackVars        0000000140069c30 f   MSVCRTD:stack.obj
 0002:00043ce0       _RTC_CheckStackVars2       0000000140069ce0 f   MSVCRTD:stack.obj
 0002:00043e30       _CRT_RTC_INIT              0000000140069e30 f   MSVCRTD:init.obj
 0002:00043e40       _CRT_RTC_INITW             0000000140069e40 f   MSVCRTD:init.obj
 0002:00043e50       _RTC_InitBase              0000000140069e50 f   MSVCRTD:init.obj
 0002:00043ea0       _RTC_Shutdown              0000000140069ea0 f   MSVCRTD:init.obj
 0002:00043ed0       __CheckForDebuggerJustMyCode 0000000140069ed0 f   MSVCRTD:debugger_jmc.obj
 0002:00043f20       ??2@YAPEAX_K@Z             0000000140069f20 f   MSVCRTD:new_scalar.obj
 0002:00043f90       ??3@YAXPEAX@Z              0000000140069f90 f   MSVCRTD:delete_scalar.obj
 0002:00043fc0       ??3@YAXPEAX_K@Z            0000000140069fc0 f   MSVCRTD:delete_scalar_size.obj
 0002:00043ff0       ??1type_info@@UEAA@XZ      0000000140069ff0 f   MSVCRTD:std_type_info_static.obj
 0002:00044010       ??_Gtype_info@@UEAAPEAXI@Z 000000014006a010 f i MSVCRTD:std_type_info_static.obj
 0002:00044010       ??_Etype_info@@UEAAPEAXI@Z 000000014006a010 f i MSVCRTD:std_type_info_static.obj
 0002:00044070       __chkstk                   000000014006a070 f   MSVCRTD:chkstk.obj
 0002:00044070       _alloca_probe              000000014006a070 f   MSVCRTD:chkstk.obj
 0002:000440e0       ?configure_argv@__scrt_narrow_argv_policy@@SAHXZ 000000014006a0e0 f i MSVCRTD:utility.obj
 0002:00044200       ?initialize_environment@__scrt_narrow_environment_policy@@SAHXZ 000000014006a200 f i MSVCRTD:utility.obj
 0002:000442d0       NtCurrentTeb               000000014006a2d0 f i MSVCRTD:utility.obj
 0002:000442e0       __scrt_acquire_startup_lock 000000014006a2e0 f   MSVCRTD:utility.obj
 0002:00044360       __scrt_dllmain_after_initialize_c 000000014006a360 f   MSVCRTD:utility.obj
 0002:000443a0       __scrt_dllmain_before_initialize_c 000000014006a3a0 f   MSVCRTD:utility.obj
 0002:000443d0       __scrt_dllmain_crt_thread_attach 000000014006a3d0 f   MSVCRTD:utility.obj
 0002:00044410       __scrt_dllmain_crt_thread_detach 000000014006a410 f   MSVCRTD:utility.obj
 0002:00044430       __scrt_dllmain_exception_filter 000000014006a430 f   MSVCRTD:utility.obj
 0002:000444b0       __scrt_dllmain_uninitialize_c 000000014006a4b0 f   MSVCRTD:utility.obj
 0002:000444f0       __scrt_dllmain_uninitialize_critical 000000014006a4f0 f   MSVCRTD:utility.obj
 0002:00044510       __scrt_initialize_crt      000000014006a510 f   MSVCRTD:utility.obj
 0002:00044570       __scrt_initialize_onexit_tables 000000014006a570 f   MSVCRTD:utility.obj
 0002:000446c0       __scrt_is_nonwritable_in_current_image 000000014006a6c0 f   MSVCRTD:utility.obj
 0002:00044770       __scrt_release_startup_lock 000000014006a770 f   MSVCRTD:utility.obj
 0002:000447b0       __scrt_uninitialize_crt    000000014006a7b0 f   MSVCRTD:utility.obj
 0002:00044800       _onexit                    000000014006a800 f   MSVCRTD:utility.obj
 0002:000448a0       at_quick_exit              000000014006a8a0 f   MSVCRTD:utility.obj
 0002:00044900       atexit                     000000014006a900 f   MSVCRTD:utility.obj
 0002:00044ce0       ?set_app_type@__scrt_winmain_policy@@SAXXZ 000000014006ace0 f i MSVCRTD:exe_winmain.obj
 0002:00044d00       ?set_commode@__scrt_file_policy@@SAXXZ 000000014006ad00 f i MSVCRTD:exe_winmain.obj
 0002:00044d30       ?set_fmode@__scrt_file_policy@@SAXXZ 000000014006ad30 f i MSVCRTD:exe_winmain.obj
 0002:00044d50       WinMainCRTStartup          000000014006ad50 f   MSVCRTD:exe_winmain.obj
 0002:00044e20       ?_RTC_AllocaFailure@@YAXPEAXPEAU_RTC_ALLOCA_NODE@@H@Z 000000014006ae20 f   MSVCRTD:error.obj
 0002:00044fd0       ?_RTC_Failure@@YAXPEAXH@Z  000000014006afd0 f   MSVCRTD:error.obj
 0002:00045040       ?_RTC_StackFailure@@YAXPEAXPEBD@Z 000000014006b040 f   MSVCRTD:error.obj
 0002:00045580       _RTC_UninitUse             000000014006b580 f   MSVCRTD:error.obj
 0002:00045680       _vsprintf_s_l              000000014006b680 f i MSVCRTD:error.obj
 0002:00045700       sprintf_s                  000000014006b700 f i MSVCRTD:error.obj
 0002:00045730       ?_RTC_GetErrorFunc@@YAP6AHHPEBDH00ZZPEBX@Z 000000014006b730 f   MSVCRTD:userapi.obj
 0002:00045740       ?_RTC_GetErrorFuncW@@YAP6AHHPEB_WH00ZZPEBX@Z 000000014006b740 f   MSVCRTD:userapi.obj
 0002:00045750       _RTC_GetErrDesc            000000014006b750 f   MSVCRTD:userapi.obj
 0002:00045770       _RTC_NumErrors             000000014006b770 f   MSVCRTD:userapi.obj
 0002:00045780       _RTC_SetErrorFunc          000000014006b780 f   MSVCRTD:userapi.obj
 0002:000457a0       _RTC_SetErrorFuncW         000000014006b7a0 f   MSVCRTD:userapi.obj
 0002:000457c0       _RTC_SetErrorType          000000014006b7c0 f   MSVCRTD:userapi.obj
 0002:000457f0       ??0bad_alloc@std@@QEAA@XZ  000000014006b7f0 f i MSVCRTD:throw_bad_alloc.obj
 0002:00045840       ?__scrt_throw_std_bad_alloc@@YAXXZ 000000014006b840 f   MSVCRTD:throw_bad_alloc.obj
 0002:00045870       ?__scrt_throw_std_bad_array_new_length@@YAXXZ 000000014006b870 f   MSVCRTD:throw_bad_alloc.obj
 0002:000458a0       __isa_available_init       000000014006b8a0 f   MSVCRTD:cpu_disp.obj
 0002:00045d20       _get_startup_argv_mode     000000014006bd20 f   MSVCRTD:argv_mode.obj
 0002:00045d30       __scrt_is_ucrt_dll_in_use  000000014006bd30 f   MSVCRTD:ucrt_detection.obj
 0002:00045d60       __crt_debugger_hook        000000014006bd60 f   MSVCRTD:utility_desktop.obj
 0002:00045d80       __scrt_fastfail            000000014006bd80 f   MSVCRTD:utility_desktop.obj
 0002:00045f80       __scrt_get_show_window_mode 000000014006bf80 f   MSVCRTD:utility_desktop.obj
 0002:00045ff0       __scrt_initialize_mta      000000014006bff0 f   MSVCRTD:utility_desktop.obj
 0002:00046010       __scrt_initialize_winrt    000000014006c010 f   MSVCRTD:utility_desktop.obj
 0002:00046020       __scrt_is_managed_app      000000014006c020 f   MSVCRTD:utility_desktop.obj
 0002:000460f0       __scrt_set_unhandled_exception_filter 000000014006c0f0 f   MSVCRTD:utility_desktop.obj
 0002:00046110       __scrt_exe_initialize_mta  000000014006c110 f   MSVCRTD:utility_desktop.obj
 0002:00046110       __scrt_stub_for_initialize_mta 000000014006c110 f   MSVCRTD:utility_desktop.obj
 0002:00046120       __scrt_unhandled_exception_filter 000000014006c120 f   MSVCRTD:utility_desktop.obj
 0002:000461e0       _guard_check_icall_nop     000000014006c1e0 f i MSVCRTD:guard_support.obj
 0002:000461f0       ReadNoFence64              000000014006c1f0 f i MSVCRTD:guard_support.obj
 0002:00046220       ReadPointerNoFence         000000014006c220 f i MSVCRTD:guard_support.obj
 0002:00046240       __castguard_check_failure_debugbreak 000000014006c240 f i MSVCRTD:guard_support.obj
 0002:00046270       __castguard_check_failure_fastfail 000000014006c270 f i MSVCRTD:guard_support.obj
 0002:000462a0       __castguard_check_failure_nop 000000014006c2a0 f i MSVCRTD:guard_support.obj
 0002:000462b0       __castguard_check_failure_os_handled 000000014006c2b0 f i MSVCRTD:guard_support.obj
 0002:000463a0       __castguard_slow_path_check_debugbreak 000000014006c3a0 f i MSVCRTD:guard_support.obj
 0002:000463f0       __castguard_slow_path_check_fastfail 000000014006c3f0 f i MSVCRTD:guard_support.obj
 0002:00046450       __castguard_slow_path_check_nop 000000014006c450 f i MSVCRTD:guard_support.obj
 0002:00046470       __castguard_slow_path_check_os_handled 000000014006c470 f i MSVCRTD:guard_support.obj
 0002:00046580       _guard_icall_checks_enforced 000000014006c580 f i MSVCRTD:guard_support.obj
 0002:000465d0       _guard_rf_checks_enforced  000000014006c5d0 f i MSVCRTD:guard_support.obj
 0002:000466d0       __security_init_cookie     000000014006c6d0 f   MSVCRTD:gs_support.obj
 0002:00046770       _matherr                   000000014006c770 f   MSVCRTD:matherr.obj
 0002:00046780       _get_startup_commit_mode   000000014006c780 f   MSVCRTD:commit_mode.obj
 0002:00046790       _get_startup_file_mode     000000014006c790 f   MSVCRTD:file_mode.obj
 0002:000467a0       _get_startup_new_mode      000000014006c7a0 f   MSVCRTD:new_mode.obj
 0002:000467b0       _get_startup_thread_locale_mode 000000014006c7b0 f   MSVCRTD:thread_locale.obj
 0002:000467c0       ?__scrt_initialize_type_info@@YAXXZ 000000014006c7c0 f   MSVCRTD:tncleanup.obj
 0002:000467e0       ?__scrt_uninitialize_type_info@@YAXXZ 000000014006c7e0 f   MSVCRTD:tncleanup.obj
 0002:00046800       _should_initialize_environment 000000014006c800 f   MSVCRTD:env_mode.obj
 0002:00046810       _initialize_invalid_parameter_handler 000000014006c810 f   MSVCRTD:invalid_parameter_handler.obj
 0002:00046820       _initialize_denormal_control 000000014006c820 f   MSVCRTD:denormal_control.obj
 0002:00046830       __local_stdio_scanf_options 000000014006c830 f i MSVCRTD:default_local_stdio_options.obj
 0002:00046840       __scrt_initialize_default_local_stdio_options 000000014006c840 f   MSVCRTD:default_local_stdio_options.obj
 0002:000468a0       __scrt_is_user_matherr_present 000000014006c8a0 f   MSVCRTD:matherr_detection.obj
 0002:000468d0       __scrt_get_dyn_tls_init_callback 000000014006c8d0 f   MSVCRTD:dyn_tls_init.obj
 0002:000468e0       __scrt_get_dyn_tls_dtor_callback 000000014006c8e0 f   MSVCRTD:dyn_tls_dtor.obj
 0002:000468f0       _RTC_Initialize            000000014006c8f0 f   MSVCRTD:initsect.obj
 0002:00046950       _RTC_Terminate             000000014006c950 f   MSVCRTD:initsect.obj
 0002:00047000       ?_RTC_GetSrcLine@@YAHPEAEPEA_WKPEAH1K@Z 000000014006d000 f   MSVCRTD:pdblkup.obj
 0002:000474c0       __GSHandlerCheck           000000014006d4c0 f   MSVCRTD:gshandler.obj
 0002:00047510       __GSHandlerCheckCommon     000000014006d510 f   MSVCRTD:gshandler.obj
 0002:00047660       __security_check_cookie    000000014006d660 f   MSVCRTD:amdsecgs.obj
 0002:00047690       __raise_securityfailure    000000014006d690 f   MSVCRTD:gs_report.obj
 0002:000476e0       __report_gsfailure         000000014006d6e0 f   MSVCRTD:gs_report.obj
 0002:000477f0       __report_rangecheckfailure 000000014006d7f0 f   MSVCRTD:gs_report.obj
 0002:00047810       __report_securityfailure   000000014006d810 f   MSVCRTD:gs_report.obj
 0002:000478e0       __report_securityfailureEx 000000014006d8e0 f   MSVCRTD:gs_report.obj
 0002:00047bde       _vcomp_for_static_end      000000014006dbde f   VCOMPD:VCOMP140D.DLL
 0002:00047be4       _vcomp_for_static_simple_init 000000014006dbe4 f   VCOMPD:VCOMP140D.DLL
 0002:00047bea       _vcomp_fork                000000014006dbea f   VCOMPD:VCOMP140D.DLL
 0002:00047bf0       _vcomp_for_dynamic_init    000000014006dbf0 f   VCOMPD:VCOMP140D.DLL
 0002:00047bf6       _vcomp_for_dynamic_next    000000014006dbf6 f   VCOMPD:VCOMP140D.DLL
 0002:00047bfc       ??0_Lockit@std@@QEAA@H@Z   000000014006dbfc f   msvcprtd:MSVCP140D.dll
 0002:00047c02       ??1_Lockit@std@@QEAA@XZ    000000014006dc02 f   msvcprtd:MSVCP140D.dll
 0002:00047c08       ?_Xlength_error@std@@YAXPEBD@Z 000000014006dc08 f   msvcprtd:MSVCP140D.dll
 0002:00047c0e       ?_Xbad_alloc@std@@YAXXZ    000000014006dc0e f   msvcprtd:MSVCP140D.dll
 0002:00047c40       __std_get_string_size_without_trailing_whitespace 000000014006dc40 f   msvcprtd:syserror_import_lib.obj
 0002:00047cb0       __std_system_error_allocate_message 000000014006dcb0 f   msvcprtd:syserror_import_lib.obj
 0002:00047d20       __std_system_error_deallocate_message 000000014006dd20 f   msvcprtd:syserror_import_lib.obj
 0002:00047d3f       ?_Syserror_map@std@@YAPEBDH@Z 000000014006dd3f f   msvcprtd:MSVCP140D.dll
 0002:00047d45       ?_Winerror_map@std@@YAHH@Z 000000014006dd45 f   msvcprtd:MSVCP140D.dll
 0002:00047d4b       _Mbrtowc                   000000014006dd4b f   msvcprtd:MSVCP140D.dll
 0002:00047d51       ?_Getcvt@_Locinfo@std@@QEBA?AU_Cvtvec@@XZ 000000014006dd51 f   msvcprtd:MSVCP140D.dll
 0002:00047d57       ?_Getdays@_Locinfo@std@@QEBAPEBDXZ 000000014006dd57 f   msvcprtd:MSVCP140D.dll
 0002:00047d5d       ?_Getmonths@_Locinfo@std@@QEBAPEBDXZ 000000014006dd5d f   msvcprtd:MSVCP140D.dll
 0002:00047d63       ?_W_Getdays@_Locinfo@std@@QEBAPEBGXZ 000000014006dd63 f   msvcprtd:MSVCP140D.dll
 0002:00047d69       ?_W_Getmonths@_Locinfo@std@@QEBAPEBGXZ 000000014006dd69 f   msvcprtd:MSVCP140D.dll
 0002:00047d70       ??$?R_W@__crt_internal_free_policy@@QEBAXQEB_W@Z 000000014006dd70 f i msvcprtd:filesystem.obj
 0002:00047da0       ??0?$__crt_unique_heap_ptr@_WU__crt_internal_free_policy@@@@QEAA@QEA_W@Z 000000014006dda0 f i msvcprtd:filesystem.obj
 0002:00047dd0       ??0_Fs_file@std@@QEAA@QEAX@Z 000000014006ddd0 f i msvcprtd:filesystem.obj
 0002:00047e00       ??0_Fs_file@std@@QEAA@QEB_WW4__std_access_rights@@W4__std_fs_file_flags@@QEAW4__std_win_error@@@Z 000000014006de00 f i msvcprtd:filesystem.obj
 0002:00047e60       ??1?$__crt_unique_heap_ptr@_WU__crt_internal_free_policy@@@@QEAA@XZ 000000014006de60 f i msvcprtd:filesystem.obj
 0002:00047e80       ??1_Fs_file@std@@QEAA@XZ   000000014006de80 f i msvcprtd:filesystem.obj
 0002:00047eb0       ??4?$__crt_unique_heap_ptr@_WU__crt_internal_free_policy@@@@QEAAAEAV0@$$QEAV0@@Z 000000014006deb0 f i msvcprtd:filesystem.obj
 0002:00047f00       ??B?$__crt_unique_heap_ptr@_WU__crt_internal_free_policy@@@@QEBA_NXZ 000000014006df00 f i msvcprtd:filesystem.obj
 0002:00047f20       ??I@YA?AW4__std_fs_copy_options@@W40@0@Z 000000014006df20 f i msvcprtd:filesystem.obj
 0002:00047f40       ??I@YA?AW4__std_fs_file_attr@@W40@0@Z 000000014006df40 f i msvcprtd:filesystem.obj
 0002:00047f60       ??I@YA?AW4__std_fs_stats_flags@@W40@0@Z 000000014006df60 f i msvcprtd:filesystem.obj
 0002:00047f80       ??S@YA?AW4__std_fs_stats_flags@@W40@@Z 000000014006df80 f i msvcprtd:filesystem.obj
 0002:00047f90       ??U@YA?AW4__std_access_rights@@W40@0@Z 000000014006df90 f i msvcprtd:filesystem.obj
 0002:00047fb0       ??U@YA?AW4__std_fs_file_flags@@W40@0@Z 000000014006dfb0 f i msvcprtd:filesystem.obj
 0002:00047fd0       ??U@YA?AW4__std_fs_stats_flags@@W40@0@Z 000000014006dfd0 f i msvcprtd:filesystem.obj
 0002:00047ff0       ??_4@YAAEAW4__std_fs_copy_options@@AEAW40@W40@@Z 000000014006dff0 f i msvcprtd:filesystem.obj
 0002:00048030       ??_4@YAAEAW4__std_fs_stats_flags@@AEAW40@W40@@Z 000000014006e030 f i msvcprtd:filesystem.obj
 0002:00048070       ?_Bitmask_includes@@YA_NW4__std_fs_file_attr@@0@Z 000000014006e070 f i msvcprtd:filesystem.obj
 0002:000480c0       ?_Bitmask_includes@@YA_NW4__std_fs_stats_flags@@0@Z 000000014006e0c0 f i msvcprtd:filesystem.obj
 0002:000481b0       ?_File_size@_Aligned_file_attrs@@QEBA_KXZ 000000014006e1b0 f i msvcprtd:filesystem.obj
 0002:000481e0       ?_Get@_Fs_file@std@@QEBAPEAXXZ 000000014006e1e0 f i msvcprtd:filesystem.obj
 0002:00048290       ?_Last_write_time@_Aligned_file_attrs@@QEBA_JXZ 000000014006e290 f i msvcprtd:filesystem.obj
 0002:00048330       ?__std_is_file_not_found@@YA_NW4__std_win_error@@@Z 000000014006e330 f i msvcprtd:filesystem.obj
 0002:00048400       ?get@?$__crt_unique_heap_ptr@_WU__crt_internal_free_policy@@@@QEBAPEA_WXZ 000000014006e400 f i msvcprtd:filesystem.obj
 0002:00048420       ?is_valid@?$__crt_unique_heap_ptr@_WU__crt_internal_free_policy@@@@QEBA_NXZ 000000014006e420 f i msvcprtd:filesystem.obj
 0002:00048460       ?release@?$__crt_unique_heap_ptr@_WU__crt_internal_free_policy@@@@QEAAXXZ 000000014006e460 f i msvcprtd:filesystem.obj
 0002:000484a0       __std_fs_change_permissions 000000014006e4a0 f   msvcprtd:filesystem.obj
 0002:00048730       __std_fs_close_handle      000000014006e730 f   msvcprtd:filesystem.obj
 0002:00048770       __std_fs_code_page         000000014006e770 f   msvcprtd:filesystem.obj
 0002:000487b0       __std_fs_convert_narrow_to_wide 000000014006e7b0 f   msvcprtd:filesystem.obj
 0002:00048850       __std_fs_convert_wide_to_narrow 000000014006e850 f   msvcprtd:filesystem.obj
 0002:00048a40       __std_fs_convert_wide_to_narrow_replace_chars 000000014006ea40 f   msvcprtd:filesystem.obj
 0002:00048b80       __std_fs_copy_file         000000014006eb80 f   msvcprtd:filesystem.obj
 0002:00048fa0       __std_fs_create_directory  000000014006efa0 f   msvcprtd:filesystem.obj
 0002:000490a0       __std_fs_create_directory_symbolic_link 000000014006f0a0 f   msvcprtd:filesystem.obj
 0002:000490e0       __std_fs_create_directory_template 000000014006f0e0 f   msvcprtd:filesystem.obj
 0002:00049170       __std_fs_create_hard_link  000000014006f170 f   msvcprtd:filesystem.obj
 0002:000491c0       __std_fs_create_symbolic_link 000000014006f1c0 f   msvcprtd:filesystem.obj
 0002:000491f0       __std_fs_directory_iterator_advance 000000014006f1f0 f   msvcprtd:filesystem.obj
 0002:00049230       __std_fs_directory_iterator_close 000000014006f230 f   msvcprtd:filesystem.obj
 0002:00049270       __std_fs_directory_iterator_open 000000014006f270 f   msvcprtd:filesystem.obj
 0002:00049370       __std_fs_get_current_path  000000014006f370 f   msvcprtd:filesystem.obj
 0002:000493f0       __std_fs_get_file_attributes_by_handle 000000014006f3f0 f   msvcprtd:filesystem.obj
 0002:00049480       __std_fs_get_file_id       000000014006f480 f   msvcprtd:filesystem.obj
 0002:000496b0       __std_fs_get_final_path_name_by_handle 000000014006f6b0 f   msvcprtd:filesystem.obj
 0002:00049740       __std_fs_get_full_path_name 000000014006f740 f   msvcprtd:filesystem.obj
 0002:000497c0       __std_fs_get_stats         000000014006f7c0 f   msvcprtd:filesystem.obj
 0002:00049dd0       __std_fs_get_temp_path     000000014006fdd0 f   msvcprtd:filesystem.obj
 0002:00049ef0       __std_fs_open_handle       000000014006fef0 f   msvcprtd:filesystem.obj
 0002:00049f80       __std_fs_read_name_from_reparse_data_buffer 000000014006ff80 f   msvcprtd:filesystem.obj
 0002:0004a090       __std_fs_read_reparse_data_buffer 0000000140070090 f   msvcprtd:filesystem.obj
 0002:0004a110       __std_fs_remove            0000000140070110 f   msvcprtd:filesystem.obj
 0002:0004a350       __std_fs_rename            0000000140070350 f   msvcprtd:filesystem.obj
 0002:0004a3a0       __std_fs_resize_file       00000001400703a0 f   msvcprtd:filesystem.obj
 0002:0004a4a0       __std_fs_set_current_path  00000001400704a0 f   msvcprtd:filesystem.obj
 0002:0004a4e0       __std_fs_set_last_write_time 00000001400704e0 f   msvcprtd:filesystem.obj
 0002:0004a5c0       __std_fs_space             00000001400705c0 f   msvcprtd:filesystem.obj
 0002:0004a9c8       strchr                     00000001400709c8 f   vcruntimed:VCRUNTIME140D.dll
 0002:0004a9ce       memmove                    00000001400709ce f   vcruntimed:VCRUNTIME140D.dll
 0002:0004a9d4       memcpy                     00000001400709d4 f   vcruntimed:VCRUNTIME140D.dll
 0002:0004a9da       __CxxFrameHandler4         00000001400709da f   vcruntimed:VCRUNTIME140_1D.dll
 0002:0004a9e0       memset                     00000001400709e0 f   vcruntimed:VCRUNTIME140D.dll
 0002:0004a9e6       __std_exception_copy       00000001400709e6 f   vcruntimed:VCRUNTIME140D.dll
 0002:0004a9ec       __std_exception_destroy    00000001400709ec f   vcruntimed:VCRUNTIME140D.dll
 0002:0004a9f2       _CxxThrowException         00000001400709f2 f   vcruntimed:VCRUNTIME140D.dll
 0002:0004a9f8       __C_specific_handler       00000001400709f8 f   vcruntimed:VCRUNTIME140D.dll
 0002:0004a9fe       __C_specific_handler_noexcept 00000001400709fe f   vcruntimed:VCRUNTIME140D.dll
 0002:0004aa04       __current_exception        0000000140070a04 f   vcruntimed:VCRUNTIME140D.dll
 0002:0004aa0a       __current_exception_context 0000000140070a0a f   vcruntimed:VCRUNTIME140D.dll
 0002:0004aa10       __std_type_info_destroy_list 0000000140070a10 f   vcruntimed:VCRUNTIME140D.dll
 0002:0004aa16       __vcrt_GetModuleFileNameW  0000000140070a16 f   vcruntimed:VCRUNTIME140D.dll
 0002:0004aa1c       __vcrt_GetModuleHandleW    0000000140070a1c f   vcruntimed:VCRUNTIME140D.dll
 0002:0004aa22       __vcrt_LoadLibraryExW      0000000140070a22 f   vcruntimed:VCRUNTIME140D.dll
 0002:0004aa28       isalnum                    0000000140070a28 f   ucrtd:ucrtbased.dll
 0002:0004aa2e       strcmp                     0000000140070a2e f   ucrtd:ucrtbased.dll
 0002:0004aa34       strlen                     0000000140070a34 f   ucrtd:ucrtbased.dll
 0002:0004aa3a       strncat                    0000000140070a3a f   ucrtd:ucrtbased.dll
 0002:0004aa40       strncmp                    0000000140070a40 f   ucrtd:ucrtbased.dll
 0002:0004aa46       strncpy                    0000000140070a46 f   ucrtd:ucrtbased.dll
 0002:0004aa4c       free                       0000000140070a4c f   ucrtd:ucrtbased.dll
 0002:0004aa52       malloc                     0000000140070a52 f   ucrtd:ucrtbased.dll
 0002:0004aa58       realloc                    0000000140070a58 f   ucrtd:ucrtbased.dll
 0002:0004aa5e       _wassert                   0000000140070a5e f   ucrtd:ucrtbased.dll
 0002:0004aa64       __acrt_iob_func            0000000140070a64 f   ucrtd:ucrtbased.dll
 0002:0004aa6a       fclose                     0000000140070a6a f   ucrtd:ucrtbased.dll
 0002:0004aa70       fopen                      0000000140070a70 f   ucrtd:ucrtbased.dll
 0002:0004aa76       fread                      0000000140070a76 f   ucrtd:ucrtbased.dll
 0002:0004aa7c       fwrite                     0000000140070a7c f   ucrtd:ucrtbased.dll
 0002:0004aa82       __stdio_common_vfprintf    0000000140070a82 f   ucrtd:ucrtbased.dll
 0002:0004aa88       __stdio_common_vsprintf    0000000140070a88 f   ucrtd:ucrtbased.dll
 0002:0004aa8e       _stat64i32                 0000000140070a8e f   ucrtd:ucrtbased.dll
 0002:0004aa94       _mkdir                     0000000140070a94 f   ucrtd:ucrtbased.dll
 0002:0004aa9a       pow                        0000000140070a9a f   ucrtd:ucrtbased.dll
 0002:0004aaa0       floor                      0000000140070aa0 f   ucrtd:ucrtbased.dll
 0002:0004aaa6       fabs                       0000000140070aa6 f   ucrtd:ucrtbased.dll
 0002:0004aaac       cosf                       0000000140070aac f   ucrtd:ucrtbased.dll
 0002:0004aab2       sinf                       0000000140070ab2 f   ucrtd:ucrtbased.dll
 0002:0004aab8       sqrtf                      0000000140070ab8 f   ucrtd:ucrtbased.dll
 0002:0004aabe       tanf                       0000000140070abe f   ucrtd:ucrtbased.dll
 0002:0004aac4       acosf                      0000000140070ac4 f   ucrtd:ucrtbased.dll
 0002:0004aaca       _invalid_parameter         0000000140070aca f   ucrtd:ucrtbased.dll
 0002:0004aad0       _CrtDbgReport              0000000140070ad0 f   ucrtd:ucrtbased.dll
 0002:0004aad6       _aligned_free              0000000140070ad6 f   ucrtd:ucrtbased.dll
 0002:0004aadc       _aligned_malloc            0000000140070adc f   ucrtd:ucrtbased.dll
 0002:0004aae2       roundf                     0000000140070ae2 f   ucrtd:ucrtbased.dll
 0002:0004aae8       powf                       0000000140070ae8 f   ucrtd:ucrtbased.dll
 0002:0004aaee       cos                        0000000140070aee f   ucrtd:ucrtbased.dll
 0002:0004aaf4       atan2f                     0000000140070af4 f   ucrtd:ucrtbased.dll
 0002:0004aafa       expf                       0000000140070afa f   ucrtd:ucrtbased.dll
 0002:0004ab00       floorf                     0000000140070b00 f   ucrtd:ucrtbased.dll
 0002:0004ab06       tanhf                      0000000140070b06 f   ucrtd:ucrtbased.dll
 0002:0004ab0c       fmodf                      0000000140070b0c f   ucrtd:ucrtbased.dll
 0002:0004ab12       _CrtSetBreakAlloc          0000000140070b12 f   ucrtd:ucrtbased.dll
 0002:0004ab18       _CrtSetDbgFlag             0000000140070b18 f   ucrtd:ucrtbased.dll
 0002:0004ab1e       _calloc_dbg                0000000140070b1e f   ucrtd:ucrtbased.dll
 0002:0004ab24       _CrtSetReportMode          0000000140070b24 f   ucrtd:ucrtbased.dll
 0002:0004ab2a       wcslen                     0000000140070b2a f   ucrtd:ucrtbased.dll
 0002:0004ab30       _controlfp                 0000000140070b30 f   ucrtd:ucrtbased.dll
 0002:0004ab36       _CrtDbgReportW             0000000140070b36 f   ucrtd:ucrtbased.dll
 0002:0004ab3c       _callnewh                  0000000140070b3c f   ucrtd:ucrtbased.dll
 0002:0004ab42       _free_dbg                  0000000140070b42 f   ucrtd:ucrtbased.dll
 0002:0004ab48       _seh_filter_dll            0000000140070b48 f   ucrtd:ucrtbased.dll
 0002:0004ab4e       _configure_narrow_argv     0000000140070b4e f   ucrtd:ucrtbased.dll
 0002:0004ab54       _initialize_narrow_environment 0000000140070b54 f   ucrtd:ucrtbased.dll
 0002:0004ab5a       _initialize_onexit_table   0000000140070b5a f   ucrtd:ucrtbased.dll
 0002:0004ab60       _register_onexit_function  0000000140070b60 f   ucrtd:ucrtbased.dll
 0002:0004ab66       _execute_onexit_table      0000000140070b66 f   ucrtd:ucrtbased.dll
 0002:0004ab6c       _crt_atexit                0000000140070b6c f   ucrtd:ucrtbased.dll
 0002:0004ab72       _crt_at_quick_exit         0000000140070b72 f   ucrtd:ucrtbased.dll
 0002:0004ab78       _cexit                     0000000140070b78 f   ucrtd:ucrtbased.dll
 0002:0004ab7e       _seh_filter_exe            0000000140070b7e f   ucrtd:ucrtbased.dll
 0002:0004ab84       _set_app_type              0000000140070b84 f   ucrtd:ucrtbased.dll
 0002:0004ab8a       __setusermatherr           0000000140070b8a f   ucrtd:ucrtbased.dll
 0002:0004ab90       _get_narrow_winmain_command_line 0000000140070b90 f   ucrtd:ucrtbased.dll
 0002:0004ab96       _initterm                  0000000140070b96 f   ucrtd:ucrtbased.dll
 0002:0004ab9c       _initterm_e                0000000140070b9c f   ucrtd:ucrtbased.dll
 0002:0004aba2       exit                       0000000140070ba2 f   ucrtd:ucrtbased.dll
 0002:0004aba8       _exit                      0000000140070ba8 f   ucrtd:ucrtbased.dll
 0002:0004abae       _set_fmode                 0000000140070bae f   ucrtd:ucrtbased.dll
 0002:0004abb4       _c_exit                    0000000140070bb4 f   ucrtd:ucrtbased.dll
 0002:0004abba       _register_thread_local_exe_atexit_callback 0000000140070bba f   ucrtd:ucrtbased.dll
 0002:0004abc0       _configthreadlocale        0000000140070bc0 f   ucrtd:ucrtbased.dll
 0002:0004abc6       _set_new_mode              0000000140070bc6 f   ucrtd:ucrtbased.dll
 0002:0004abcc       __p__commode               0000000140070bcc f   ucrtd:ucrtbased.dll
 0002:0004abd2       strcpy_s                   0000000140070bd2 f   ucrtd:ucrtbased.dll
 0002:0004abd8       strcat_s                   0000000140070bd8 f   ucrtd:ucrtbased.dll
 0002:0004abde       __stdio_common_vsprintf_s  0000000140070bde f   ucrtd:ucrtbased.dll
 0002:0004abe4       terminate                  0000000140070be4 f   ucrtd:ucrtbased.dll
 0002:0004abea       _wmakepath_s               0000000140070bea f   ucrtd:ucrtbased.dll
 0002:0004abf0       _wsplitpath_s              0000000140070bf0 f   ucrtd:ucrtbased.dll
 0002:0004abf6       wcscpy_s                   0000000140070bf6 f   ucrtd:ucrtbased.dll
 0002:0004abfc       _strdup                    0000000140070bfc f   ucrtd:ucrtbased.dll
 0002:0004ac02       ___lc_codepage_func        0000000140070c02 f   ucrtd:ucrtbased.dll
 0002:0004ac08       _malloc_dbg                0000000140070c08 f   ucrtd:ucrtbased.dll
 0002:0004ac0e       GetCurrentThreadId         0000000140070c0e f   kernel32:KERNEL32.dll
 0002:0004ac14       IsDebuggerPresent          0000000140070c14 f   kernel32:KERNEL32.dll
 0002:0004ac1a       RaiseException             0000000140070c1a f   kernel32:KERNEL32.dll
 0002:0004ac20       MultiByteToWideChar        0000000140070c20 f   kernel32:KERNEL32.dll
 0002:0004ac26       WideCharToMultiByte        0000000140070c26 f   kernel32:KERNEL32.dll
 0002:0004ac2c       RtlCaptureContext          0000000140070c2c f   kernel32:KERNEL32.dll
 0002:0004ac32       RtlLookupFunctionEntry     0000000140070c32 f   kernel32:KERNEL32.dll
 0002:0004ac38       RtlVirtualUnwind           0000000140070c38 f   kernel32:KERNEL32.dll
 0002:0004ac3e       UnhandledExceptionFilter   0000000140070c3e f   kernel32:KERNEL32.dll
 0002:0004ac44       SetUnhandledExceptionFilter 0000000140070c44 f   kernel32:KERNEL32.dll
 0002:0004ac4a       GetStartupInfoW            0000000140070c4a f   kernel32:KERNEL32.dll
 0002:0004ac50       IsProcessorFeaturePresent  0000000140070c50 f   kernel32:KERNEL32.dll
 0002:0004ac56       GetModuleHandleW           0000000140070c56 f   kernel32:KERNEL32.dll
 0002:0004ac5c       QueryPerformanceCounter    0000000140070c5c f   kernel32:KERNEL32.dll
 0002:0004ac62       GetCurrentProcessId        0000000140070c62 f   kernel32:KERNEL32.dll
 0002:0004ac68       GetSystemTimeAsFileTime    0000000140070c68 f   kernel32:KERNEL32.dll
 0002:0004ac6e       InitializeSListHead        0000000140070c6e f   kernel32:KERNEL32.dll
 0002:0004ac74       GetLastError               0000000140070c74 f   kernel32:KERNEL32.dll
 0002:0004ac7a       HeapAlloc                  0000000140070c7a f   kernel32:KERNEL32.dll
 0002:0004ac80       HeapFree                   0000000140070c80 f   kernel32:KERNEL32.dll
 0002:0004ac86       GetProcessHeap             0000000140070c86 f   kernel32:KERNEL32.dll
 0002:0004ac8c       VirtualQuery               0000000140070c8c f   kernel32:KERNEL32.dll
 0002:0004ac92       FreeLibrary                0000000140070c92 f   kernel32:KERNEL32.dll
 0002:0004ac98       GetProcAddress             0000000140070c98 f   kernel32:KERNEL32.dll
 0002:0004ac9e       GetCurrentProcess          0000000140070c9e f   kernel32:KERNEL32.dll
 0002:0004aca4       TerminateProcess           0000000140070ca4 f   kernel32:KERNEL32.dll
 0002:0004acaa       LocalFree                  0000000140070caa f   kernel32:KERNEL32.dll
 0002:0004acb0       FormatMessageA             0000000140070cb0 f   kernel32:KERNEL32.dll
 0002:0004acb6       SetCurrentDirectoryW       0000000140070cb6 f   kernel32:KERNEL32.dll
 0002:0004acbc       GetCurrentDirectoryW       0000000140070cbc f   kernel32:KERNEL32.dll
 0002:0004acc2       CreateDirectoryW           0000000140070cc2 f   kernel32:KERNEL32.dll
 0002:0004acc8       CreateFileW                0000000140070cc8 f   kernel32:KERNEL32.dll
 0002:0004acce       FindClose                  0000000140070cce f   kernel32:KERNEL32.dll
 0002:0004acd4       FindFirstFileExW           0000000140070cd4 f   kernel32:KERNEL32.dll
 0002:0004acda       FindNextFileW              0000000140070cda f   kernel32:KERNEL32.dll
 0002:0004ace0       GetDiskFreeSpaceExW        0000000140070ce0 f   kernel32:KERNEL32.dll
 0002:0004ace6       GetFileAttributesW         0000000140070ce6 f   kernel32:KERNEL32.dll
 0002:0004acec       GetFileAttributesExW       0000000140070cec f   kernel32:KERNEL32.dll
 0002:0004acf2       GetFileInformationByHandle 0000000140070cf2 f   kernel32:KERNEL32.dll
 0002:0004acf8       GetFinalPathNameByHandleW  0000000140070cf8 f   kernel32:KERNEL32.dll
 0002:0004acfe       GetFullPathNameW           0000000140070cfe f   kernel32:KERNEL32.dll
 0002:0004ad04       SetEndOfFile               0000000140070d04 f   kernel32:KERNEL32.dll
 0002:0004ad0a       SetFileAttributesW         0000000140070d0a f   kernel32:KERNEL32.dll
 0002:0004ad10       SetFileInformationByHandle 0000000140070d10 f   kernel32:KERNEL32.dll
 0002:0004ad16       SetFilePointerEx           0000000140070d16 f   kernel32:KERNEL32.dll
 0002:0004ad1c       SetFileTime                0000000140070d1c f   kernel32:KERNEL32.dll
 0002:0004ad22       GetTempPathW               0000000140070d22 f   kernel32:KERNEL32.dll
 0002:0004ad28       AreFileApisANSI            0000000140070d28 f   kernel32:KERNEL32.dll
 0002:0004ad2e       CloseHandle                0000000140070d2e f   kernel32:KERNEL32.dll
 0002:0004ad34       DeviceIoControl            0000000140070d34 f   kernel32:KERNEL32.dll
 0002:0004ad3a       CreateDirectoryExW         0000000140070d3a f   kernel32:KERNEL32.dll
 0002:0004ad40       CopyFileW                  0000000140070d40 f   kernel32:KERNEL32.dll
 0002:0004ad46       MoveFileExW                0000000140070d46 f   kernel32:KERNEL32.dll
 0002:0004ad4c       CreateHardLinkW            0000000140070d4c f   kernel32:KERNEL32.dll
 0002:0004ad52       GetFileInformationByHandleEx 0000000140070d52 f   kernel32:KERNEL32.dll
 0002:0004ad58       CreateSymbolicLinkW        0000000140070d58 f   kernel32:KERNEL32.dll
 0002:0004ad60       __GSHandlerCheck_EH4       0000000140070d60 f   MSVCRTD:gshandlereh4.obj
 0002:0004ae30       __vcrt_initialize          0000000140070e30 f   MSVCRTD:ucrt_stubs.obj
 0002:0004ae30       __acrt_initialize          0000000140070e30 f   MSVCRTD:ucrt_stubs.obj
 0002:0004ae30       __scrt_stub_for_acrt_initialize 0000000140070e30 f   MSVCRTD:ucrt_stubs.obj
 0002:0004ae40       __scrt_stub_for_acrt_thread_attach 0000000140070e40 f   MSVCRTD:ucrt_stubs.obj
 0002:0004ae40       __vcrt_thread_attach       0000000140070e40 f   MSVCRTD:ucrt_stubs.obj
 0002:0004ae40       __acrt_thread_attach       0000000140070e40 f   MSVCRTD:ucrt_stubs.obj
 0002:0004ae50       __scrt_stub_for_acrt_thread_detach 0000000140070e50 f   MSVCRTD:ucrt_stubs.obj
 0002:0004ae50       __acrt_thread_detach       0000000140070e50 f   MSVCRTD:ucrt_stubs.obj
 0002:0004ae50       __vcrt_thread_detach       0000000140070e50 f   MSVCRTD:ucrt_stubs.obj
 0002:0004ae60       __vcrt_uninitialize        0000000140070e60 f   MSVCRTD:ucrt_stubs.obj
 0002:0004ae60       __acrt_uninitialize        0000000140070e60 f   MSVCRTD:ucrt_stubs.obj
 0002:0004ae60       __scrt_stub_for_acrt_uninitialize 0000000140070e60 f   MSVCRTD:ucrt_stubs.obj
 0002:0004ae70       __scrt_stub_for_acrt_uninitialize_critical 0000000140070e70 f   MSVCRTD:ucrt_stubs.obj
 0002:0004ae70       __vcrt_uninitialize_critical 0000000140070e70 f   MSVCRTD:ucrt_stubs.obj
 0002:0004ae70       __acrt_uninitialize_critical 0000000140070e70 f   MSVCRTD:ucrt_stubs.obj
 0002:0004ae80       __scrt_stub_for_is_c_termination_complete 0000000140070e80 f   MSVCRTD:ucrt_stubs.obj
 0002:0004ae80       _is_c_termination_complete 0000000140070e80 f   MSVCRTD:ucrt_stubs.obj
 0002:0004c8a0       _guard_dispatch_icall_nop  00000001400728a0 f   MSVCRTD:guard_dispatch.obj
 0002:0004c8c0       _guard_xfg_dispatch_icall_nop 00000001400728c0 f   MSVCRTD:guard_xfg_dispatch.obj
 0003:00000000       __xc_a                     0000000140078000     MSVCRTD:initializers.obj
 0003:00000358       __xc_z                     0000000140078358     MSVCRTD:initializers.obj
 0003:00000468       __xi_a                     0000000140078468     MSVCRTD:initializers.obj
 0003:00000798       __xi_z                     0000000140078798     MSVCRTD:initializers.obj
 0003:000008a8       __xp_a                     00000001400788a8     MSVCRTD:initializers.obj
 0003:000009b8       __xp_z                     00000001400789b8     MSVCRTD:initializers.obj
 0003:00000ac8       __xt_a                     0000000140078ac8     MSVCRTD:initializers.obj
 0003:00000bd8       __xt_z                     0000000140078bd8     MSVCRTD:initializers.obj
 0003:00001710       ??_C@_0BB@JGGOGLEG@0123456789ABCDEF@ 0000000140079710     device.obj
 0003:00001724       ??_C@_01IDAFKMJL@_@        0000000140079724     device.obj
 0003:00001728       ??_C@_06KBLCMJEL@?4track@  0000000140079728     device.obj
 0003:00001730       ??_C@_1HC@CECHAJKJ@?$AAC?$AA?3?$AA?2?$AAD?$AAe?$AAv?$AA?2?$AAc?$AAo?$AAo?$AAk?$AAi?$AAe?$AAd?$AAo@ 0000000140079730     device.obj
 0003:000017b8       ??_C@_1BO@OPFMAOCA@?$AAl?$AAe?$AAn?$AA?5?$AA?$DM?$AA?$DN?$AA?5?$AAI?$AAN?$AAT?$AA_?$AAM?$AAA?$AAX@ 00000001400797b8     device.obj
 0003:000017dc       ??_C@_02GMHACPFF@?$CFu@    00000001400797dc     device.obj
 0003:000017e0       ??_C@_0BE@OCAHKBAC@hello?0?5synctracker?$CB@ 00000001400797e0     device.obj
 0003:000017f8       ??_C@_0N@KDMOEIPG@hello?0?5demo?$CB@ 00000001400797f8     device.obj
 0003:00001808       ??_C@_02JDPG@rb@           0000000140079808     device.obj
 0003:0000180c       ??_C@_02GMLFBBN@wb@        000000014007980c     device.obj
 0003:00001810       ??_C@_1DM@GJLGDMMC@?$AAs?$AAt?$AAr?$AAl?$AAe?$AAn?$AA?$CI?$AAt?$AA?9?$AA?$DO?$AAn?$AAa?$AAm?$AAe?$AA?$CJ@ 0000000140079810     device.obj
 0003:00001858       ??_C@_0BD@MLGHOCD@unknown?5cmd?3?5?$CF02x?6@ 0000000140079858     device.obj
 0003:00001870       ??_C@_1DA@KBIFECPN@?$AAf?$AAi?$AAn?$AAd?$AA_?$AAt?$AAr?$AAa?$AAc?$AAk?$AA?$CI?$AAd?$AA?0?$AA?5?$AAn@ 0000000140079870     device.obj
 0003:000018b0       ??_C@_1HA@LINOALJL@?$AAC?$AA?3?$AA?2?$AAD?$AAe?$AAv?$AA?2?$AAc?$AAo?$AAo?$AAk?$AAi?$AAe?$AAd?$AAo@ 00000001400798b0     track.obj
 0003:00001938       ??_C@_13COJANIEC@?$AA0@    0000000140079938     track.obj
 0003:00001940       ??_C@_1BC@OALMAFHP@?$AAm?$AAi?$AA?5?$AA?$CB?$AA?$DN?$AA?5?$AAh?$AAi@ 0000000140079940     track.obj
 0003:00001958       ??_C@_1BC@FFGNHKAH@?$AAl?$AAo?$AA?5?$AA?$DN?$AA?$DN?$AA?5?$AAh?$AAi@ 0000000140079958     track.obj
 0003:00001970       ??_C@_1BC@DECOFODE@?$AAi?$AAd?$AAx?$AA?5?$AA?$DO?$AA?$DN?$AA?5?$AA0@ 0000000140079970     track.obj
 0003:00001988       ??_C@_1BA@HLDOKEIO@?$AAt?$AA?9?$AA?$DO?$AAk?$AAe?$AAy?$AAs@ 0000000140079988     track.obj
 0003:000019a0       __real@4000000000000000    00000001400799a0     track.obj
 0003:000019b0       __real@4008000000000000    00000001400799b0     track.obj
 0003:00002530       ??_C@_1HI@IJOBEMGP@?$AAC?$AA?3?$AA?2?$AAD?$AAe?$AAv?$AA?2?$AAc?$AAo?$AAo?$AAk?$AAi?$AAe?$AAd?$AAo@ 000000014007a530     Matrix44.obj
 0003:000025c0       ??_C@_1EG@MDCPNCIL@?$AAt?$AAr?$AAu?$AAe?$AA?5?$AA?$DN?$AA?$DN?$AA?5?$AAc?$AAo?$AAm?$AAp?$AAa?$AAr?$AAe@ 000000014007a5c0     Matrix44.obj
 0003:00002614       __real@00000000            000000014007a614     Matrix44.obj
 0003:00002618       __real@337ffae5            000000014007a618     Matrix44.obj
 0003:0000261c       __real@3f000000            000000014007a61c     Matrix44.obj
 0003:00002620       __real@3f800000            000000014007a620     Matrix44.obj
 0003:00002624       __real@40000000            000000014007a624     Matrix44.obj
 0003:00002630       __xmm@80000000800000008000000080000000 000000014007a630     Matrix44.obj
 0003:00002744       __real@3f7fdf3b            000000014007a744     Quaternion.obj
 0003:00002748       __real@bf800000            000000014007a748     Quaternion.obj
 0003:0000274c       ?kRefractVacuum@Vector3@@2MB 000000014007a74c     Vector3.obj
 0003:00002750       ?kRefractAir@Vector3@@2MB  000000014007a750     Vector3.obj
 0003:00002754       ?kRefractWater@Vector3@@2MB 000000014007a754     Vector3.obj
 0003:00002758       ?kRefractGlass@Vector3@@2MB 000000014007a758     Vector3.obj
 0003:0000275c       ?kRefractPlastic@Vector3@@2MB 000000014007a75c     Vector3.obj
 0003:00002760       ?kRefractDiamond@Vector3@@2MB 000000014007a760     Vector3.obj
 0003:00002c30       ??_7exception@std@@6B@     000000014007ac30     audio.obj
 0003:00002c48       ??_C@_0BC@EOODALEL@Unknown?5exception@ 000000014007ac48     audio.obj
 0003:00002c68       ??_7bad_alloc@std@@6B@     000000014007ac68     audio.obj
 0003:00002c88       ??_7bad_array_new_length@std@@6B@ 000000014007ac88     audio.obj
 0003:00002ca0       ??_C@_0BF@KINCDENJ@bad?5array?5new?5length@ 000000014007aca0     audio.obj
 0003:00002cc0       ??_C@_0BB@FCMFBGOM@invalid?5argument@ 000000014007acc0     audio.obj
 0003:00002cd4       ??_C@_02DKCKIIND@?$CFs@    000000014007acd4     audio.obj
 0003:00002ce0       ??_C@_0GL@EDBHKCAB@C?3?2Program?5Files?5?$CIx86?$CJ?2Microsof@ 000000014007ace0     audio.obj
 0003:00002d60       ??_C@_1NG@GALHFOCO@?$AAC?$AA?3?$AA?2?$AAP?$AAr?$AAo?$AAg?$AAr?$AAa?$AAm?$AA?5?$AAF?$AAi?$AAl?$AAe@ 000000014007ad60     audio.obj
 0003:00002e60       ??_C@_11LOCGONAA@@         000000014007ae60     audio.obj
 0003:00002e68       ??_C@_1CG@JNLFBNGN@?$AA?$CC?$AAi?$AAn?$AAv?$AAa?$AAl?$AAi?$AAd?$AA?5?$AAa?$AAr?$AAg?$AAu?$AAm?$AAe@ 000000014007ae68     audio.obj
 0003:00002e98       ??_C@_0BA@JFNIOLAK@string?5too?5long@ 000000014007ae98     audio.obj
 0003:00002eb0       ?_BUF_SIZE@?$basic_string@DU?$char_traits@D@std@@V?$allocator@D@2@@std@@0_KB 000000014007aeb0     audio.obj
 0003:00002ec0       ??_C@_0DC@FGDKPCPP@Can?5not?5initialize?5BASS?5audio?5l@ 000000014007aec0     audio.obj
 0003:00002f00       ??_C@_0BH@MJLNKMBN@Can?5not?5load?5MP3?1OGG?3?5@ 000000014007af00     audio.obj
 0003:00002f20       __real@4047333333333333    000000014007af20     audio.obj
 0003:00002f30       ??_C@_0BK@LGBPMFBL@assets?1ball?1hmap_1_1k?4jpg@ 000000014007af30     ball.obj
 0003:00002f50       ??_C@_0BK@PMIIIAFE@assets?1ball?1hmap_4_1k?4jpg@ 000000014007af50     ball.obj
 0003:00002f70       ??_C@_0BK@IPJCPJNO@assets?1ball?1hmap_2_1k?4jpg@ 000000014007af70     ball.obj
 0003:00002f90       ??_C@_0BK@JIOJONJN@assets?1ball?1hmap_3_1k?4jpg@ 000000014007af90     ball.obj
 0003:00002fb0       ??_C@_0BK@OLPDJEBH@assets?1ball?1hmap_5_1k?4jpg@ 000000014007afb0     ball.obj
 0003:00003890       ??_C@_0BM@IPEILMFK@assets?1ball?1colormap_1k?4jpg@ 000000014007b890     ball.obj
 0003:000038b8       ??_C@_0BO@OLEHKHLG@assets?1ball?1colormap_2_1k?4jpg@ 000000014007b8b8     ball.obj
 0003:000038e0       ??_C@_0BN@PNPOMPHA@assets?1ball?1beammap_1k_1?4jpg@ 000000014007b8e0     ball.obj
 0003:00003908       ??_C@_0BN@HLGKLNNO@assets?1ball?1beammap_1k_2?4jpg@ 000000014007b908     ball.obj
 0003:00003930       ??_C@_0BP@LMPAPABE@assets?1ball?1beammap_1k_3?92?4jpg@ 000000014007b930     ball.obj
 0003:00003958       ??_C@_0BL@FMBPCNBC@assets?1ball?1envmap3_1k?4jpg@ 000000014007b958     ball.obj
 0003:00003978       ??_C@_0CL@NDGPNNIJ@assets?1ball?1nytrik?9background_1@ 000000014007b978     ball.obj
 0003:000039b0       ??_C@_0CN@CHBDOMAP@assets?1ball?1nytrik?9background?92@ 000000014007b9b0     ball.obj
 0003:000039e8       ??_C@_0BF@IDPGFNAN@assets?1ball?1halo?4png@ 000000014007b9e8     ball.obj
 0003:00003a08       ??_C@_09PADMJDNA@ball?3Blur@ 000000014007ba08     ball.obj
 0003:00003a18       ??_C@_0M@LPMOJGOP@ball?3Radius@ 000000014007ba18     ball.obj
 0003:00003a28       ??_C@_0P@EAMJNIPJ@ball?3RayLength@ 000000014007ba28     ball.obj
 0003:00003a40       ??_C@_0M@JPIMODCP@ball?3Spikes@ 000000014007ba40     ball.obj
 0003:00003a50       ??_C@_0O@OIJLIDBG@ball?3HasBeams@ 000000014007ba50     ball.obj
 0003:00003a60       ??_C@_0BE@HLMLLGNB@ball?3BaseShapeIndex@ 000000014007ba60     ball.obj
 0003:00003a78       ??_C@_0L@KDFIAJDD@ball?3Speed@ 000000014007ba78     ball.obj
 0003:00003a88       ??_C@_0BF@MOMNLFIF@ball?3BeamAttenuation@ 000000014007ba88     ball.obj
 0003:00003aa8       ??_C@_0BC@IBKEENLM@ball?3BeamAlphaMin@ 000000014007baa8     ball.obj
 0003:00003ac0       ??_C@_0BB@BOIDNFAJ@ball?3RotateOffsX@ 000000014007bac0     ball.obj
 0003:00003ad8       ??_C@_0BB@HJIOEEI@ball?3RotateOffsY@ 000000014007bad8     ball.obj
 0003:00003af0       ??_C@_0M@MCMBABCF@ball?3Beams1@ 000000014007baf0     ball.obj
 0003:00003b00       ??_C@_0M@OJOMFCOG@ball?3Beams2@ 000000014007bb00     ball.obj
 0003:00003b10       ??_C@_0M@PAPHGDKH@ball?3Beams3@ 000000014007bb10     ball.obj
 0003:00003b20       ??_C@_0BC@FNKFNKBG@ball?3BallLowBeams@ 000000014007bb20     ball.obj
 0003:00003b38       __real@39800000            000000014007bb38     ball.obj
 0003:00003b3c       __real@3c0f2d1e            000000014007bb3c     ball.obj
 0003:00003b40       __real@3c23d70a            000000014007bb40     ball.obj
 0003:00003b44       __real@3f7d70a4            000000014007bb44     ball.obj
 0003:00003b48       __real@3fcf1bbd            000000014007bb48     ball.obj
 0003:00003b4c       __real@401998f2            000000014007bb4c     ball.obj
 0003:00003b50       __real@40400000            000000014007bb50     ball.obj
 0003:00003b54       __real@40490fdb            000000014007bb54     ball.obj
 0003:00003b58       __real@40c90fdb            000000014007bb58     ball.obj
 0003:00003b5c       __real@42c80000            000000014007bb5c     ball.obj
 0003:00003b60       __real@437f0000            000000014007bb60     ball.obj
 0003:00003b64       __real@43800000            000000014007bb64     ball.obj
 0003:00003b68       __real@44000000            000000014007bb68     ball.obj
 0003:00003b6c       __real@44800000            000000014007bb6c     ball.obj
 0003:00003b70       __real@44f00000            000000014007bb70     ball.obj
 0003:00003df8       __real@3f7921fb60000000    000000014007bdf8     fast-cosine.obj
 0003:00003e10       __xmm@00008000000080000000800000008000 000000014007be10     fx-blitter.obj
 0003:00003e24       __real@33800000            000000014007be24     random.obj
 0003:00003e28       ??_C@_09IPAEKDAI@localhost@ 000000014007be28     rocket.obj
 0003:00003f74       ??_C@_05LEDNGOKJ@sync?1@   000000014007bf74     rocket.obj
 0003:00003f80       ??_C@_0CG@COPDLMJB@Can?5not?5connect?5to?5GNU?5Rocket?5c@ 000000014007bf80     rocket.obj
 0003:00003fb0       ??_C@_09NFHKIPEJ@demo?3quit@ 000000014007bfb0     rocket.obj
 0003:00003fc0       __real@0000000000000000    000000014007bfc0     rocket.obj
 0003:00005e08       ??_C@_0M@NGPCJEJI@laura?3Speed@ 000000014007de08     shadertoy.obj
 0003:00005e18       ??_C@_09LEKGMKLA@laura?3Yaw@ 000000014007de18     shadertoy.obj
 0003:00005e28       ??_C@_0M@HNALBAIB@laura?3Pitch@ 000000014007de28     shadertoy.obj
 0003:00005e38       ??_C@_0L@IFOBDLFO@laura?3Roll@ 000000014007de38     shadertoy.obj
 0003:00005e48       ??_C@_09DPNIIBDF@laura?3Hue@ 000000014007de48     shadertoy.obj
 0003:00005e58       ??_C@_0P@OALIDMMO@laura?3Saturate@ 000000014007de58     shadertoy.obj
 0003:00005e70       ??_C@_0O@OKBCMJEN@nautilus?3Roll@ 000000014007de70     shadertoy.obj
 0003:00005e80       ??_C@_0O@FPPBFGAB@nautilus?3Blur@ 000000014007de80     shadertoy.obj
 0003:00005e90       ??_C@_0N@HMFNHDOD@nautilus?3Hue@ 000000014007de90     shadertoy.obj
 0003:00005ea0       ??_C@_0P@FCCDCGLE@nautilus?3Speed@ 000000014007dea0     shadertoy.obj
 0003:00005eb8       ??_C@_0P@NMEJLOKL@nautilus?3Desat@ 000000014007deb8     shadertoy.obj
 0003:00005ed0       ??_C@_0M@HOLNGGKI@spike?3Speed@ 000000014007ded0     shadertoy.obj
 0003:00005ee0       ??_C@_0L@KNMMFOPD@spike?3Roll@ 000000014007dee0     shadertoy.obj
 0003:00005ef0       ??_C@_0P@PPCJKAEB@spike?3Specular@ 000000014007def0     shadertoy.obj
 0003:00005f08       ??_C@_0BD@NJJPAKBC@spike?3Desaturation@ 000000014007df08     shadertoy.obj
 0003:00005f20       ??_C@_0BB@LEMJDDIE@distSpike?3Warmup@ 000000014007df20     shadertoy.obj
 0003:00005f38       ??_C@_09BAAFLCAN@spike?3Hue@ 000000014007df38     shadertoy.obj
 0003:00005f48       ??_C@_0M@NKKBFAF@spike?3Gamma@ 000000014007df48     shadertoy.obj
 0003:00005f58       ??_C@_0BA@JPPHGMOJ@distSpike?3xOffs@ 000000014007df58     shadertoy.obj
 0003:00005f70       ??_C@_0BA@FEKLLPEM@distSpike?3yOffs@ 000000014007df70     shadertoy.obj
 0003:00005f88       ??_C@_0BA@NCDPMNOC@distSpike?3zOffs@ 000000014007df88     shadertoy.obj
 0003:00005fa0       ??_C@_0BB@KCKEOOGJ@closeSpike?3xOffs@ 000000014007dfa0     shadertoy.obj
 0003:00005fb8       ??_C@_0BB@GJPIDNMM@closeSpike?3yOffs@ 000000014007dfb8     shadertoy.obj
 0003:00005fd0       ??_C@_0BB@OPGMEPGC@closeSpike?3zOffs@ 000000014007dfd0     shadertoy.obj
 0003:00005fe8       ??_C@_0BG@DGPLPLCF@closeSpike?3zOffsScale@ 000000014007dfe8     shadertoy.obj
 0003:00006008       ??_C@_0BH@KNFHDMFA@closeSpike?3NormalGrain@ 000000014007e008     shadertoy.obj
 0003:00006028       ??_C@_0BB@EHCGNBCB@closeSpike?3Scale@ 000000014007e028     shadertoy.obj
 0003:00006040       ??_C@_0P@CHPPOKCA@closeSpike?3Rim@ 000000014007e040     shadertoy.obj
 0003:00006058       ??_C@_0BF@DNLGAMGL@closeSpike?3AspectMul@ 000000014007e058     shadertoy.obj
 0003:00006078       ??_C@_0BG@KELNPCJN@closeSpike?3MixBlurMap@ 000000014007e078     shadertoy.obj
 0003:00006098       ??_C@_0BD@NIBJPAKD@closeSpike?3MixBlur@ 000000014007e098     shadertoy.obj
 0003:000060b0       ??_C@_0BG@NMDBAJLB@closeSpike?3MixMapBlur@ 000000014007e0b0     shadertoy.obj
 0003:000060d0       ??_C@_0BK@HAFNPNN@closeSpike?3MixBlurOpacity@ 000000014007e0d0     shadertoy.obj
 0003:000060f0       ??_C@_0BH@BMFPIKA@sinusesTunnel?3Specular@ 000000014007e0f0     shadertoy.obj
 0003:00006110       ??_C@_0BD@FNFAHBFN@sinusesTunnel?3Roll@ 000000014007e110     shadertoy.obj
 0003:00006128       ??_C@_0BE@EPCDHEGI@sinusesTunnel?3Speed@ 000000014007e128     shadertoy.obj
 0003:00006140       ??_C@_0BE@KNHKNNHJ@sinusesTunnel?3OffsX@ 000000014007e140     shadertoy.obj
 0003:00006158       ??_C@_0BE@DMDEAHMF@sinusesTunnel?3Gamma@ 000000014007e158     shadertoy.obj
 0003:00006170       ??_C@_0N@GGMAJFBG@plasma?3Speed@ 000000014007e170     shadertoy.obj
 0003:00006180       ??_C@_0L@BOAOOPPM@plasma?3Hue@ 000000014007e180     shadertoy.obj
 0003:00006190       ??_C@_0N@BFNHOGLL@plasma?3Gamma@ 000000014007e190     shadertoy.obj
 0003:000061a0       ??_C@_0BE@KODMAOFG@plasma?3Desaturation@ 000000014007e1a0     shadertoy.obj
 0003:000061b8       ??_C@_0M@ODAJKIPB@tunnel?3Boxy@ 000000014007e1b8     shadertoy.obj
 0003:000061c8       ??_C@_0BD@EGBBHON@tunnel?3FlowerScale@ 000000014007e1c8     shadertoy.obj
 0003:000061e0       ??_C@_0BC@DPCJIBJJ@tunnel?3FlowerFreq@ 000000014007e1e0     shadertoy.obj
 0003:000061f8       ??_C@_0BD@OCFPLABP@tunnel?3FlowerPhase@ 000000014007e1f8     shadertoy.obj
 0003:00006210       ??_C@_0N@FGLNGBLK@tunnel?3Speed@ 000000014007e210     shadertoy.obj
 0003:00006220       ??_C@_0M@KPHDNCML@tunnel?3Roll@ 000000014007e220     shadertoy.obj
 0003:00006230       ??_C@_0N@PNEEOFKD@tunnel?3Pitch@ 000000014007e230     shadertoy.obj
 0003:00006240       ??_C@_0O@CLFPEIAD@tunnel?3Radius@ 000000014007e240     shadertoy.obj
 0003:00006250       ??_C@_0M@HMODOINJ@tunnel?3MulU@ 000000014007e250     shadertoy.obj
 0003:00006260       ??_C@_0M@FHMOLLBK@tunnel?3MulV@ 000000014007e260     shadertoy.obj
 0003:00006270       ??_C@_0BA@NMJDKFGB@tunnel?3LitTiles@ 000000014007e270     shadertoy.obj
 0003:00006288       ??_C@_0P@ECKOAANB@tunnel?3LitBlur@ 000000014007e288     shadertoy.obj
 0003:000062a0       ??_C@_0M@DJFDCPHB@tunnel?3Fog1@ 000000014007e2a0     shadertoy.obj
 0003:000062b0       ??_C@_0M@BCHOHMLC@tunnel?3Fog2@ 000000014007e2b0     shadertoy.obj
 0003:000062c0       ??_C@_0CH@JLECPLMP@assets?1shadertoy?1nytrik?9hextext@ 000000014007e2c0     shadertoy.obj
 0003:000062f0       ??_C@_0CK@PMEOAHFD@assets?1shadertoy?1nytrik?9hextext@ 000000014007e2f0     shadertoy.obj
 0003:00006328       ??_C@_0CJ@OKNHNGHI@assets?1shadertoy?1close?9up?9blur?9@ 000000014007e328     shadertoy.obj
 0003:00006360       ??_C@_0CJ@GMEDKENG@assets?1shadertoy?1close?9up?9blur?9@ 000000014007e360     shadertoy.obj
 0003:00006394       __real@38d1b717            000000014007e394     shadertoy.obj
 0003:00006398       __real@3a83126f            000000014007e398     shadertoy.obj
 0003:0000639c       __real@3acccccd            000000014007e39c     shadertoy.obj
 0003:000063a0       __real@3b360b61            000000014007e3a0     shadertoy.obj
 0003:000063a4       __real@3c59e83e            000000014007e3a4     shadertoy.obj
 0003:000063a8       __real@3cf5c28f            000000014007e3a8     shadertoy.obj
 0003:000063ac       __real@3d80adfd            000000014007e3ac     shadertoy.obj
 0003:000063b0       __real@3d93dd98            000000014007e3b0     shadertoy.obj
 0003:000063b4       __real@3d99999a            000000014007e3b4     shadertoy.obj
 0003:000063b8       __real@3dcccccd            000000014007e3b8     shadertoy.obj
 0003:000063bc       __real@3e000000            000000014007e3bc     shadertoy.obj
 0003:000063c0       __real@3e051eb8            000000014007e3c0     shadertoy.obj
 0003:000063c4       __real@3e083127            000000014007e3c4     shadertoy.obj
 0003:000063c8       __real@3e123a2a            000000014007e3c8     shadertoy.obj
 0003:000063cc       __real@3e19999a            000000014007e3cc     shadertoy.obj
 0003:000063d0       __real@3e20d97c            000000014007e3d0     shadertoy.obj
 0003:000063d4       __real@3e25afcb            000000014007e3d4     shadertoy.obj
 0003:000063d8       __real@3e26b50b            000000014007e3d8     shadertoy.obj
 0003:000063dc       __real@3e4ccccd            000000014007e3dc     shadertoy.obj
 0003:000063e0       __real@3e59b3d0            000000014007e3e0     shadertoy.obj
 0003:000063e4       __real@3e75c183            000000014007e3e4     shadertoy.obj
 0003:000063e8       __real@3e99999a            000000014007e3e8     shadertoy.obj
 0003:000063ec       __real@3ea0c49c            000000014007e3ec     shadertoy.obj
 0003:000063f0       __real@3ea147ae            000000014007e3f0     shadertoy.obj
 0003:000063f4       __real@3ea8f5c3            000000014007e3f4     shadertoy.obj
 0003:000063f8       __real@3edc28f6            000000014007e3f8     shadertoy.obj
 0003:000063fc       __real@3f07ae14            000000014007e3fc     shadertoy.obj
 0003:00006400       __real@3f100000            000000014007e400     shadertoy.obj
 0003:00006404       __real@3f119191            000000014007e404     shadertoy.obj
 0003:00006408       __real@3f1f9f99            000000014007e408     shadertoy.obj
 0003:0000640c       __real@3f20c49c            000000014007e40c     shadertoy.obj
 0003:00006410       __real@3f333333            000000014007e410     shadertoy.obj
 0003:00006414       __real@3f371759            000000014007e414     shadertoy.obj
 0003:00006418       __real@3f400000            000000014007e418     shadertoy.obj
 0003:0000641c       __real@3f4ccccd            000000014007e41c     shadertoy.obj
 0003:00006420       __real@3f4f1bbd            000000014007e420     shadertoy.obj
 0003:00006424       __real@3f50624e            000000014007e424     shadertoy.obj
 0003:00006428       __real@3f6978d5            000000014007e428     shadertoy.obj
 0003:0000642c       __real@3f823d71            000000014007e42c     shadertoy.obj
 0003:00006430       __real@3f833333            000000014007e430     shadertoy.obj
 0003:00006434       __real@3fa00000            000000014007e434     shadertoy.obj
 0003:00006438       __real@3faa3d71            000000014007e438     shadertoy.obj
 0003:0000643c       __real@3faccccd            000000014007e43c     shadertoy.obj
 0003:00006440       __real@3fb2b8c3            000000014007e440     shadertoy.obj
 0003:00006444       __real@3fb851ec            000000014007e444     shadertoy.obj
 0003:00006448       __real@3fc00000            000000014007e448     shadertoy.obj
 0003:0000644c       __real@3fc7ae14            000000014007e44c     shadertoy.obj
 0003:00006450       __real@3fe38e39            000000014007e450     shadertoy.obj
 0003:00006454       __real@4048f5c3            000000014007e454     shadertoy.obj
 0003:00006458       __real@40800000            000000014007e458     shadertoy.obj
 0003:0000645c       __real@40a00000            000000014007e45c     shadertoy.obj
 0003:00006460       __real@41000000            000000014007e460     shadertoy.obj
 0003:00006464       __real@41100000            000000014007e464     shadertoy.obj
 0003:00006468       __real@41180000            000000014007e468     shadertoy.obj
 0003:0000646c       __real@41200000            000000014007e46c     shadertoy.obj
 0003:00006470       __real@41320000            000000014007e470     shadertoy.obj
 0003:00006474       __real@41460000            000000014007e474     shadertoy.obj
 0003:00006478       __real@41600000            000000014007e478     shadertoy.obj
 0003:0000647c       __real@41800000            000000014007e47c     shadertoy.obj
 0003:00006480       __real@41980000            000000014007e480     shadertoy.obj
 0003:00006484       __real@41a00000            000000014007e484     shadertoy.obj
 0003:00006488       __real@41b00000            000000014007e488     shadertoy.obj
 0003:0000648c       __real@42000000            000000014007e48c     shadertoy.obj
 0003:00006490       __real@42800000            000000014007e490     shadertoy.obj
 0003:00006494       __real@4422f983            000000014007e494     shadertoy.obj
 0003:00006498       __real@bbc49ba6            000000014007e498     shadertoy.obj
 0003:0000649c       __real@c00eb852            000000014007e49c     shadertoy.obj
 0003:000064a0       __real@c0274bc7            000000014007e4a0     shadertoy.obj
 0003:000064a4       __real@c0541893            000000014007e4a4     shadertoy.obj
 0003:000064a8       __real@c1a00000            000000014007e4a8     shadertoy.obj
 0003:000064b0       __xmm@3f8000003f8000003f8000003f800000 000000014007e4b0     shadertoy.obj
 0003:000064d0       __xmm@437f0000437f0000437f0000437f0000 000000014007e4d0     shadertoy.obj
 0003:000064e8       ??_C@_0M@OOOFCAFD@demo?3Effect@ 000000014007e4e8     demo.obj
 0003:000064f8       ??_C@_0BB@FBIEDFEK@demo?3FadeToBlack@ 000000014007e4f8     demo.obj
 0003:00006510       ??_C@_0BB@LFEBLADG@demo?3FadeToWhite@ 000000014007e510     demo.obj
 0003:00006528       ??_C@_0BA@EDFCFOGO@demo?3CreditLogo@ 000000014007e528     demo.obj
 0003:00006540       ??_C@_0BF@HAGHHEMC@demo?3CreditLogoAlpha@ 000000014007e540     demo.obj
 0003:00006560       ??_C@_0BF@JENKEPBD@demo?3CreditLogoBlurH@ 000000014007e560     demo.obj
 0003:00006580       ??_C@_0BF@EAJLHAMM@demo?3CreditLogoBlurV@ 000000014007e580     demo.obj
 0003:000065a0       ??_C@_0P@NOHOCHKB@demo?3DiscoGuys@ 000000014007e5a0     demo.obj
 0003:000065b8       ??_C@_0P@BMDBAKCG@demo?3DiscoGuy1@ 000000014007e5b8     demo.obj
 0003:000065d0       ??_C@_0P@DHBMFJOF@demo?3DiscoGuy2@ 000000014007e5d0     demo.obj
 0003:000065e8       ??_C@_0P@COAHGIKE@demo?3DiscoGuy3@ 000000014007e5e8     demo.obj
 0003:00006600       ??_C@_0P@GBEGPOGD@demo?3DiscoGuy4@ 000000014007e600     demo.obj
 0003:00006618       ??_C@_0P@HIFNMPCC@demo?3DiscoGuy5@ 000000014007e618     demo.obj
 0003:00006630       ??_C@_0P@FDHAJMOB@demo?3DiscoGuy6@ 000000014007e630     demo.obj
 0003:00006648       ??_C@_0P@EKGLKNKA@demo?3DiscoGuy7@ 000000014007e648     demo.obj
 0003:00006660       ??_C@_0P@MNPDLBGP@demo?3DiscoGuy8@ 000000014007e660     demo.obj
 0003:00006678       ??_C@_0O@BJAIAPNC@demo?3Show1995@ 000000014007e678     demo.obj
 0003:00006688       ??_C@_09LGAHBMAJ@demo?3Dirt@ 000000014007e688     demo.obj
 0003:00006698       ??_C@_0O@HFMFCME@demo?3Show2006@ 000000014007e698     demo.obj
 0003:000066a8       ??_C@_0BC@FEMNJNCA@demo?3ScapeOverlay@ 000000014007e6a8     demo.obj
 0003:000066c0       ??_C@_0O@JGBOIKHK@demo?3ScapeRev@ 000000014007e6c0     demo.obj
 0003:000066d0       ??_C@_0P@KNGMMIEB@demo?3ScapeFade@ 000000014007e6d0     demo.obj
 0003:000066e8       ??_C@_0BA@BELKMIBI@demo?3DistortTPB@ 000000014007e6e8     demo.obj
 0003:00006700       ??_C@_0BI@BKFKIBFB@demo?3DistortStrengthTPB@ 000000014007e700     demo.obj
 0003:00006720       ??_C@_0N@JLEMILDN@demo?3BlurTPB@ 000000014007e720     demo.obj
 0003:00006730       ??_C@_0O@IMLCLCKK@demo?3RibbonsX@ 000000014007e730     demo.obj
 0003:00006740       ??_C@_0BB@FEPPPAKB@demo?3GreetSwitch@ 000000014007e740     demo.obj
 0003:00006758       ??_C@_0O@GECMJCAC@demo?3Cousteau@ 000000014007e758     demo.obj
 0003:00006768       ??_C@_0BG@IHJBHKFI@demo?3CousteauHorzBlur@ 000000014007e768     demo.obj
 0003:00006788       ??_C@_0P@CANCOGDE@demo?3WaterLove@ 000000014007e788     demo.obj
 0003:000067a0       ??_C@_0BC@GDEFPPEK@demo?3LoveBlurHorZ@ 000000014007e7a0     demo.obj
 0003:000067b8       ??_C@_0BF@DMKNMNLI@shootingStar?3Enabled@ 000000014007e7b8     demo.obj
 0003:000067d8       ??_C@_0P@GCDOOBJC@shootingStar?3X@ 000000014007e7d8     demo.obj
 0003:000067f0       ??_C@_0P@HLCFNAND@shootingStar?3Y@ 000000014007e7f0     demo.obj
 0003:00006808       ??_C@_0P@PJDOEIIK@shootingStar?3A@ 000000014007e808     demo.obj
 0003:00006820       ??_C@_0BD@KEBELPAH@shootingStar?3Trail@ 000000014007e820     demo.obj
 0003:00006838       ??_C@_0O@ILPMODF@demo?3CheapGPU@ 000000014007e838     demo.obj
 0003:00006848       ??_C@_0BD@PIGCJBFF@demo?3MainLogoIndex@ 000000014007e848     demo.obj
 0003:00006860       ??_C@_0BF@OHFGIPHM@closeSpike?3Moonraker@ 000000014007e860     demo.obj
 0003:00006880       ??_C@_0BJ@MJNFCFLA@closeSpike?3MoonrakerText@ 000000014007e880     demo.obj
 0003:000068a0       ??_C@_0BJ@FPPDMMN@closeSpike?3MoonrakerBlur@ 000000014007e8a0     demo.obj
 0003:000068c0       ??_C@_0DC@OFJDEHMN@assets?1credits?1Credits_Tag_Supe@ 000000014007e8c0     demo.obj
 0003:00006900       ??_C@_0EB@LEAIKNNB@assets?1credits?1Credits_Tag_Coma@ 000000014007e900     demo.obj
 0003:00006950       ??_C@_0CN@GEMKBJFN@assets?1credits?1Credits_Tag_Jade@ 000000014007e950     demo.obj
 0003:00006988       ??_C@_0DF@NNNALNGN@assets?1credits?1Credits_Tag_Erns@ 000000014007e988     demo.obj
 0003:000069c8       ??_C@_0CP@JFELOCHD@assets?1demo?1tpb?906?9dirty?9vignet@ 000000014007e9c8     demo.obj
 0003:00006a00       ??_C@_0CC@JNNBKJJA@assets?1spikeball?1Layer?52023_1?4p@ 000000014007ea00     demo.obj
 0003:00006a28       ??_C@_0CC@BLEFNLDO@assets?1spikeball?1Layer?52023_2?4p@ 000000014007ea28     demo.obj
 0003:00006a50       ??_C@_0CC@NABJAIJL@assets?1spikeball?1Layer?52023_3?4p@ 000000014007ea50     demo.obj
 0003:00006a78       ??_C@_0CC@MNBMDICD@assets?1spikeball?1Layer?52023_4?4p@ 000000014007ea78     demo.obj
 0003:00006aa0       ??_C@_0CL@LHJAFDG@assets?1spikeball?1Vignette_CoolF@ 000000014007eaa0     demo.obj
 0003:00006ad8       ??_C@_0CP@PIFMGKLL@assets?1spikeball?1Vignette_Layer@ 000000014007ead8     demo.obj
 0003:00006b10       ??_C@_0DC@JANMOHFH@assets?1spikeball?1SpikeyBall_byP@ 000000014007eb10     demo.obj
 0003:00006b50       ??_C@_0DI@LJJJCABC@assets?1spikeball?1nytrik?9TheYear@ 000000014007eb50     demo.obj
 0003:00006b98       ??_C@_0CA@DLOGKPOD@assets?1tunnels?1layer?51995_1?4png@ 000000014007eb98     demo.obj
 0003:00006bc0       ??_C@_0CA@LNHCNNEN@assets?1tunnels?1layer?51995_2?4png@ 000000014007ebc0     demo.obj
 0003:00006be8       ??_C@_0CA@HGCOAOOI@assets?1tunnels?1layer?51995_3?4png@ 000000014007ebe8     demo.obj
 0003:00006c10       ??_C@_0CA@GLCLDOFA@assets?1tunnels?1layer?51995_4?4png@ 000000014007ec10     demo.obj
 0003:00006c38       ??_C@_0CA@HMDNFDJA@assets?1tunnels?1layer?52006_1?4png@ 000000014007ec38     demo.obj
 0003:00006c60       ??_C@_0CA@PKKJCBDO@assets?1tunnels?1layer?52006_2?4png@ 000000014007ec60     demo.obj
 0003:00006c88       ??_C@_0CA@DBPFPCJL@assets?1tunnels?1layer?52006_3?4png@ 000000014007ec88     demo.obj
 0003:00006cb0       ??_C@_0CA@CMPAMCCD@assets?1tunnels?1layer?52006_4?4png@ 000000014007ecb0     demo.obj
 0003:00006cd8       ??_C@_0DG@ENDAFJLG@assets?1tunnels?1nytrik?9TheYearWa@ 000000014007ecd8     demo.obj
 0003:00006d18       ??_C@_0CJ@CGFDOEO@assets?1tunnels?1Vignette_CoolFil@ 000000014007ed18     demo.obj
 0003:00006d50       ??_C@_0CN@OBECANEA@assets?1tunnels?1Vignette_Layer02@ 000000014007ed50     demo.obj
 0003:00006d88       ??_C@_0CG@HHJACCEK@assets?1demo?1nytrik?9god?9layer?972@ 000000014007ed88     demo.obj
 0003:00006db8       ??_C@_0CF@JNOEKDED@assets?1scape?1revision?9logo_whit@ 000000014007edb8     demo.obj
 0003:00006de8       ??_C@_0CD@NOKFMDMP@assets?1ball?1Vignette_Sparta300?4@ 000000014007ede8     demo.obj
 0003:00006e18       ??_C@_0CI@IOPCEIMF@assets?1greetings?1Bokeh_Lens_Dir@ 000000014007ee18     demo.obj
 0003:00006e48       ??_C@_0DA@KNPNNLIE@assets?1greetings?1Greetings_Part@ 000000014007ee48     demo.obj
 0003:00006e88       ??_C@_0DA@POGHIAAA@assets?1greetings?1Greetings_Part@ 000000014007ee88     demo.obj
 0003:00006ec8       ??_C@_0DA@HJMBELED@assets?1greetings?1Greetings_Part@ 000000014007eec8     demo.obj
 0003:00006f08       ??_C@_0DA@FJFDDHAI@assets?1greetings?1Greetings_Part@ 000000014007ef08     demo.obj
 0003:00006f48       ??_C@_0CL@DNGIPJNC@assets?1greetings?1Vignette_CoolF@ 000000014007ef48     demo.obj
 0003:00006f80       ??_C@_0BN@FKJIDMIG@assets?1nautilus?1Vignette?4png@ 000000014007ef80     demo.obj
 0003:00006fa8       ??_C@_0CJ@DNKMMIGA@assets?1nautilus?1GlassDirt_Disto@ 000000014007efa8     demo.obj
 0003:00006fe0       ??_C@_0DA@HLCBEGE@assets?1nautilus?1JacquesCousteau@ 000000014007efe0     demo.obj
 0003:00007020       ??_C@_0DA@JBFLNCH@assets?1nautilus?1JacquesCousteau@ 000000014007f020     demo.obj
 0003:00007060       ??_C@_0DI@LAHPIKLD@assets?1nautilus?1JacquesCousteau@ 000000014007f060     demo.obj
 0003:000070a8       ??_C@_0DI@HOHHEGDH@assets?1nautilus?1JacquesCousteau@ 000000014007f0a8     demo.obj
 0003:000070f0       ??_C@_0CJ@IHKLIENH@assets?1nautilus?1JacquesCousteau@ 000000014007f0f0     demo.obj
 0003:00007128       ??_C@_0CD@DKMEFGJF@assets?1demo?1tpb?906?9disco?9guy?11?4@ 000000014007f128     demo.obj
 0003:00007158       ??_C@_0CE@OKENPOGD@assets?1demo?1tpb?906?9disco?9guy?11b@ 000000014007f158     demo.obj
 0003:00007188       ??_C@_0CD@LMFACEDL@assets?1demo?1tpb?906?9disco?9guy?12?4@ 000000014007f188     demo.obj
 0003:000071b8       ??_C@_0CE@NLKFOEPO@assets?1demo?1tpb?906?9disco?9guy?12b@ 000000014007f1b8     demo.obj
 0003:000071e8       ??_C@_0CD@HHAMPHJO@assets?1demo?1tpb?906?9disco?9guy?13?4@ 000000014007f1e8     demo.obj
 0003:00007218       ??_C@_0CE@HNNCOPEK@assets?1demo?1tpb?906?9disco?9guy?13b@ 000000014007f218     demo.obj
 0003:00007248       ??_C@_0CD@GKAJMHCG@assets?1demo?1tpb?906?9disco?9guy?14?4@ 000000014007f248     demo.obj
 0003:00007278       ??_C@_0CE@LIHFNBME@assets?1demo?1tpb?906?9disco?9guy?14b@ 000000014007f278     demo.obj
 0003:000072a8       ??_C@_0CE@HGFAKCFK@assets?1demo?1are?9we?9done?91100x57@ 000000014007f2a8     demo.obj
 0003:000072d8       ??_C@_0CK@EBCCOJCE@assets?1closeup?1raker?9LensDirt5_@ 000000014007f2d8     demo.obj
 0003:00007310       ??_C@_0CE@NPDPGIFE@assets?1closeup?1VignetteForRaker@ 000000014007f310     demo.obj
 0003:00007340       ??_C@_0CJ@EPKOJBPE@assets?1closeup?1Vignette_CoolFil@ 000000014007f340     demo.obj
 0003:00007378       ??_C@_0CD@OHEGDHEN@assets?1closeup?1raker_textSmall?4@ 000000014007f378     demo.obj
 0003:000073a8       ??_C@_0CH@LCBHPCHM@assets?1underwater?1LensDirt3_inv@ 000000014007f3a8     demo.obj
 0003:000073d8       ??_C@_0DA@JAOFIMO@assets?1underwater?1love?5prism_al@ 000000014007f3d8     demo.obj
 0003:00007418       ??_C@_0BJ@MGLMNKML@assets?1shooting?1Lenz?4png@ 000000014007f418     demo.obj
 0003:00007438       ??_C@_0BI@GNFBGECL@assets?1demo?1ribbons?4png@ 000000014007f438     demo.obj
 0003:00007458       ??_C@_0BJ@PEPMACAB@assets?1demo?1GPU?9joke?4png@ 000000014007f458     demo.obj
 0003:00007478       __real@3e385123            000000014007f478     demo.obj
 0003:0000747c       __real@3e5d2e2a            000000014007f47c     demo.obj
 0003:00007480       __real@3fd9cd60            000000014007f480     demo.obj
 0003:00007484       __real@40060a92            000000014007f484     demo.obj
 0003:00007488       __real@402ce6b0            000000014007f488     demo.obj
 0003:0000748c       __real@40c00000            000000014007f48c     demo.obj
 0003:00007490       __real@41700000            000000014007f490     demo.obj
 0003:00007494       __real@c1200000            000000014007f494     demo.obj
 0003:00007514       ??_C@_06HPJICMPM@linear@   000000014007f514     display.obj
 0003:00007520       ??_C@_0BJ@IKKFCKKE@SDL_RENDER_SCALE_QUALITY@ 000000014007f520     display.obj
 0003:00007540       ??_C@_0CA@PEAJOKBL@Can?8t?5open?5SDL?5display?5window?3?5@ 000000014007f540     display.obj
 0003:00007568       __real@46fffe00            000000014007f568     gamepad.obj
 0003:00007828       ??_C@_0BF@GFCJNFNK@Can?5not?5load?5image?3?5@ 000000014007f828     image.obj
 0003:00007848       ??_C@_0BA@FOIKENOD@vector?5too?5long@ 000000014007f848     image.obj
 0003:00007c60       ??_C@_0CD@IANELHGN@assets?1scape?1comanche?9maps?1D17?4@ 000000014007fc60     landscape.obj
 0003:00007c90       ??_C@_0BL@FJIBDHII@assets?1scape?1C17W?9edit?4png@ 000000014007fc90     landscape.obj
 0003:00007cb0       ??_C@_0BN@CAHADHNC@assets?1scape?1foggradient?4jpg@ 000000014007fcb0     landscape.obj
 0003:00007cd8       ??_C@_0BD@HEBLIHEE@voxelScape?3Forward@ 000000014007fcd8     landscape.obj
 0003:00007cf0       ??_C@_0BA@KPDPBFAC@voxelScape?3Tilt@ 000000014007fcf0     landscape.obj
 0003:00007d08       ??_C@_0BF@OGIDNCJI@voxelScape?3WarpSpeed@ 000000014007fd08     landscape.obj
 0003:00007d28       ??_C@_0BI@BBMGCL@voxelScape?3WarpStrength@ 000000014007fd28     landscape.obj
 0003:00007d44       __real@3e800000            000000014007fd44     landscape.obj
 0003:00007d48       __real@42b40000            000000014007fd48     landscape.obj
 0003:00007d4c       __real@4334f4ac            000000014007fd4c     landscape.obj
 0003:00007d50       __real@44200000            000000014007fd50     landscape.obj
 0003:00007d54       __real@c2b40000            000000014007fd54     landscape.obj
 0003:00007d60       ??$__DIGIT_TABLE@D@std@@3QBDB 000000014007fd60     main.obj
 0003:00007e50       ??_C@_0CO@PAIANBEI@Bypass?5ft?4?5TPB?5present?5?8ARRESTE@ 000000014007fe50     main.obj
 0003:00007e88       ??_C@_0DA@BAJACHH@assets?1audio?1comatron?5?9?5to?5the?5@ 000000014007fe88     main.obj
 0003:00008d10       ??_7runtime_error@std@@6B@ 0000000140080d10     main.obj
 0003:00008d30       ??_7_System_error@std@@6B@ 0000000140080d30     main.obj
 0003:00008d44       ??_C@_02LMMGGCAJ@?3?5@     0000000140080d44     main.obj
 0003:00008d50       ??_7system_error@std@@6B@  0000000140080d50     main.obj
 0003:00008d64       ??_C@_00CNPNBAHC@@         0000000140080d64     main.obj
 0003:00008d70       ??_7_Generic_error_category@std@@6B@ 0000000140080d70     main.obj
 0003:00008db0       ??_C@_07DCLBNMLN@generic@  0000000140080db0     main.obj
 0003:00008dc8       ??_7_System_error_category@std@@6B@ 0000000140080dc8     main.obj
 0003:00008e04       ??_C@_06FHFOAHML@system@   0000000140080e04     main.obj
 0003:00008e10       ?_Unknown_error@?4??message@_System_error_category@std@@UEBA?AV?$basic_string@DU?$char_traits@D@std@@V?$allocator@D@2@@3@H@Z@4QBDB 0000000140080e10     main.obj
 0003:00008e20       ??_C@_0GL@OLNLJAKG@C?3?2Program?5Files?5?$CIx86?$CJ?2Microsof@ 0000000140080e20     main.obj
 0003:00008ea0       ??_C@_0GL@GIJGJCAH@C?3?2Program?5Files?5?$CIx86?$CJ?2Microsof@ 0000000140080ea0     main.obj
 0003:00008f20       ??_C@_0BP@FCPKDACH@non?9zero?5size?5null?5string_view@ 0000000140080f20     main.obj
 0003:00008f50       ??_C@_0GL@LKNKKOOI@C?3?2Program?5Files?5?$CIx86?$CJ?2Microsof@ 0000000140080f50     main.obj
 0003:00008fd0       ??_C@_1NG@IODLKHPP@?$AAC?$AA?3?$AA?2?$AAP?$AAr?$AAo?$AAg?$AAr?$AAa?$AAm?$AA?5?$AAF?$AAi?$AAl?$AAe@ 0000000140080fd0     main.obj
 0003:000090d0       ??_C@_1EC@EBKHCANC@?$AA?$CC?$AAn?$AAo?$AAn?$AA?9?$AAz?$AAe?$AAr?$AAo?$AA?5?$AAs?$AAi?$AAz?$AAe?$AA?5@ 00000001400810d0     main.obj
 0003:00009128       ??_7filesystem_error@filesystem@std@@6B@ 0000000140081128     main.obj
 0003:0000913c       ??_C@_03NONCDIOG@?3?5?$CC@ 000000014008113c     main.obj
 0003:00009140       ??_C@_04PHMHGEMA@?$CC?0?5?$CC@ 0000000140081140     main.obj
 0003:00009148       ??_C@_0BK@BGNGGJGF@current_path?$CIconst?5path?$CG?$CJ@ 0000000140081148     main.obj
 0003:00009168       ??_C@_0BG@JPFFJIHA@Can?8t?5initialize?5SDL?$CB@ 0000000140081168     main.obj
 0003:00009184       ??_C@_03LOJJKLGJ@?4?4?1@   0000000140081184     main.obj
 0003:00009188       ??_C@_0DB@EHDHKFLE@Processor?5does?5not?5support?5SSE?5@ 0000000140081188     main.obj
 0003:000091c8       ??_C@_0BO@NCOPPAI@?6?5?$CK?$CK?$CK?5Rough?5avg?4?5FPS?3?5?$CFf?5?$CK?$CK?$CK?6@ 00000001400811c8     main.obj
 0003:000091f0       ??_C@_0N@LPFKKEBD@?3AM?3am?3PM?3pm@ 00000001400811f0     main.obj
 0003:00009200       ??_C@_1BK@MHIKGOKE@?$AA?3?$AAA?$AAM?$AA?3?$AAa?$AAm?$AA?3?$AAP?$AAM?$AA?3?$AAp?$AAm@ 0000000140081200     main.obj
 0003:00009220       ??_C@_0BP@LKLIPOEC@path?5input?5not?5null?5terminated@ 0000000140081220     main.obj
 0003:00009250       ??_C@_0GO@GOBGOGLD@C?3?2Program?5Files?5?$CIx86?$CJ?2Microsof@ 0000000140081250     main.obj
 0003:000092e0       ??_C@_1NM@EGNHEFAO@?$AAC?$AA?3?$AA?2?$AAP?$AAr?$AAo?$AAg?$AAr?$AAa?$AAm?$AA?5?$AAF?$AAi?$AAl?$AAe@ 00000001400812e0     main.obj
 0003:000093f0       ??_C@_1EC@MFMHBNHO@?$AA?$CC?$AAp?$AAa?$AAt?$AAh?$AA?5?$AAi?$AAn?$AAp?$AAu?$AAt?$AA?5?$AAn?$AAo?$AAt@ 00000001400813f0     main.obj
 0003:00009440       ??_C@_0BJ@GPNNCJMF@assets?1demo?1TPB?9logo?4png@ 0000000140081440     shared-resources.obj
 0003:00009460       ??_C@_0CE@MLOIBOPI@assets?1demo?1tpb_xbox_tp?9263x243@ 0000000140081460     shared-resources.obj
 0003:0000948c       __real@3ac90fdb            000000014008148c     sincos-lut.obj
 0003:00009890       ??_C@_0BN@FPHOCAPI@assets?1twister?1hmap_2_1k?4jpg@ 0000000140081890     torus-twister.obj
 0003:000098b8       ??_C@_0BP@LDJJIFOC@assets?1twister?1colormap_1k?4jpg@ 00000001400818b8     torus-twister.obj
 0003:000098e0       ??_C@_0CO@POBDELPG@assets?1twister?1nytrik?9backgroun@ 00000001400818e0     torus-twister.obj
 0003:00009918       ??_C@_0O@PDLGBFOG@twister?3Speed@ 0000000140081918     torus-twister.obj
 0003:00009928       ??_C@_0BE@LLFHPNPE@twister?3?3ShearSpeed@ 0000000140081928     torus-twister.obj
 0003:00009940       ??_C@_0N@BLFBHKKA@twister?3Blur@ 0000000140081940     torus-twister.obj
 0003:00009950       __real@3bc97495            0000000140081950     torus-twister.obj
 0003:00009954       __real@3fb64c32            0000000140081954     torus-twister.obj
 0003:00009958       __real@437f8000            0000000140081958     torus-twister.obj
 0003:0000995c       __real@43ffc000            000000014008195c     torus-twister.obj
 0003:00009960       __real@44160000            0000000140081960     torus-twister.obj
 0003:00009b78       ??_C@_0CA@JMHPJAFP@assets?1scape?1tscape?9D7?9edit?4png@ 0000000140081b78     tunnelscape.obj
 0003:00009ba0       ??_C@_0CB@CCDBDIGK@assets?1scape?1tscape?9C7W?9edit?4pn@ 0000000140081ba0     tunnelscape.obj
 0003:00009bc8       ??_C@_0BC@DIJPCHHM@starsTunnel?3stepU@ 0000000140081bc8     tunnelscape.obj
 0003:00009be0       ??_C@_0BC@BDLCHELP@starsTunnel?3stepV@ 0000000140081be0     tunnelscape.obj
 0003:00009bf8       ??_C@_0BC@BGADOCKD@starsTunnel?3Speed@ 0000000140081bf8     tunnelscape.obj
 0003:00009c10       ??_C@_0BB@HLBIDCGN@starsTunnel?3Blur@ 0000000140081c10     tunnelscape.obj
 0003:00009c24       __real@3e900000            0000000140081c24     tunnelscape.obj
 0003:00009c28       __real@40364c32            0000000140081c28     tunnelscape.obj
 0003:00009e40       ??_7type_info@@6B@         0000000140081e40     MSVCRTD:std_type_info_static.obj
 0003:00009f30       ??_C@_0NN@JMPELKLB@The?5value?5of?5ESP?5was?5not?5proper@ 0000000140081f30     MSVCRTD:error.obj
 0003:0000a040       ??_C@_0BBN@ELNNILBE@A?5cast?5to?5a?5smaller?5data?5type?5h@ 0000000140082040     MSVCRTD:error.obj
 0003:0000a198       ??_C@_0BN@BPOGFMJL@Stack?5memory?5was?5corrupted?$AN?6@ 0000000140082198     MSVCRTD:error.obj
 0003:0000a1c0       ??_C@_0DG@DAJCDLPN@A?5local?5variable?5was?5used?5befor@ 00000001400821c0     MSVCRTD:error.obj
 0003:0000a200       ??_C@_0CM@JMIDGKLA@Stack?5memory?5around?5_alloca?5was@ 0000000140082200     MSVCRTD:error.obj
 0003:0000a238       ??_C@_0BO@CHIONIOI@Unknown?5Runtime?5Check?5Error?$AN?6@ 0000000140082238     MSVCRTD:error.obj
 0003:0000a260       ??_C@_1GM@CNOOJIHC@?$AAR?$AAu?$AAn?$AAt?$AAi?$AAm?$AAe?$AA?5?$AAC?$AAh?$AAe?$AAc?$AAk?$AA?5?$AAE@ 0000000140082260     MSVCRTD:error.obj
 0003:0000a2f0       ??_C@_1EA@NFKNIFJP@?$AAR?$AAu?$AAn?$AA?9?$AAT?$AAi?$AAm?$AAe?$AA?5?$AAC?$AAh?$AAe?$AAc?$AAk?$AA?5@ 00000001400822f0     MSVCRTD:error.obj
 0003:0000a340       ??_C@_0BB@PFFGGCJP@Unknown?5Filename@ 0000000140082340     MSVCRTD:error.obj
 0003:0000a358       ??_C@_0BE@GNBOBNCK@Unknown?5Module?5Name@ 0000000140082358     MSVCRTD:error.obj
 0003:0000a370       ??_C@_0CA@IODNCDPG@Run?9Time?5Check?5Failure?5?$CD?$CFd?5?9?5?$CFs@ 0000000140082370     MSVCRTD:error.obj
 0003:0000a398       ??_C@_0CG@IAFNJNEE@Stack?5corrupted?5near?5unknown?5va@ 0000000140082398     MSVCRTD:error.obj
 0003:0000a3c8       ??_C@_05MKKEDADM@?$CF?42X?5@ 00000001400823c8     MSVCRTD:error.obj
 0003:0000a3d0       ??_C@_0EJ@LJKNEOLN@Stack?5area?5around?5_alloca?5memor@ 00000001400823d0     MSVCRTD:error.obj
 0003:0000a428       ??_C@_01EEMJAFIK@?6@       0000000140082428     MSVCRTD:error.obj
 0003:0000a42c       ??_C@_02LLMPMKNF@?$DO?5@   000000014008242c     MSVCRTD:error.obj
 0003:0000a430       ??_C@_08OMAHNMHJ@?6Data?3?5?$DM@ 0000000140082430     MSVCRTD:error.obj
 0003:0000a440       ??_C@_0CK@DKGBICFE@?6Allocation?5number?5within?5this?5@ 0000000140082440     MSVCRTD:error.obj
 0003:0000a478       ??_C@_07DFDJCKFN@?6Size?3?5@ 0000000140082478     MSVCRTD:error.obj
 0003:0000a488       ??_C@_0N@MHFFIMFG@?6Address?3?50x@ 0000000140082488     MSVCRTD:error.obj
 0003:0000a4a0       ??_C@_0EI@CLEPFNGI@Stack?5area?5around?5_alloca?5memor@ 00000001400824a0     MSVCRTD:error.obj
 0003:0000a4f8       ??_C@_0BK@ODNDAGKB@?$CFs?$CFs?$CFp?$CFs?$CFzd?$CFs?$CFd?$CFs?$CFs?$CFs?$CFs?$CFs@ 00000001400824f8     MSVCRTD:error.obj
 0003:0000a518       ??_C@_0DE@OHJBPMBP@A?5variable?5is?5being?5used?5withou@ 0000000140082518     MSVCRTD:error.obj
 0003:0000a588       ??_C@_0BJ@HEGAHDFO@Stack?5pointer?5corruption@ 0000000140082588     MSVCRTD:userapi.obj
 0003:0000a5a8       ??_C@_0CK@FEGOIOPB@Cast?5to?5smaller?5type?5causing?5lo@ 00000001400825a8     MSVCRTD:userapi.obj
 0003:0000a5e0       ??_C@_0BI@CIGMDCBH@Stack?5memory?5corruption@ 00000001400825e0     MSVCRTD:userapi.obj
 0003:0000a600       ??_C@_0CK@CNLNOEPB@Local?5variable?5used?5before?5init@ 0000000140082600     MSVCRTD:userapi.obj
 0003:0000a638       ??_C@_0BP@OGBCLIBO@Stack?5around?5_alloca?5corrupted@ 0000000140082638     MSVCRTD:userapi.obj
 0003:0000a660       ??_C@_0P@GHFPNOJB@bad?5allocation@ 0000000140082660     MSVCRTD:throw_bad_alloc.obj
 0003:0000a6e0       ??_C@_1EI@MLPKHBGE@?$AAa?$AAp?$AAi?$AA?9?$AAm?$AAs?$AA?9?$AAw?$AAi?$AAn?$AA?9?$AAc?$AAo?$AAr?$AAe@ 00000001400826e0     MSVCRTD:pdblkup.obj
 0003:0000a738       ??_C@_1BK@JHLNAEJL@?$AAa?$AAd?$AAv?$AAa?$AAp?$AAi?$AA3?$AA2?$AA?4?$AAd?$AAl?$AAl@ 0000000140082738     MSVCRTD:pdblkup.obj
 0003:0000a758       ??_C@_0O@COHOBMLB@RegOpenKeyExW@ 0000000140082758     MSVCRTD:pdblkup.obj
 0003:0000a768       ??_C@_0BB@GLNAEDBD@RegQueryValueExW@ 0000000140082768     MSVCRTD:pdblkup.obj
 0003:0000a780       ??_C@_0M@HLOHPNFA@RegCloseKey@ 0000000140082780     MSVCRTD:pdblkup.obj
 0003:0000a790       ??_C@_1HE@EBEAGLFB@?$AAS?$AAO?$AAF?$AAT?$AAW?$AAA?$AAR?$AAE?$AA?2?$AAW?$AAo?$AAw?$AA6?$AA4?$AA3@ 0000000140082790     MSVCRTD:pdblkup.obj
 0003:0000a820       ??_C@_1BG@EABPBLLF@?$AAP?$AAr?$AAo?$AAd?$AAu?$AAc?$AAt?$AAD?$AAi?$AAr@ 0000000140082820     MSVCRTD:pdblkup.obj
 0003:0000a868       ??_C@_1BC@JINFINNJ@?$AAM?$AAS?$AAP?$AAD?$AAB?$AA1?$AA4?$AA0@ 0000000140082868     MSVCRTD:pdblkup.obj
 0003:0000a880       ??_C@_0BB@KCIACLNC@PDBOpenValidate5@ 0000000140082880     MSVCRTD:pdblkup.obj
 0003:0000a894       ??_C@_01KDCPPGHE@r@        0000000140082894     MSVCRTD:pdblkup.obj
 0003:0000aa10       ??_C@_0DN@EGIAHPNI@D?3?2a?2_work?21?2s?2src?2vctools?2crt?2@ 0000000140082a10     msvcprtd:filesystem.obj
 0003:0000aaa0       _load_config_used          0000000140082aa0     MSVCRTD:loadcfg.obj
 0003:0000b000       __CastGuardVftablesStart   0000000140083000     MSVCRTD:guard_support.obj
 0003:0000b110       __CastGuardVftablesEnd     0000000140083110     MSVCRTD:guard_support.obj
 0003:0000b220       ??_R4exception@std@@6B@    0000000140083220     audio.obj
 0003:0000b250       ??_R3exception@std@@8      0000000140083250     audio.obj
 0003:0000b268       ??_R2exception@std@@8      0000000140083268     audio.obj
 0003:0000b278       ??_R1A@?0A@EA@exception@std@@8 0000000140083278     audio.obj
 0003:0000b2a8       ??_R4bad_alloc@std@@6B@    00000001400832a8     audio.obj
 0003:0000b2d8       ??_R3bad_alloc@std@@8      00000001400832d8     audio.obj
 0003:0000b2f0       ??_R2bad_alloc@std@@8      00000001400832f0     audio.obj
 0003:0000b308       ??_R1A@?0A@EA@bad_alloc@std@@8 0000000140083308     audio.obj
 0003:0000b338       ??_R4bad_array_new_length@std@@6B@ 0000000140083338     audio.obj
 0003:0000b368       ??_R3bad_array_new_length@std@@8 0000000140083368     audio.obj
 0003:0000b380       ??_R2bad_array_new_length@std@@8 0000000140083380     audio.obj
 0003:0000b3a8       ??_R1A@?0A@EA@bad_array_new_length@std@@8 00000001400833a8     audio.obj
 0003:0000b3d8       ??_R4runtime_error@std@@6B@ 00000001400833d8     main.obj
 0003:0000b408       ??_R3runtime_error@std@@8  0000000140083408     main.obj
 0003:0000b420       ??_R2runtime_error@std@@8  0000000140083420     main.obj
 0003:0000b438       ??_R1A@?0A@EA@runtime_error@std@@8 0000000140083438     main.obj
 0003:0000b468       ??_R3error_category@std@@8 0000000140083468     main.obj
 0003:0000b480       ??_R2error_category@std@@8 0000000140083480     main.obj
 0003:0000b490       ??_R1A@?0A@EA@error_category@std@@8 0000000140083490     main.obj
 0003:0000b4c0       ??_R4_System_error@std@@6B@ 00000001400834c0     main.obj
 0003:0000b4f0       ??_R3_System_error@std@@8  00000001400834f0     main.obj
 0003:0000b508       ??_R2_System_error@std@@8  0000000140083508     main.obj
 0003:0000b530       ??_R1A@?0A@EA@_System_error@std@@8 0000000140083530     main.obj
 0003:0000b560       ??_R4system_error@std@@6B@ 0000000140083560     main.obj
 0003:0000b590       ??_R3system_error@std@@8   0000000140083590     main.obj
 0003:0000b5a8       ??_R2system_error@std@@8   00000001400835a8     main.obj
 0003:0000b5d8       ??_R1A@?0A@EA@system_error@std@@8 00000001400835d8     main.obj
 0003:0000b608       ??_R4_Generic_error_category@std@@6B@ 0000000140083608     main.obj
 0003:0000b638       ??_R3_Generic_error_category@std@@8 0000000140083638     main.obj
 0003:0000b650       ??_R2_Generic_error_category@std@@8 0000000140083650     main.obj
 0003:0000b668       ??_R1A@?0A@EA@_Generic_error_category@std@@8 0000000140083668     main.obj
 0003:0000b698       ??_R4_System_error_category@std@@6B@ 0000000140083698     main.obj
 0003:0000b6c8       ??_R3_System_error_category@std@@8 00000001400836c8     main.obj
 0003:0000b6e0       ??_R2_System_error_category@std@@8 00000001400836e0     main.obj
 0003:0000b6f8       ??_R1A@?0A@EA@_System_error_category@std@@8 00000001400836f8     main.obj
 0003:0000b728       ??_R4filesystem_error@filesystem@std@@6B@ 0000000140083728     main.obj
 0003:0000b758       ??_R3filesystem_error@filesystem@std@@8 0000000140083758     main.obj
 0003:0000b770       ??_R2filesystem_error@filesystem@std@@8 0000000140083770     main.obj
 0003:0000b7a8       ??_R1A@?0A@EA@filesystem_error@filesystem@std@@8 00000001400837a8     main.obj
 0003:0000b7d8       ??_R4type_info@@6B@        00000001400837d8     MSVCRTD:std_type_info_static.obj
 0003:0000b808       ??_R3type_info@@8          0000000140083808     MSVCRTD:std_type_info_static.obj
 0003:0000b820       ??_R2type_info@@8          0000000140083820     MSVCRTD:std_type_info_static.obj
 0003:0000b830       ??_R1A@?0A@EA@type_info@@8 0000000140083830     MSVCRTD:std_type_info_static.obj
 0003:0000bae0       __rtc_iaa                  0000000140083ae0     MSVCRTD:initsect.obj
 0003:0000bee0       __rtc_izz                  0000000140083ee0     MSVCRTD:initsect.obj
 0003:0000bff0       __rtc_taa                  0000000140083ff0     MSVCRTD:initsect.obj
 0003:0000c3f0       __rtc_tzz                  00000001400843f0     MSVCRTD:initsect.obj
 0003:00012138       _TI3?AVbad_array_new_length@std@@ 000000014008a138     audio.obj
 0003:00012158       _CTA3?AVbad_array_new_length@std@@ 000000014008a158     audio.obj
 0003:00012178       _CT??_R0?AVbad_array_new_length@std@@@8??0bad_array_new_length@std@@QEAA@AEBV01@@Z24 000000014008a178     audio.obj
 0003:000121a0       _CT??_R0?AVbad_alloc@std@@@8??0bad_alloc@std@@QEAA@AEBV01@@Z24 000000014008a1a0     audio.obj
 0003:000121c8       _CT??_R0?AVexception@std@@@8??0exception@std@@QEAA@AEBV01@@Z24 000000014008a1c8     audio.obj
 0003:000121f0       _CT??_R0?AVruntime_error@std@@@8??0runtime_error@std@@QEAA@AEBV01@@Z24 000000014008a1f0     main.obj
 0003:00012218       _TI4?AVsystem_error@std@@  000000014008a218     main.obj
 0003:00012238       _CTA4?AVsystem_error@std@@ 000000014008a238     main.obj
 0003:00012260       _CT??_R0?AVsystem_error@std@@@8??0system_error@std@@QEAA@AEBV01@@Z40 000000014008a260     main.obj
 0003:00012288       _CT??_R0?AV_System_error@std@@@8??0_System_error@std@@QEAA@AEBV01@@Z40 000000014008a288     main.obj
 0003:000122b0       _TI5?AVfilesystem_error@filesystem@std@@ 000000014008a2b0     main.obj
 0003:000122d0       _CTA5?AVfilesystem_error@filesystem@std@@ 000000014008a2d0     main.obj
 0003:00012300       _CT??_R0?AVfilesystem_error@filesystem@std@@@8??0filesystem_error@filesystem@std@@QEAA@AEBV012@@Z160 000000014008a300     main.obj
 0003:00012328       _TI2?AVbad_alloc@std@@     000000014008a328     MSVCRTD:throw_bad_alloc.obj
 0003:00012348       _CTA2?AVbad_alloc@std@@    000000014008a348     MSVCRTD:throw_bad_alloc.obj
 0004:00000000       ?__LINE__Var@?0??xsend@@9@9 000000014008b000     device.obj
 0004:00000004       ?__LINE__Var@?0??xrecv@@9@9 000000014008b004     device.obj
 0004:0000000c       ?__LINE__Var@?0??fetch_track_data@@9@9 000000014008b00c     device.obj
 0004:00000010       ?__LINE__Var@?0??create_track@@9@9 000000014008b010     device.obj
 0004:00000014       ?__LINE__Var@?0??sync_get_val@@9@9 000000014008b014     track.obj
 0004:00000018       ?__LINE__Var@?0??sync_find_key@@9@9 000000014008b018     track.obj
 0004:0000001c       ?__LINE__Var@?0??sync_del_key@@9@9 000000014008b01c     track.obj
 0004:00000020       ?__LINE__Var@?0??View@Matrix44@@SA?BV2@AEBVVector3@@00@Z@4JA 000000014008b020     Matrix44.obj
 0004:00000024       ?__LINE__Var@?0??_Adjust_manually_vector_aligned@std@@YAXAEAPEAXAEA_K@Z@4JA 000000014008b024     audio.obj
 0004:00000028       ?kHeightMapPaths@@3PAPEBDA 000000014008b028     ball.obj
 0004:00000068       ?kHost@@3PEBDEB            000000014008b068     rocket.obj
 0004:00000098       ?kTitle@@3PEBDEB           000000014008b098     main.obj
 0004:000000ac       ?__LINE__Var@?0??_Maklocwcs@std@@YAPEA_WPEB_W@Z@4JA 000000014008b0ac     main.obj
 0004:000000b0       ?_Static@?1???$_Immortalize_memcpy_image@V_Generic_error_category@std@@@std@@YAAEBV_Generic_error_category@1@XZ@4V21@B 000000014008b0b0     main.obj
 0004:000000c8       ?_Static@?1???$_Immortalize_memcpy_image@V_System_error_category@std@@@std@@YAAEBV_System_error_category@1@XZ@4V21@B 000000014008b0c8     main.obj
 0004:000000dc       _fltused                   000000014008b0dc     MSVCRTD:fltused.obj
 0004:000000e0       __scrt_native_dllmain_reason 000000014008b0e0     MSVCRTD:utility.obj
 0004:000000e8       ?_RTC_ErrorLevels@@3PAHA   000000014008b0e8     MSVCRTD:error.obj
 0004:00000100       __isa_available            000000014008b100     MSVCRTD:cpu_disp.obj
 0004:00000104       __isa_enabled              000000014008b104     MSVCRTD:cpu_disp.obj
 0004:00000108       __memcpy_nt_iters          000000014008b108     MSVCRTD:cpu_disp.obj
 0004:00000110       __memset_nt_iters          000000014008b110     MSVCRTD:cpu_disp.obj
 0004:0000011c       __scrt_default_matherr     000000014008b11c     MSVCRTD:matherr.obj
 0004:00000120       __security_cookie_complement 000000014008b120     MSVCRTD:gs_cookie.obj
 0004:00000128       __security_cookie          000000014008b128     MSVCRTD:gs_cookie.obj
 0004:00000140       _You_must_link_with_exactly_one_OpenMP_library 000000014008b140     VCOMPD:unique.obj
 0004:00000144       _You_must_link_with_Microsoft_OpenMP_library 000000014008b144     VCOMPD:unique.obj
 0004:0000014c       __scrt_ucrt_dll_is_in_use  000000014008b14c     MSVCRTD:ucrt_stubs.obj
 0004:00000268       ??_R0?AVbad_array_new_length@std@@@8 000000014008b268     audio.obj
 0004:000002a0       ??_R0?AVbad_alloc@std@@@8  000000014008b2a0     audio.obj
 0004:000002d0       ??_R0?AVexception@std@@@8  000000014008b2d0     audio.obj
 0004:00000300       ??_R0?AVruntime_error@std@@@8 000000014008b300     main.obj
 0004:00000330       ??_R0?AVsystem_error@std@@@8 000000014008b330     main.obj
 0004:00000360       ??_R0?AV_System_error@std@@@8 000000014008b360     main.obj
 0004:00000390       ??_R0?AVfilesystem_error@filesystem@std@@@8 000000014008b390     main.obj
 0004:000004d8       ??_R0?AVerror_category@std@@@8 000000014008b4d8     main.obj
 0004:00000510       ??_R0?AV_Generic_error_category@std@@@8 000000014008b510     main.obj
 0004:00000550       ??_R0?AV_System_error_category@std@@@8 000000014008b550     main.obj
 0004:00000590       ??_R0?AVtype_info@@@8      000000014008b590     MSVCRTD:std_type_info_static.obj
 0004:00000990       ?trackBallBlur@@3PEBUsync_track@@EB 000000014008b990     ball.obj
 0004:00000998       ?trackBallRadius@@3PEBUsync_track@@EB 000000014008b998     ball.obj
 0004:000009a0       ?trackBallRayLength@@3PEBUsync_track@@EB 000000014008b9a0     ball.obj
 0004:000009a8       ?trackBallSpikes@@3PEBUsync_track@@EB 000000014008b9a8     ball.obj
 0004:000009b0       ?trackBallHasBeams@@3PEBUsync_track@@EB 000000014008b9b0     ball.obj
 0004:000009b8       ?trackBallBaseShapeIndex@@3PEBUsync_track@@EB 000000014008b9b8     ball.obj
 0004:000009c0       ?trackBallSpeed@@3PEBUsync_track@@EB 000000014008b9c0     ball.obj
 0004:000009c8       ?trackBallBeamAtten@@3PEBUsync_track@@EB 000000014008b9c8     ball.obj
 0004:000009d0       ?trackBallBeamAlphaMin@@3PEBUsync_track@@EB 000000014008b9d0     ball.obj
 0004:000009d8       ?trackBallRotateOffsX@@3PEBUsync_track@@EB 000000014008b9d8     ball.obj
 0004:000009e0       ?trackBallRotateOffsY@@3PEBUsync_track@@EB 000000014008b9e0     ball.obj
 0004:000009e8       ?trackBallBeams1@@3PEBUsync_track@@EB 000000014008b9e8     ball.obj
 0004:000009f0       ?trackBallBeams2@@3PEBUsync_track@@EB 000000014008b9f0     ball.obj
 0004:000009f8       ?trackBallBeams3@@3PEBUsync_track@@EB 000000014008b9f8     ball.obj
 0004:00000a00       ?trackBallLowBeams@@3PEBUsync_track@@EB 000000014008ba00     ball.obj
 0004:00007e10       ?g_fastCosTab@@3PANA       0000000140092e10     fast-cosine.obj
 0004:0000a480       ?g_pFxMap@@3PAPEAIA        0000000140095480     fx-blitter.obj
 0004:0000a4d0       ?s_stopTrack@Rocket@@3PEBUsync_track@@EB 00000001400954d0     rocket.obj
 0004:0000a4d8       ?s_rocketRow@Rocket@@3NA   00000001400954d8     rocket.obj
 0004:0000a4f0       ?trackLauraSpeed@@3PEBUsync_track@@EB 00000001400954f0     shadertoy.obj
 0004:0000a4f8       ?trackLauraYaw@@3PEBUsync_track@@EB 00000001400954f8     shadertoy.obj
 0004:0000a500       ?trackLauraPitch@@3PEBUsync_track@@EB 0000000140095500     shadertoy.obj
 0004:0000a508       ?trackLauraRoll@@3PEBUsync_track@@EB 0000000140095508     shadertoy.obj
 0004:0000a510       ?trackLauraHue@@3PEBUsync_track@@EB 0000000140095510     shadertoy.obj
 0004:0000a518       ?trackLauraSaturate@@3PEBUsync_track@@EB 0000000140095518     shadertoy.obj
 0004:0000a520       ?trackNautilusRoll@@3PEBUsync_track@@EB 0000000140095520     shadertoy.obj
 0004:0000a528       ?trackNautilusBlur@@3PEBUsync_track@@EB 0000000140095528     shadertoy.obj
 0004:0000a530       ?trackNautilusHue@@3PEBUsync_track@@EB 0000000140095530     shadertoy.obj
 0004:0000a538       ?trackNautilusSpeed@@3PEBUsync_track@@EB 0000000140095538     shadertoy.obj
 0004:0000a540       ?trackNautilusDesaturation@@3PEBUsync_track@@EB 0000000140095540     shadertoy.obj
 0004:0000a548       ?trackSpikeSpeed@@3PEBUsync_track@@EB 0000000140095548     shadertoy.obj
 0004:0000a550       ?trackSpikeRoll@@3PEBUsync_track@@EB 0000000140095550     shadertoy.obj
 0004:0000a558       ?trackSpikeSpecular@@3PEBUsync_track@@EB 0000000140095558     shadertoy.obj
 0004:0000a560       ?trackSpikeDesaturation@@3PEBUsync_track@@EB 0000000140095560     shadertoy.obj
 0004:0000a568       ?trackDistSpikeWarmup@@3PEBUsync_track@@EB 0000000140095568     shadertoy.obj
 0004:0000a570       ?trackSpikeHue@@3PEBUsync_track@@EB 0000000140095570     shadertoy.obj
 0004:0000a578       ?trackSpikeGamma@@3PEBUsync_track@@EB 0000000140095578     shadertoy.obj
 0004:0000a580       ?trackDistSpikeX@@3PEBUsync_track@@EB 0000000140095580     shadertoy.obj
 0004:0000a588       ?trackDistSpikeY@@3PEBUsync_track@@EB 0000000140095588     shadertoy.obj
 0004:0000a590       ?trackDistSpikeZ@@3PEBUsync_track@@EB 0000000140095590     shadertoy.obj
 0004:0000a598       ?trackCloseSpikeX@@3PEBUsync_track@@EB 0000000140095598     shadertoy.obj
 0004:0000a5a0       ?trackCloseSpikeY@@3PEBUsync_track@@EB 00000001400955a0     shadertoy.obj
 0004:0000a5a8       ?trackCloseSpikeZ@@3PEBUsync_track@@EB 00000001400955a8     shadertoy.obj
 0004:0000a5b0       ?trackCloseSpikeZScale@@3PEBUsync_track@@EB 00000001400955b0     shadertoy.obj
 0004:0000a5b8       ?trackCloseSpikeNormalGrain@@3PEBUsync_track@@EB 00000001400955b8     shadertoy.obj
 0004:0000a5c0       ?trackCloseSpikeScale@@3PEBUsync_track@@EB 00000001400955c0     shadertoy.obj
 0004:0000a5c8       ?trackCloseSpikeRim@@3PEBUsync_track@@EB 00000001400955c8     shadertoy.obj
 0004:0000a5d0       ?trackCloseSpikeAspectMul@@3PEBUsync_track@@EB 00000001400955d0     shadertoy.obj
 0004:0000a5d8       ?trackCloseMixBlurMap@@3PEBUsync_track@@EB 00000001400955d8     shadertoy.obj
 0004:0000a5e0       ?trackCloseMixBlur@@3PEBUsync_track@@EB 00000001400955e0     shadertoy.obj
 0004:0000a5e8       ?trackCloseMixBlurOpacity@@3PEBUsync_track@@EB 00000001400955e8     shadertoy.obj
 0004:0000a5f0       ?trackCloseMixMapBlur@@3PEBUsync_track@@EB 00000001400955f0     shadertoy.obj
 0004:0000a5f8       ?trackSinusesSpecular@@3PEBUsync_track@@EB 00000001400955f8     shadertoy.obj
 0004:0000a600       ?trackSinusesRoll@@3PEBUsync_track@@EB 0000000140095600     shadertoy.obj
 0004:0000a608       ?trackSinusesSpeed@@3PEBUsync_track@@EB 0000000140095608     shadertoy.obj
 0004:0000a610       ?trackSinusesOffsX@@3PEBUsync_track@@EB 0000000140095610     shadertoy.obj
 0004:0000a618       ?trackSinusesGamma@@3PEBUsync_track@@EB 0000000140095618     shadertoy.obj
 0004:0000a620       ?trackPlasmaSpeed@@3PEBUsync_track@@EB 0000000140095620     shadertoy.obj
 0004:0000a628       ?trackPlasmaHue@@3PEBUsync_track@@EB 0000000140095628     shadertoy.obj
 0004:0000a630       ?trackPlasmaGamma@@3PEBUsync_track@@EB 0000000140095630     shadertoy.obj
 0004:0000a638       ?trackPlasmaDesat@@3PEBUsync_track@@EB 0000000140095638     shadertoy.obj
 0004:0000a640       ?trackTunnelBoxy@@3PEBUsync_track@@EB 0000000140095640     shadertoy.obj
 0004:0000a648       ?trackTunnelFlowerScale@@3PEBUsync_track@@EB 0000000140095648     shadertoy.obj
 0004:0000a650       ?trackTunnelFlowerFreq@@3PEBUsync_track@@EB 0000000140095650     shadertoy.obj
 0004:0000a658       ?trackTunnelFlowerPhase@@3PEBUsync_track@@EB 0000000140095658     shadertoy.obj
 0004:0000a660       ?trackTunnelSpeed@@3PEBUsync_track@@EB 0000000140095660     shadertoy.obj
 0004:0000a668       ?trackTunnelRoll@@3PEBUsync_track@@EB 0000000140095668     shadertoy.obj
 0004:0000a670       ?trackTunnelPitch@@3PEBUsync_track@@EB 0000000140095670     shadertoy.obj
 0004:0000a678       ?trackTunnelRadius@@3PEBUsync_track@@EB 0000000140095678     shadertoy.obj
 0004:0000a680       ?trackTunnelMulU@@3PEBUsync_track@@EB 0000000140095680     shadertoy.obj
 0004:0000a688       ?trackTunnelMulV@@3PEBUsync_track@@EB 0000000140095688     shadertoy.obj
 0004:0000a690       ?trackTunnelLitTiles@@3PEBUsync_track@@EB 0000000140095690     shadertoy.obj
 0004:0000a698       ?trackTunnelLitBlur@@3PEBUsync_track@@EB 0000000140095698     shadertoy.obj
 0004:0000a6a0       ?trackTunnelFog1@@3PEBUsync_track@@EB 00000001400956a0     shadertoy.obj
 0004:0000a6a8       ?trackTunnelFog2@@3PEBUsync_track@@EB 00000001400956a8     shadertoy.obj
 0004:0000a760       ?trackEffect@@3PEBUsync_track@@EB 0000000140095760     demo.obj
 0004:0000a768       ?trackFadeToBlack@@3PEBUsync_track@@EB 0000000140095768     demo.obj
 0004:0000a770       ?trackFadeToWhite@@3PEBUsync_track@@EB 0000000140095770     demo.obj
 0004:0000a778       ?trackCreditLogo@@3PEBUsync_track@@EB 0000000140095778     demo.obj
 0004:0000a780       ?trackCreditLogoAlpha@@3PEBUsync_track@@EB 0000000140095780     demo.obj
 0004:0000a788       ?trackCreditLogoBlurH@@3PEBUsync_track@@EB 0000000140095788     demo.obj
 0004:0000a790       ?trackCreditLogoBlurV@@3PEBUsync_track@@EB 0000000140095790     demo.obj
 0004:0000a798       ?trackDiscoGuys@@3PEBUsync_track@@EB 0000000140095798     demo.obj
 0004:0000a7a0       ?trackDiscoGuysAppearance@@3PAPEBUsync_track@@A 00000001400957a0     demo.obj
 0004:0000a7e0       ?trackCheapJoke@@3PEBUsync_track@@EB 00000001400957e0     demo.obj
 0004:0000a7e8       ?trackShow1995@@3PEBUsync_track@@EB 00000001400957e8     demo.obj
 0004:0000a7f0       ?trackShow2006@@3PEBUsync_track@@EB 00000001400957f0     demo.obj
 0004:0000a7f8       ?trackDirt@@3PEBUsync_track@@EB 00000001400957f8     demo.obj
 0004:0000a800       ?trackScapeOverlay@@3PEBUsync_track@@EB 0000000140095800     demo.obj
 0004:0000a808       ?trackScapeRevision@@3PEBUsync_track@@EB 0000000140095808     demo.obj
 0004:0000a810       ?trackScapeFade@@3PEBUsync_track@@EB 0000000140095810     demo.obj
 0004:0000a818       ?trackDistortTPB@@3PEBUsync_track@@EB 0000000140095818     demo.obj
 0004:0000a820       ?trackDistortStrengthTPB@@3PEBUsync_track@@EB 0000000140095820     demo.obj
 0004:0000a828       ?trackBlurTPB@@3PEBUsync_track@@EB 0000000140095828     demo.obj
 0004:0000a830       ?trackRibbonsTPB@@3PEBUsync_track@@EB 0000000140095830     demo.obj
 0004:0000a838       ?trackGreetSwitch@@3PEBUsync_track@@EB 0000000140095838     demo.obj
 0004:0000a840       ?trackCousteau@@3PEBUsync_track@@EB 0000000140095840     demo.obj
 0004:0000a848       ?trackCousteauHorzBlur@@3PEBUsync_track@@EB 0000000140095848     demo.obj
 0004:0000a850       ?trackShooting@@3PEBUsync_track@@EB 0000000140095850     demo.obj
 0004:0000a858       ?trackShootingX@@3PEBUsync_track@@EB 0000000140095858     demo.obj
 0004:0000a860       ?trackShootingY@@3PEBUsync_track@@EB 0000000140095860     demo.obj
 0004:0000a868       ?trackShootingAlpha@@3PEBUsync_track@@EB 0000000140095868     demo.obj
 0004:0000a870       ?trackShootingTrail@@3PEBUsync_track@@EB 0000000140095870     demo.obj
 0004:0000a878       ?trackWaterLove@@3PEBUsync_track@@EB 0000000140095878     demo.obj
 0004:0000a880       ?trackLoveBlurHorz@@3PEBUsync_track@@EB 0000000140095880     demo.obj
 0004:0000a888       ?trackCloseUpMoonraker@@3PEBUsync_track@@EB 0000000140095888     demo.obj
 0004:0000a890       ?trackCloseUpMoonrakerText@@3PEBUsync_track@@EB 0000000140095890     demo.obj
 0004:0000a898       ?trackCloseUpMoonrakerTextBlur@@3PEBUsync_track@@EB 0000000140095898     demo.obj
 0004:0000a8a0       ?trackSpikeDemoLogoIndex@@3PEBUsync_track@@EB 00000001400958a0     demo.obj
 0004:0000a8a8       ?trackBloodEffectLogoBlend@@3PEBUsync_track@@EB 00000001400958a8     demo.obj
 0004:0000ab60       ?trackVoxelScapeForward@@3PEBUsync_track@@EB 0000000140095b60     landscape.obj
 0004:0000ab68       ?trackVoxelScapeTilt@@3PEBUsync_track@@EB 0000000140095b68     landscape.obj
 0004:0000ab70       ?trackWarpSpeed@@3PEBUsync_track@@EB 0000000140095b70     landscape.obj
 0004:0000ab78       ?trackWarpStrength@@3PEBUsync_track@@EB 0000000140095b78     landscape.obj
 0004:0000bef8       ?_OptionsStorage@?1??__local_stdio_printf_options@@9@4_KA 0000000140096ef8     main.obj
 0004:0000bf60       ?g_gradientUnp16@@3PAT__m128i@@A 0000000140096f60     shared-resources.obj
 0004:0000cf60       ?g_renderTarget@@3PAPEAIA  0000000140097f60     shared-resources.obj
 0004:0000cf80       ?g_pNytrikTPB@@3PEAIEA     0000000140097f80     shared-resources.obj
 0004:0000cf88       ?g_pXboxLogoTPB@@3PEAIEA   0000000140097f88     shared-resources.obj
 0004:0000d2d0       ?g_cosLUT@@3PAMA           00000001400982d0     sincos-lut.obj
 0004:00011fa0       ?trackTwisterSpeed@@3PEBUsync_track@@EB 000000014009cfa0     torus-twister.obj
 0004:00011fa8       ?trackTwisterShearSpeed@@3PEBUsync_track@@EB 000000014009cfa8     torus-twister.obj
 0004:00011fb0       ?trackTwisterBlur@@3PEBUsync_track@@EB 000000014009cfb0     torus-twister.obj
 0004:00013310       ?trackStarsStepU@@3PEBUsync_track@@EB 000000014009e310     tunnelscape.obj
 0004:00013318       ?trackStarsStepV@@3PEBUsync_track@@EB 000000014009e318     tunnelscape.obj
 0004:00013320       ?trackStarsSpeed@@3PEBUsync_track@@EB 000000014009e320     tunnelscape.obj
 0004:00013328       ?trackStarsBlur@@3PEBUsync_track@@EB 000000014009e328     tunnelscape.obj
 0004:00014698       __scrt_current_native_startup_state 000000014009f698     MSVCRTD:utility.obj
 0004:000146a0       __scrt_native_startup_lock 000000014009f6a0     MSVCRTD:utility.obj
 0004:00014704       __favor                    000000014009f704     MSVCRTD:cpu_disp.obj
 0004:00014708       __scrt_debugger_hook_flag  000000014009f708     MSVCRTD:utility_desktop.obj
 0004:00014710       __castguard_check_failure_os_handled_fptr 000000014009f710     MSVCRTD:guard_support.obj
 0004:00014720       ?__type_info_root_node@@3U__type_info_node@@A 000000014009f720     MSVCRTD:tncleanup.obj
 0004:00014738       ?_OptionsStorage@?1??__local_stdio_scanf_options@@9@4_KA 000000014009f738     MSVCRTD:default_local_stdio_options.obj
 0004:00014de8       ?_OptionsStorage@?1??__local_stdio_printf_options@@9@9 000000014009fde8     <common>
 0004:00014e00       __dyn_tls_dtor_callback    000000014009fe00     <common>
 0004:00014e18       __dyn_tls_init_callback    000000014009fe18     <common>
 0004:00014e2c       __DebuggerCurrentSteppingThreadId 000000014009fe2c     <common>
 0006:00000000       __imp_BASS_StreamCreateFile 00000001400a6000     bass:BASS.dll
 0006:00000008       __imp_BASS_ChannelIsActive 00000001400a6008     bass:BASS.dll
 0006:00000010       __imp_BASS_ChannelSeconds2Bytes 00000001400a6010     bass:BASS.dll
 0006:00000018       __imp_BASS_ChannelBytes2Seconds 00000001400a6018     bass:BASS.dll
 0006:00000020       __imp_BASS_GetInfo         00000001400a6020     bass:BASS.dll
 0006:00000028       __imp_BASS_Free            00000001400a6028     bass:BASS.dll
 0006:00000030       __imp_BASS_Init            00000001400a6030     bass:BASS.dll
 0006:00000038       __imp_BASS_ErrorGetCode    00000001400a6038     bass:BASS.dll
 0006:00000040       __imp_BASS_ChannelPause    00000001400a6040     bass:BASS.dll
 0006:00000048       __imp_BASS_ChannelSetAttribute 00000001400a6048     bass:BASS.dll
 0006:00000050       __imp_BASS_ChannelSetPosition 00000001400a6050     bass:BASS.dll
 0006:00000058       __imp_BASS_ChannelGetPosition 00000001400a6058     bass:BASS.dll
 0006:00000060       __imp_BASS_ChannelPlay     00000001400a6060     bass:BASS.dll
 0006:00000068       \177BASS_NULL_THUNK_DATA   00000001400a6068     bass:BASS.dll
 0006:000000d0       __imp_ilConvertImage       00000001400a60d0     DevIL:DevIL.dll
 0006:000000d8       __imp_ilCopyPixels         00000001400a60d8     DevIL:DevIL.dll
 0006:000000e0       __imp_ilDeleteImages       00000001400a60e0     DevIL:DevIL.dll
 0006:000000e8       __imp_ilEnable             00000001400a60e8     DevIL:DevIL.dll
 0006:000000f0       __imp_ilGenImages          00000001400a60f0     DevIL:DevIL.dll
 0006:000000f8       __imp_ilBindImage          00000001400a60f8     DevIL:DevIL.dll
 0006:00000100       __imp_ilGetInteger         00000001400a6100     DevIL:DevIL.dll
 0006:00000108       __imp_ilOriginFunc         00000001400a6108     DevIL:DevIL.dll
 0006:00000110       __imp_ilInit               00000001400a6110     DevIL:DevIL.dll
 0006:00000118       __imp_ilLoadImage          00000001400a6118     DevIL:DevIL.dll
 0006:00000120       __imp_ilGetError           00000001400a6120     DevIL:DevIL.dll
 0006:00000128       \177DevIL_NULL_THUNK_DATA  00000001400a6128     DevIL:DevIL.dll
 0006:00000190       __imp_GetCurrentProcessId  00000001400a6190     kernel32:KERNEL32.dll
 0006:00000198       __imp_QueryPerformanceCounter 00000001400a6198     kernel32:KERNEL32.dll
 0006:000001a0       __imp_GetModuleHandleW     00000001400a61a0     kernel32:KERNEL32.dll
 0006:000001a8       __imp_IsProcessorFeaturePresent 00000001400a61a8     kernel32:KERNEL32.dll
 0006:000001b0       __imp_OutputDebugStringA   00000001400a61b0     kernel32:KERNEL32.dll
 0006:000001b8       __imp_GetFileInformationByHandleEx 00000001400a61b8     kernel32:KERNEL32.dll
 0006:000001c0       __imp_GetStartupInfoW      00000001400a61c0     kernel32:KERNEL32.dll
 0006:000001c8       __imp_SetUnhandledExceptionFilter 00000001400a61c8     kernel32:KERNEL32.dll
 0006:000001d0       __imp_UnhandledExceptionFilter 00000001400a61d0     kernel32:KERNEL32.dll
 0006:000001d8       __imp_RtlVirtualUnwind     00000001400a61d8     kernel32:KERNEL32.dll
 0006:000001e0       __imp_RtlLookupFunctionEntry 00000001400a61e0     kernel32:KERNEL32.dll
 0006:000001e8       __imp_RtlCaptureContext    00000001400a61e8     kernel32:KERNEL32.dll
 0006:000001f0       __imp_WideCharToMultiByte  00000001400a61f0     kernel32:KERNEL32.dll
 0006:000001f8       __imp_MultiByteToWideChar  00000001400a61f8     kernel32:KERNEL32.dll
 0006:00000200       __imp_RaiseException       00000001400a6200     kernel32:KERNEL32.dll
 0006:00000208       __imp_IsDebuggerPresent    00000001400a6208     kernel32:KERNEL32.dll
 0006:00000210       __imp_CreateSymbolicLinkW  00000001400a6210     kernel32:KERNEL32.dll
 0006:00000218       __imp_GetSystemTimeAsFileTime 00000001400a6218     kernel32:KERNEL32.dll
 0006:00000220       __imp_InitializeSListHead  00000001400a6220     kernel32:KERNEL32.dll
 0006:00000228       __imp_GetLastError         00000001400a6228     kernel32:KERNEL32.dll
 0006:00000230       __imp_HeapAlloc            00000001400a6230     kernel32:KERNEL32.dll
 0006:00000238       __imp_HeapFree             00000001400a6238     kernel32:KERNEL32.dll
 0006:00000240       __imp_GetProcessHeap       00000001400a6240     kernel32:KERNEL32.dll
 0006:00000248       __imp_VirtualQuery         00000001400a6248     kernel32:KERNEL32.dll
 0006:00000250       __imp_FreeLibrary          00000001400a6250     kernel32:KERNEL32.dll
 0006:00000258       __imp_GetProcAddress       00000001400a6258     kernel32:KERNEL32.dll
 0006:00000260       __imp_GetCurrentProcess    00000001400a6260     kernel32:KERNEL32.dll
 0006:00000268       __imp_TerminateProcess     00000001400a6268     kernel32:KERNEL32.dll
 0006:00000270       __imp_LocalFree            00000001400a6270     kernel32:KERNEL32.dll
 0006:00000278       __imp_FormatMessageA       00000001400a6278     kernel32:KERNEL32.dll
 0006:00000280       __imp_SetCurrentDirectoryW 00000001400a6280     kernel32:KERNEL32.dll
 0006:00000288       __imp_GetCurrentDirectoryW 00000001400a6288     kernel32:KERNEL32.dll
 0006:00000290       __imp_CreateDirectoryW     00000001400a6290     kernel32:KERNEL32.dll
 0006:00000298       __imp_CreateFileW          00000001400a6298     kernel32:KERNEL32.dll
 0006:000002a0       __imp_FindClose            00000001400a62a0     kernel32:KERNEL32.dll
 0006:000002a8       __imp_FindFirstFileExW     00000001400a62a8     kernel32:KERNEL32.dll
 0006:000002b0       __imp_FindNextFileW        00000001400a62b0     kernel32:KERNEL32.dll
 0006:000002b8       __imp_GetDiskFreeSpaceExW  00000001400a62b8     kernel32:KERNEL32.dll
 0006:000002c0       __imp_GetFileAttributesW   00000001400a62c0     kernel32:KERNEL32.dll
 0006:000002c8       __imp_GetFileAttributesExW 00000001400a62c8     kernel32:KERNEL32.dll
 0006:000002d0       __imp_GetFileInformationByHandle 00000001400a62d0     kernel32:KERNEL32.dll
 0006:000002d8       __imp_GetFinalPathNameByHandleW 00000001400a62d8     kernel32:KERNEL32.dll
 0006:000002e0       __imp_GetFullPathNameW     00000001400a62e0     kernel32:KERNEL32.dll
 0006:000002e8       __imp_SetEndOfFile         00000001400a62e8     kernel32:KERNEL32.dll
 0006:000002f0       __imp_SetFileAttributesW   00000001400a62f0     kernel32:KERNEL32.dll
 0006:000002f8       __imp_SetFileInformationByHandle 00000001400a62f8     kernel32:KERNEL32.dll
 0006:00000300       __imp_SetFilePointerEx     00000001400a6300     kernel32:KERNEL32.dll
 0006:00000308       __imp_SetFileTime          00000001400a6308     kernel32:KERNEL32.dll
 0006:00000310       __imp_GetTempPathW         00000001400a6310     kernel32:KERNEL32.dll
 0006:00000318       __imp_AreFileApisANSI      00000001400a6318     kernel32:KERNEL32.dll
 0006:00000320       __imp_CloseHandle          00000001400a6320     kernel32:KERNEL32.dll
 0006:00000328       __imp_DeviceIoControl      00000001400a6328     kernel32:KERNEL32.dll
 0006:00000330       __imp_CreateDirectoryExW   00000001400a6330     kernel32:KERNEL32.dll
 0006:00000338       __imp_CopyFileW            00000001400a6338     kernel32:KERNEL32.dll
 0006:00000340       __imp_MoveFileExW          00000001400a6340     kernel32:KERNEL32.dll
 0006:00000348       __imp_CreateHardLinkW      00000001400a6348     kernel32:KERNEL32.dll
 0006:00000350       __imp_GetCurrentThreadId   00000001400a6350     kernel32:KERNEL32.dll
 0006:00000358       \177KERNEL32_NULL_THUNK_DATA 00000001400a6358     kernel32:KERNEL32.dll
 0006:00000408       __imp_?_Syserror_map@std@@YAPEBDH@Z 00000001400a6408     msvcprtd:MSVCP140D.dll
 0006:00000410       __imp_?_Winerror_map@std@@YAHH@Z 00000001400a6410     msvcprtd:MSVCP140D.dll
 0006:00000418       __imp__Mbrtowc             00000001400a6418     msvcprtd:MSVCP140D.dll
 0006:00000420       __imp_?_Getcvt@_Locinfo@std@@QEBA?AU_Cvtvec@@XZ 00000001400a6420     msvcprtd:MSVCP140D.dll
 0006:00000428       __imp_?_Getdays@_Locinfo@std@@QEBAPEBDXZ 00000001400a6428     msvcprtd:MSVCP140D.dll
 0006:00000430       __imp_?_Getmonths@_Locinfo@std@@QEBAPEBDXZ 00000001400a6430     msvcprtd:MSVCP140D.dll
 0006:00000438       __imp_?_W_Getdays@_Locinfo@std@@QEBAPEBGXZ 00000001400a6438     msvcprtd:MSVCP140D.dll
 0006:00000440       __imp_?_W_Getmonths@_Locinfo@std@@QEBAPEBGXZ 00000001400a6440     msvcprtd:MSVCP140D.dll
 0006:00000448       __imp_?_Xlength_error@std@@YAXPEBD@Z 00000001400a6448     msvcprtd:MSVCP140D.dll
 0006:00000450       __imp_?_Xbad_alloc@std@@YAXXZ 00000001400a6450     msvcprtd:MSVCP140D.dll
 0006:00000458       __imp_??0_Lockit@std@@QEAA@H@Z 00000001400a6458     msvcprtd:MSVCP140D.dll
 0006:00000460       __imp_??1_Lockit@std@@QEAA@XZ 00000001400a6460     msvcprtd:MSVCP140D.dll
 0006:00000468       \177MSVCP140D_NULL_THUNK_DATA 00000001400a6468     msvcprtd:MSVCP140D.dll
 0006:000004d0       __imp_SDL_GetError         00000001400a64d0     SDL2:SDL2.dll
 0006:000004d8       __imp_SDL_SetWindowTitle   00000001400a64d8     SDL2:SDL2.dll
 0006:000004e0       __imp_SDL_DestroyWindow    00000001400a64e0     SDL2:SDL2.dll
 0006:000004e8       __imp_SDL_SetHint          00000001400a64e8     SDL2:SDL2.dll
 0006:000004f0       __imp_SDL_CreateWindowAndRenderer 00000001400a64f0     SDL2:SDL2.dll
 0006:000004f8       __imp_SDL_CreateTexture    00000001400a64f8     SDL2:SDL2.dll
 0006:00000500       __imp_SDL_UpdateTexture    00000001400a6500     SDL2:SDL2.dll
 0006:00000508       __imp_SDL_RenderSetLogicalSize 00000001400a6508     SDL2:SDL2.dll
 0006:00000510       __imp_SDL_RenderClear      00000001400a6510     SDL2:SDL2.dll
 0006:00000518       __imp_SDL_RenderCopy       00000001400a6518     SDL2:SDL2.dll
 0006:00000520       __imp_SDL_RenderPresent    00000001400a6520     SDL2:SDL2.dll
 0006:00000528       __imp_SDL_DestroyTexture   00000001400a6528     SDL2:SDL2.dll
 0006:00000530       __imp_SDL_DestroyRenderer  00000001400a6530     SDL2:SDL2.dll
 0006:00000538       __imp_SDL_GameControllerGetButton 00000001400a6538     SDL2:SDL2.dll
 0006:00000540       __imp_SDL_NumJoysticks     00000001400a6540     SDL2:SDL2.dll
 0006:00000548       __imp_SDL_IsGameController 00000001400a6548     SDL2:SDL2.dll
 0006:00000550       __imp_SDL_GameControllerOpen 00000001400a6550     SDL2:SDL2.dll
 0006:00000558       __imp_SDL_GameControllerGetAttached 00000001400a6558     SDL2:SDL2.dll
 0006:00000560       __imp_SDL_GameControllerUpdate 00000001400a6560     SDL2:SDL2.dll
 0006:00000568       __imp_SDL_GameControllerGetAxis 00000001400a6568     SDL2:SDL2.dll
 0006:00000570       __imp_SDL_GameControllerClose 00000001400a6570     SDL2:SDL2.dll
 0006:00000578       __imp_SDL_HasSSE41         00000001400a6578     SDL2:SDL2.dll
 0006:00000580       __imp_SDL_HasNEON          00000001400a6580     SDL2:SDL2.dll
 0006:00000588       __imp_SDL_Quit             00000001400a6588     SDL2:SDL2.dll
 0006:00000590       __imp_SDL_Init             00000001400a6590     SDL2:SDL2.dll
 0006:00000598       __imp_SDL_GetPerformanceFrequency 00000001400a6598     SDL2:SDL2.dll
 0006:000005a0       __imp_SDL_GetPerformanceCounter 00000001400a65a0     SDL2:SDL2.dll
 0006:000005a8       __imp_SDL_ShowCursor       00000001400a65a8     SDL2:SDL2.dll
 0006:000005b0       __imp_SDL_ShowSimpleMessageBox 00000001400a65b0     SDL2:SDL2.dll
 0006:000005b8       __imp_SDL_PollEvent        00000001400a65b8     SDL2:SDL2.dll
 0006:000005c0       \177SDL2_NULL_THUNK_DATA   00000001400a65c0     SDL2:SDL2.dll
 0006:00000648       __imp_MessageBoxA          00000001400a6648     user32:USER32.dll
 0006:00000650       __imp_GetForegroundWindow  00000001400a6650     user32:USER32.dll
 0006:00000658       \177USER32_NULL_THUNK_DATA 00000001400a6658     user32:USER32.dll
 0006:000006b0       __imp__vcomp_fork          00000001400a66b0     VCOMPD:VCOMP140D.DLL
 0006:000006b8       __imp__vcomp_for_static_end 00000001400a66b8     VCOMPD:VCOMP140D.DLL
 0006:000006c0       __imp__vcomp_for_dynamic_next 00000001400a66c0     VCOMPD:VCOMP140D.DLL
 0006:000006c8       __imp__vcomp_for_dynamic_init 00000001400a66c8     VCOMPD:VCOMP140D.DLL
 0006:000006d0       __imp__vcomp_for_static_simple_init 00000001400a66d0     VCOMPD:VCOMP140D.DLL
 0006:000006d8       \177VCOMP140D_NULL_THUNK_DATA 00000001400a66d8     VCOMPD:VCOMP140D.DLL
 0006:00000738       __imp_memcpy               00000001400a6738     vcruntimed:VCRUNTIME140D.dll
 0006:00000740       __imp_memmove              00000001400a6740     vcruntimed:VCRUNTIME140D.dll
 0006:00000748       __imp___vcrt_LoadLibraryExW 00000001400a6748     vcruntimed:VCRUNTIME140D.dll
 0006:00000750       __imp___vcrt_GetModuleHandleW 00000001400a6750     vcruntimed:VCRUNTIME140D.dll
 0006:00000758       __imp___vcrt_GetModuleFileNameW 00000001400a6758     vcruntimed:VCRUNTIME140D.dll
 0006:00000760       __imp___std_type_info_destroy_list 00000001400a6760     vcruntimed:VCRUNTIME140D.dll
 0006:00000768       __imp___current_exception_context 00000001400a6768     vcruntimed:VCRUNTIME140D.dll
 0006:00000770       __imp___current_exception  00000001400a6770     vcruntimed:VCRUNTIME140D.dll
 0006:00000778       __imp___C_specific_handler_noexcept 00000001400a6778     vcruntimed:VCRUNTIME140D.dll
 0006:00000780       __imp___C_specific_handler 00000001400a6780     vcruntimed:VCRUNTIME140D.dll
 0006:00000788       __imp__CxxThrowException   00000001400a6788     vcruntimed:VCRUNTIME140D.dll
 0006:00000790       __imp___std_exception_destroy 00000001400a6790     vcruntimed:VCRUNTIME140D.dll
 0006:00000798       __imp___std_exception_copy 00000001400a6798     vcruntimed:VCRUNTIME140D.dll
 0006:000007a0       __imp_memset               00000001400a67a0     vcruntimed:VCRUNTIME140D.dll
 0006:000007a8       __imp_strchr               00000001400a67a8     vcruntimed:VCRUNTIME140D.dll
 0006:000007b0       \177VCRUNTIME140D_NULL_THUNK_DATA 00000001400a67b0     vcruntimed:VCRUNTIME140D.dll
 0006:00000820       __imp___CxxFrameHandler4   00000001400a6820     vcruntimed:VCRUNTIME140_1D.dll
 0006:00000828       \177VCRUNTIME140_1D_NULL_THUNK_DATA 00000001400a6828     vcruntimed:VCRUNTIME140_1D.dll
 0006:00000880       __imp_freeaddrinfo         00000001400a6880     ws2_32:WS2_32.dll
 0006:00000888       __imp_getaddrinfo          00000001400a6888     ws2_32:WS2_32.dll
 0006:00000890       __imp_WSAStartup           00000001400a6890     ws2_32:WS2_32.dll
 0006:00000898       __imp_socket               00000001400a6898     ws2_32:WS2_32.dll
 0006:000008a0       __imp_send                 00000001400a68a0     ws2_32:WS2_32.dll
 0006:000008a8       __imp_select               00000001400a68a8     ws2_32:WS2_32.dll
 0006:000008b0       __imp_recv                 00000001400a68b0     ws2_32:WS2_32.dll
 0006:000008b8       __imp_ntohl                00000001400a68b8     ws2_32:WS2_32.dll
 0006:000008c0       __imp_htonl                00000001400a68c0     ws2_32:WS2_32.dll
 0006:000008c8       __imp_connect              00000001400a68c8     ws2_32:WS2_32.dll
 0006:000008d0       __imp_closesocket          00000001400a68d0     ws2_32:WS2_32.dll
 0006:000008d8       \177WS2_32_NULL_THUNK_DATA 00000001400a68d8     ws2_32:WS2_32.dll
 0006:00000940       __imp__cexit               00000001400a6940     ucrtd:ucrtbased.dll
 0006:00000948       __imp__seh_filter_exe      00000001400a6948     ucrtd:ucrtbased.dll
 0006:00000950       __imp__set_app_type        00000001400a6950     ucrtd:ucrtbased.dll
 0006:00000958       __imp___setusermatherr     00000001400a6958     ucrtd:ucrtbased.dll
 0006:00000960       __imp__get_narrow_winmain_command_line 00000001400a6960     ucrtd:ucrtbased.dll
 0006:00000968       __imp__initterm            00000001400a6968     ucrtd:ucrtbased.dll
 0006:00000970       __imp__initterm_e          00000001400a6970     ucrtd:ucrtbased.dll
 0006:00000978       __imp_exit                 00000001400a6978     ucrtd:ucrtbased.dll
 0006:00000980       __imp__exit                00000001400a6980     ucrtd:ucrtbased.dll
 0006:00000988       __imp__set_fmode           00000001400a6988     ucrtd:ucrtbased.dll
 0006:00000990       __imp__c_exit              00000001400a6990     ucrtd:ucrtbased.dll
 0006:00000998       __imp__register_thread_local_exe_atexit_callback 00000001400a6998     ucrtd:ucrtbased.dll
 0006:000009a0       __imp__configthreadlocale  00000001400a69a0     ucrtd:ucrtbased.dll
 0006:000009a8       __imp__set_new_mode        00000001400a69a8     ucrtd:ucrtbased.dll
 0006:000009b0       __imp___p__commode         00000001400a69b0     ucrtd:ucrtbased.dll
 0006:000009b8       __imp_strcpy_s             00000001400a69b8     ucrtd:ucrtbased.dll
 0006:000009c0       __imp_strcat_s             00000001400a69c0     ucrtd:ucrtbased.dll
 0006:000009c8       __imp___stdio_common_vsprintf_s 00000001400a69c8     ucrtd:ucrtbased.dll
 0006:000009d0       __imp_terminate            00000001400a69d0     ucrtd:ucrtbased.dll
 0006:000009d8       __imp__wmakepath_s         00000001400a69d8     ucrtd:ucrtbased.dll
 0006:000009e0       __imp__wsplitpath_s        00000001400a69e0     ucrtd:ucrtbased.dll
 0006:000009e8       __imp_wcscpy_s             00000001400a69e8     ucrtd:ucrtbased.dll
 0006:000009f0       __imp_strdup               00000001400a69f0     ucrtd:ucrtbased.dll
 0006:000009f0       __imp__strdup              00000001400a69f0     ucrtd:ucrtbased.dll
 0006:000009f8       __imp____lc_codepage_func  00000001400a69f8     ucrtd:ucrtbased.dll
 0006:00000a00       __imp__malloc_dbg          00000001400a6a00     ucrtd:ucrtbased.dll
 0006:00000a08       __imp__crt_at_quick_exit   00000001400a6a08     ucrtd:ucrtbased.dll
 0006:00000a10       __imp__crt_atexit          00000001400a6a10     ucrtd:ucrtbased.dll
 0006:00000a18       __imp__execute_onexit_table 00000001400a6a18     ucrtd:ucrtbased.dll
 0006:00000a20       __imp__register_onexit_function 00000001400a6a20     ucrtd:ucrtbased.dll
 0006:00000a28       __imp__initialize_onexit_table 00000001400a6a28     ucrtd:ucrtbased.dll
 0006:00000a30       __imp__initialize_narrow_environment 00000001400a6a30     ucrtd:ucrtbased.dll
 0006:00000a38       __imp__configure_narrow_argv 00000001400a6a38     ucrtd:ucrtbased.dll
 0006:00000a40       __imp__seh_filter_dll      00000001400a6a40     ucrtd:ucrtbased.dll
 0006:00000a48       __imp__free_dbg            00000001400a6a48     ucrtd:ucrtbased.dll
 0006:00000a50       __imp__callnewh            00000001400a6a50     ucrtd:ucrtbased.dll
 0006:00000a58       __imp__CrtDbgReportW       00000001400a6a58     ucrtd:ucrtbased.dll
 0006:00000a60       __imp__controlfp           00000001400a6a60     ucrtd:ucrtbased.dll
 0006:00000a68       __imp_wcslen               00000001400a6a68     ucrtd:ucrtbased.dll
 0006:00000a70       __imp__CrtSetReportMode    00000001400a6a70     ucrtd:ucrtbased.dll
 0006:00000a78       __imp__calloc_dbg          00000001400a6a78     ucrtd:ucrtbased.dll
 0006:00000a80       __imp__CrtSetDbgFlag       00000001400a6a80     ucrtd:ucrtbased.dll
 0006:00000a88       __imp__CrtSetBreakAlloc    00000001400a6a88     ucrtd:ucrtbased.dll
 0006:00000a90       __imp_fmodf                00000001400a6a90     ucrtd:ucrtbased.dll
 0006:00000a98       __imp_tanhf                00000001400a6a98     ucrtd:ucrtbased.dll
 0006:00000aa0       __imp_floorf               00000001400a6aa0     ucrtd:ucrtbased.dll
 0006:00000aa8       __imp_expf                 00000001400a6aa8     ucrtd:ucrtbased.dll
 0006:00000ab0       __imp_atan2f               00000001400a6ab0     ucrtd:ucrtbased.dll
 0006:00000ab8       __imp_cos                  00000001400a6ab8     ucrtd:ucrtbased.dll
 0006:00000ac0       __imp_powf                 00000001400a6ac0     ucrtd:ucrtbased.dll
 0006:00000ac8       __imp_roundf               00000001400a6ac8     ucrtd:ucrtbased.dll
 0006:00000ad0       __imp__aligned_malloc      00000001400a6ad0     ucrtd:ucrtbased.dll
 0006:00000ad8       __imp__aligned_free        00000001400a6ad8     ucrtd:ucrtbased.dll
 0006:00000ae0       __imp__CrtDbgReport        00000001400a6ae0     ucrtd:ucrtbased.dll
 0006:00000ae8       __imp__invalid_parameter   00000001400a6ae8     ucrtd:ucrtbased.dll
 0006:00000af0       __imp_acosf                00000001400a6af0     ucrtd:ucrtbased.dll
 0006:00000af8       __imp_tanf                 00000001400a6af8     ucrtd:ucrtbased.dll
 0006:00000b00       __imp_sqrtf                00000001400a6b00     ucrtd:ucrtbased.dll
 0006:00000b08       __imp_sinf                 00000001400a6b08     ucrtd:ucrtbased.dll
 0006:00000b10       __imp_cosf                 00000001400a6b10     ucrtd:ucrtbased.dll
 0006:00000b18       __imp_fabs                 00000001400a6b18     ucrtd:ucrtbased.dll
 0006:00000b20       __imp_floor                00000001400a6b20     ucrtd:ucrtbased.dll
 0006:00000b28       __imp_pow                  00000001400a6b28     ucrtd:ucrtbased.dll
 0006:00000b30       __imp__mkdir               00000001400a6b30     ucrtd:ucrtbased.dll
 0006:00000b38       __imp__stat64i32           00000001400a6b38     ucrtd:ucrtbased.dll
 0006:00000b40       __imp___stdio_common_vsprintf 00000001400a6b40     ucrtd:ucrtbased.dll
 0006:00000b48       __imp___stdio_common_vfprintf 00000001400a6b48     ucrtd:ucrtbased.dll
 0006:00000b50       __imp_fwrite               00000001400a6b50     ucrtd:ucrtbased.dll
 0006:00000b58       __imp_fopen                00000001400a6b58     ucrtd:ucrtbased.dll
 0006:00000b60       __imp_fclose               00000001400a6b60     ucrtd:ucrtbased.dll
 0006:00000b68       __imp___acrt_iob_func      00000001400a6b68     ucrtd:ucrtbased.dll
 0006:00000b70       __imp__wassert             00000001400a6b70     ucrtd:ucrtbased.dll
 0006:00000b78       __imp_realloc              00000001400a6b78     ucrtd:ucrtbased.dll
 0006:00000b80       __imp_malloc               00000001400a6b80     ucrtd:ucrtbased.dll
 0006:00000b88       __imp_free                 00000001400a6b88     ucrtd:ucrtbased.dll
 0006:00000b90       __imp_strncpy              00000001400a6b90     ucrtd:ucrtbased.dll
 0006:00000b98       __imp_strncmp              00000001400a6b98     ucrtd:ucrtbased.dll
 0006:00000ba0       __imp_strncat              00000001400a6ba0     ucrtd:ucrtbased.dll
 0006:00000ba8       __imp_strlen               00000001400a6ba8     ucrtd:ucrtbased.dll
 0006:00000bb0       __imp_strcmp               00000001400a6bb0     ucrtd:ucrtbased.dll
 0006:00000bb8       __imp_isalnum              00000001400a6bb8     ucrtd:ucrtbased.dll
 0006:00000bc0       __imp_fread                00000001400a6bc0     ucrtd:ucrtbased.dll
 0006:00000bc8       \177ucrtbased_NULL_THUNK_DATA 00000001400a6bc8     ucrtd:ucrtbased.dll
 0006:00000ca0       __IMPORT_DESCRIPTOR_WS2_32 00000001400a6ca0     ws2_32:WS2_32.dll
 0006:00000cb4       __IMPORT_DESCRIPTOR_KERNEL32 00000001400a6cb4     kernel32:KERNEL32.dll
 0006:00000cc8       __IMPORT_DESCRIPTOR_USER32 00000001400a6cc8     user32:USER32.dll
 0006:00000cdc       __IMPORT_DESCRIPTOR_BASS   00000001400a6cdc     bass:BASS.dll
 0006:00000cf0       __IMPORT_DESCRIPTOR_DevIL  00000001400a6cf0     DevIL:DevIL.dll
 0006:00000d04       __IMPORT_DESCRIPTOR_SDL2   00000001400a6d04     SDL2:SDL2.dll
 0006:00000d18       __IMPORT_DESCRIPTOR_VCOMP140D 00000001400a6d18     VCOMPD:VCOMP140D.DLL
 0006:00000d2c       __IMPORT_DESCRIPTOR_MSVCP140D 00000001400a6d2c     msvcprtd:MSVCP140D.dll
 0006:00000d40       __IMPORT_DESCRIPTOR_VCRUNTIME140D 00000001400a6d40     vcruntimed:VCRUNTIME140D.dll
 0006:00000d54       __IMPORT_DESCRIPTOR_VCRUNTIME140_1D 00000001400a6d54     vcruntimed:VCRUNTIME140_1D.dll
 0006:00000d68       __IMPORT_DESCRIPTOR_ucrtbased 00000001400a6d68     ucrtd:ucrtbased.dll
 0006:00000d7c       __NULL_IMPORT_DESCRIPTOR   00000001400a6d7c     ws2_32:WS2_32.dll
 0008:00000000       __guard_check_icall_fptr   00000001400aa000     MSVCRTD:guard_support.obj
 0008:00000010       __guard_xfg_check_icall_fptr 00000001400aa010     MSVCRTD:guard_support.obj
 0008:00000020       __guard_dispatch_icall_fptr 00000001400aa020     MSVCRTD:guard_support.obj
 0008:00000030       __guard_xfg_dispatch_icall_fptr 00000001400aa030     MSVCRTD:guard_support.obj
 0008:00000040       __guard_xfg_table_dispatch_icall_fptr 00000001400aa040     MSVCRTD:guard_support.obj

 entry point at        0002:00000b95

 Static symbols

 0000:fff56000       _volmd                     0000000140000000     Matrix44.obj
 0000:fff56000       _volmd                     0000000140000000     Matrix44.obj
 0003:fff88000       $unwind$??0Quaternion@@QEAA@AEBVVector4@@@Z 0000000140000000     Quaternion.obj
 0003:fff88000       $unwind$??0Vector3@@QEAA@MMM@Z 0000000140000000     Quaternion.obj
 0003:fff88000       $unwind$??0Vector4@@QEAA@MMMM@Z 0000000140000000     Quaternion.obj
 0003:fff88000       $unwind$??1Quaternion@@QEAA@XZ 0000000140000000     Quaternion.obj
 0003:fff88000       $unwind$??DVector3@@QEBA?BV0@M@Z 0000000140000000     Quaternion.obj
 0003:fff88000       $unwind$??DVector4@@QEBA?BV0@M@Z 0000000140000000     Quaternion.obj
 0003:fff88000       $unwind$??XVector3@@QEAAAEAV0@M@Z 0000000140000000     Quaternion.obj
 0003:fff88000       $unwind$??XVector4@@QEAAAEAV0@M@Z 0000000140000000     Quaternion.obj
 0003:fff88000       $unwind$??_H@YAXPEAX_K1P6APEAX0@Z@Z 0000000140000000     Quaternion.obj
 0003:fff88000       $unwind$?Dot@Vector3@@SAMAEBV1@0@Z 0000000140000000     Quaternion.obj
 0003:fff88000       $unwind$?Dot@Vector4@@SAMAEBV1@0@Z 0000000140000000     Quaternion.obj
 0003:fff88000       $unwind$?Length@Vector3@@QEBAMXZ 0000000140000000     Quaternion.obj
 0003:fff88000       $unwind$?Length@Vector4@@QEBAMXZ 0000000140000000     Quaternion.obj
 0003:fff88000       $unwind$?LengthSq@Vector4@@QEBAMXZ 0000000140000000     Quaternion.obj
 0003:fff88000       $unwind$?Normalize@Vector3@@QEAAXXZ 0000000140000000     Quaternion.obj
 0003:fff88000       $unwind$?Normalize@Vector4@@QEAAXXZ 0000000140000000     Quaternion.obj
 0003:fff88000       $unwind$?Normalized@Vector3@@QEBA?BV1@XZ 0000000140000000     Quaternion.obj
 0003:fff88000       $unwind$?Normalized@Vector4@@QEBA?BV1@XZ 0000000140000000     Quaternion.obj
 0003:fff88000       $unwind$?Scale@Vector3@@SA?BV1@AEBV1@M@Z 0000000140000000     Quaternion.obj
 0003:fff88000       $unwind$?Scale@Vector4@@SA?BV1@AEBV1@M@Z 0000000140000000     Quaternion.obj
 0003:fff88000       ?Normalized@Vector3@@QEBA?BV1@XZ$rtcName$0 0000000140000000     Quaternion.obj
 0003:fff88000       ?Normalized@Vector4@@QEBA?BV1@XZ$rtcName$0 0000000140000000     Quaternion.obj
 0000:fff56000       _volmd                     0000000140000000     Quaternion.obj
 0000:fff56000       _volmd                     0000000140000000     Quaternion.obj
 0003:fff88000       $unwind$??_H@YAXPEAX_K1P6APEAX0@Z@Z 0000000140000000     Vector3.obj
 0003:fff88000       $unwind$??_H@YAXPEAX_K1P6APEAX0@Z@Z 0000000140000000     audio.obj
 0000:fff56000       _volmd                     0000000140000000     audio.obj
 0000:fff56000       _volmd                     0000000140000000     audio.obj
 0000:fff56000       _volmd                     0000000140000000     audio.obj
 0000:fff56000       _volmd                     0000000140000000     audio.obj
 0000:fff56000       _volmd                     0000000140000000     audio.obj
 0000:fff56000       _volmd                     0000000140000000     audio.obj
 0003:fff88000       $cppxdata$??$_Deallocate@$0BA@$0A@@std@@YAXPEAX_K@Z 0000000140000000     ball.obj
 0003:fff88000       $cppxdata$??$_Deallocate_plain@V?$allocator@U_Container_proxy@std@@@std@@@std@@YAXAEAV?$allocator@U_Container_proxy@std@@@0@QEAU_Container_proxy@0@@Z 0000000140000000     ball.obj
 0003:fff88000       $cppxdata$??0?$basic_string@DU?$char_traits@D@std@@V?$allocator@D@2@@std@@QEAA@QEBD@Z 0000000140000000     ball.obj
 0003:fff88000       $cppxdata$?_Tidy_deallocate@?$basic_string@DU?$char_traits@D@std@@V?$allocator@D@2@@std@@AEAAXXZ 0000000140000000     ball.obj
 0003:fff88000       $cppxdata$?_Tidy_init@?$basic_string@DU?$char_traits@D@std@@V?$allocator@D@2@@std@@AEAAXXZ 0000000140000000     ball.obj
 0003:fff88000       $ip2state$??$_Deallocate@$0BA@$0A@@std@@YAXPEAX_K@Z 0000000140000000     ball.obj
 0003:fff88000       $ip2state$??$_Deallocate_plain@V?$allocator@U_Container_proxy@std@@@std@@@std@@YAXAEAV?$allocator@U_Container_proxy@std@@@0@QEAU_Container_proxy@0@@Z 0000000140000000     ball.obj
 0003:fff88000       $ip2state$??0?$basic_string@DU?$char_traits@D@std@@V?$allocator@D@2@@std@@QEAA@QEBD@Z 0000000140000000     ball.obj
 0003:fff88000       $ip2state$?_Tidy_deallocate@?$basic_string@DU?$char_traits@D@std@@V?$allocator@D@2@@std@@AEAAXXZ 0000000140000000     ball.obj
 0003:fff88000       $ip2state$?_Tidy_init@?$basic_string@DU?$char_traits@D@std@@V?$allocator@D@2@@std@@AEAAXXZ 0000000140000000     ball.obj
 0003:fff88000       $stateUnwindMap$??0?$basic_string@DU?$char_traits@D@std@@V?$allocator@D@2@@std@@QEAA@QEBD@Z 0000000140000000     ball.obj
 0003:fff88000       $unwind$??$?0$$V@?$_Compressed_pair@V?$allocator@D@std@@V?$_String_val@U?$_Simple_types@D@std@@@2@$00@std@@QEAA@U_Zero_then_variadic_args_t@1@@Z 0000000140000000     ball.obj
 0003:fff88000       $unwind$??$?0D@?$allocator@U_Container_proxy@std@@@std@@QEAA@AEBV?$allocator@D@1@@Z 0000000140000000     ball.obj
 0003:fff88000       $unwind$??$_Allocate@$0BA@U_Default_allocate_traits@std@@$0A@@std@@YAPEAX_K@Z 0000000140000000     ball.obj
 0003:fff88000       $unwind$??$_Allocate_manually_vector_aligned@U_Default_allocate_traits@std@@@std@@YAPEAX_K@Z 0000000140000000     ball.obj
 0003:fff88000       $unwind$??$_Construct_in_place@PEADAEBQEAD@std@@YAXAEAPEADAEBQEAD@Z 0000000140000000     ball.obj
 0003:fff88000       $unwind$??$_Construct_in_place@U_Container_proxy@std@@PEAU_Container_base12@2@@std@@YAXAEAU_Container_proxy@0@$$QEAPEAU_Container_base12@0@@Z 0000000140000000     ball.obj
 0003:fff88000       $unwind$??$_Convert_size@_K@std@@YA_K_K@Z 0000000140000000     ball.obj
 0003:fff88000       $unwind$??$_Deallocate@$0BA@$0A@@std@@YAXPEAX_K@Z 0000000140000000     ball.obj
 0003:fff88000       $unwind$??$_Deallocate_plain@V?$allocator@U_Container_proxy@std@@@std@@@std@@YAXAEAV?$allocator@U_Container_proxy@std@@@0@QEAU_Container_proxy@0@@Z 0000000140000000     ball.obj
 0003:fff88000       $unwind$??$_Delete_plain_internal@V?$allocator@U_Container_proxy@std@@@std@@@std@@YAXAEAV?$allocator@U_Container_proxy@std@@@0@QEAU_Container_proxy@0@@Z 0000000140000000     ball.obj
 0003:fff88000       $unwind$??$_Destroy_in_place@PEAD@std@@YAXAEAPEAD@Z 0000000140000000     ball.obj
 0003:fff88000       $unwind$??$_Get_size_of_n@$00@std@@YA_K_K@Z 0000000140000000     ball.obj
 0003:fff88000       $unwind$??$_Get_size_of_n@$0BA@@std@@YA_K_K@Z 0000000140000000     ball.obj
 0003:fff88000       $unwind$??$_Reallocate_for@V<lambda_1>@?1??assign@?$basic_string@DU?$char_traits@D@std@@V?$allocator@D@2@@std@@QEAAAEAV34@QEBD_K@Z@PEBD@?$basic_string@DU?$char_traits@D@std@@V?$allocator@D@2@@std@@AEAAAEAV01@_KV<lambda_1>@?1??assign@01@QEAAAEAV01@QEBD0@Z@PEBD@Z 0000000140000000     ball.obj
 0003:fff88000       $unwind$??$_Unfancy@D@std@@YAPEADPEAD@Z 0000000140000000     ball.obj
 0003:fff88000       $unwind$??$_Unfancy@U_Container_proxy@std@@@std@@YAPEAU_Container_proxy@0@PEAU10@@Z 0000000140000000     ball.obj
 0003:fff88000       $unwind$??$_Voidify_iter@PEAD@std@@YAPEAXPEAD@Z 0000000140000000     ball.obj
 0003:fff88000       $unwind$??$_Voidify_iter@PEAPEAD@std@@YAPEAXPEAPEAD@Z 0000000140000000     ball.obj
 0003:fff88000       $unwind$??$_Voidify_iter@PEAU_Container_proxy@std@@@std@@YAPEAXPEAU_Container_proxy@0@@Z 0000000140000000     ball.obj
 0003:fff88000       $unwind$??$addressof@PEAD@std@@YAPEAPEADAEAPEAD@Z 0000000140000000     ball.obj
 0003:fff88000       $unwind$??$addressof@U_Container_base12@std@@@std@@YAPEAU_Container_base12@0@AEAU10@@Z 0000000140000000     ball.obj
 0003:fff88000       $unwind$??$addressof@U_Container_proxy@std@@@std@@YAPEAU_Container_proxy@0@AEAU10@@Z 0000000140000000     ball.obj
 0003:fff88000       $unwind$??$construct_at@DAEBDX@std@@YAPEADQEADAEBD@Z 0000000140000000     ball.obj
 0003:fff88000       $unwind$??$construct_at@PEADAEBQEADX@std@@YAPEAPEADQEAPEADAEBQEAD@Z 0000000140000000     ball.obj
 0003:fff88000       $unwind$??$construct_at@U_Container_proxy@std@@PEAU_Container_base12@2@X@std@@YAPEAU_Container_proxy@0@QEAU10@$$QEAPEAU_Container_base12@0@@Z 0000000140000000     ball.obj
 0003:fff88000       $unwind$??$forward@AEBD@std@@YAAEBDAEBD@Z 0000000140000000     ball.obj
 0003:fff88000       $unwind$??$forward@AEBQEAD@std@@YAAEBQEADAEBQEAD@Z 0000000140000000     ball.obj
 0003:fff88000       $unwind$??$forward@PEAU_Container_base12@std@@@std@@YA$$QEAPEAU_Container_base12@0@AEAPEAU10@@Z 0000000140000000     ball.obj
 0003:fff88000       $unwind$??$max@_K@std@@YAAEB_KAEB_K0@Z 0000000140000000     ball.obj
 0003:fff88000       $unwind$??$min@_K@std@@YAAEB_KAEB_K0@Z 0000000140000000     ball.obj
 0003:fff88000       $unwind$??0?$_Container_proxy_ptr12@V?$allocator@U_Container_proxy@std@@@std@@@std@@QEAA@AEAV?$allocator@U_Container_proxy@std@@@1@AEAU_Container_base12@1@@Z 0000000140000000     ball.obj
 0003:fff88000       $unwind$??0?$_String_val@U?$_Simple_types@D@std@@@std@@QEAA@XZ 0000000140000000     ball.obj
 0003:fff88000       $unwind$??0?$allocator@D@std@@QEAA@XZ 0000000140000000     ball.obj
 0003:fff88000       $unwind$??0?$basic_string@DU?$char_traits@D@std@@V?$allocator@D@2@@std@@QEAA@QEBD@Z 0000000140000000     ball.obj
 0003:fff88000       $unwind$??0_Basic_container_proxy_ptr12@std@@IEAA@XZ 0000000140000000     ball.obj
 0003:fff88000       $unwind$??0_Bxty@?$_String_val@U?$_Simple_types@D@std@@@std@@QEAA@XZ 0000000140000000     ball.obj
 0003:fff88000       $unwind$??0_Container_base12@std@@QEAA@XZ 0000000140000000     ball.obj
 0003:fff88000       $unwind$??0_Container_proxy@std@@QEAA@PEAU_Container_base12@1@@Z 0000000140000000     ball.obj
 0003:fff88000       $unwind$??0bad_alloc@std@@AEAA@QEBD@Z 0000000140000000     ball.obj
 0003:fff88000       $unwind$??0bad_alloc@std@@QEAA@AEBV01@@Z 0000000140000000     ball.obj
 0003:fff88000       $unwind$??0bad_array_new_length@std@@QEAA@AEBV01@@Z 0000000140000000     ball.obj
 0003:fff88000       $unwind$??0bad_array_new_length@std@@QEAA@XZ 0000000140000000     ball.obj
 0003:fff88000       $unwind$??0exception@std@@QEAA@AEBV01@@Z 0000000140000000     ball.obj
 0003:fff88000       $unwind$??0exception@std@@QEAA@QEBDH@Z 0000000140000000     ball.obj
 0003:fff88000       $unwind$??1?$_Compressed_pair@V?$allocator@D@std@@V?$_String_val@U?$_Simple_types@D@std@@@2@$00@std@@QEAA@XZ 0000000140000000     ball.obj
 0003:fff88000       $unwind$??1?$_Container_proxy_ptr12@V?$allocator@U_Container_proxy@std@@@std@@@std@@QEAA@XZ 0000000140000000     ball.obj
 0003:fff88000       $unwind$??1?$_String_val@U?$_Simple_types@D@std@@@std@@QEAA@XZ 0000000140000000     ball.obj
 0003:fff88000       $unwind$??1?$basic_string@DU?$char_traits@D@std@@V?$allocator@D@2@@std@@QEAA@XZ 0000000140000000     ball.obj
 0003:fff88000       $unwind$??1_Bxty@?$_String_val@U?$_Simple_types@D@std@@@std@@QEAA@XZ 0000000140000000     ball.obj
 0003:fff88000       $unwind$??1bad_alloc@std@@UEAA@XZ 0000000140000000     ball.obj
 0003:fff88000       $unwind$??1bad_array_new_length@std@@UEAA@XZ 0000000140000000     ball.obj
 0003:fff88000       $unwind$??1exception@std@@UEAA@XZ 0000000140000000     ball.obj
 0003:fff88000       $unwind$??2@YAPEAX_KPEAX@Z 0000000140000000     ball.obj
 0003:fff88000       $unwind$??R<lambda_1>@?1??assign@?$basic_string@DU?$char_traits@D@std@@V?$allocator@D@2@@std@@QEAAAEAV23@QEBD_K@Z@QEBA@QEAD10@Z 0000000140000000     ball.obj
 0003:fff88000       $unwind$??_Gbad_alloc@std@@UEAAPEAXI@Z 0000000140000000     ball.obj
 0003:fff88000       $unwind$??_Gbad_array_new_length@std@@UEAAPEAXI@Z 0000000140000000     ball.obj
 0003:fff88000       $unwind$??_Gexception@std@@UEAAPEAXI@Z 0000000140000000     ball.obj
 0003:fff88000       $unwind$??_H@YAXPEAX_K1P6APEAX0@Z@Z 0000000140000000     ball.obj
 0003:fff88000       $unwind$?_Adjust_manually_vector_aligned@std@@YAXAEAPEAXAEA_K@Z 0000000140000000     ball.obj
 0003:fff88000       $unwind$?_Allocate@_Default_allocate_traits@std@@SAPEAX_K@Z 0000000140000000     ball.obj
 0003:fff88000       $unwind$?_Calculate_growth@?$basic_string@DU?$char_traits@D@std@@V?$allocator@D@2@@std@@AEBA_K_K@Z 0000000140000000     ball.obj
 0003:fff88000       $unwind$?_Calculate_growth@?$basic_string@DU?$char_traits@D@std@@V?$allocator@D@2@@std@@CA_K_K00@Z 0000000140000000     ball.obj
 0003:fff88000       $unwind$?_Get_first@?$_Compressed_pair@V?$allocator@D@std@@V?$_String_val@U?$_Simple_types@D@std@@@2@$00@std@@QEAAAEAV?$allocator@D@2@XZ 0000000140000000     ball.obj
 0003:fff88000       $unwind$?_Get_first@?$_Compressed_pair@V?$allocator@D@std@@V?$_String_val@U?$_Simple_types@D@std@@@2@$00@std@@QEBAAEBV?$allocator@D@2@XZ 0000000140000000     ball.obj
 0003:fff88000       $unwind$?_Getal@?$basic_string@DU?$char_traits@D@std@@V?$allocator@D@2@@std@@AEAAAEAV?$allocator@D@2@XZ 0000000140000000     ball.obj
 0003:fff88000       $unwind$?_Getal@?$basic_string@DU?$char_traits@D@std@@V?$allocator@D@2@@std@@AEBAAEBV?$allocator@D@2@XZ 0000000140000000     ball.obj
 0003:fff88000       $unwind$?_Large_string_engaged@?$_String_val@U?$_Simple_types@D@std@@@std@@QEBA_NXZ 0000000140000000     ball.obj
 0003:fff88000       $unwind$?_Myptr@?$_String_val@U?$_Simple_types@D@std@@@std@@QEAAPEADXZ 0000000140000000     ball.obj
 0003:fff88000       $unwind$?_Orphan_all@_Container_base12@std@@QEAAXXZ 0000000140000000     ball.obj
 0003:fff88000       $unwind$?_Orphan_all_locked_v3@_Container_base12@std@@AEAAXXZ 0000000140000000     ball.obj
 0003:fff88000       $unwind$?_Orphan_all_unlocked_v3@_Container_base12@std@@AEAAXXZ 0000000140000000     ball.obj
 0003:fff88000       $unwind$?_Release@_Basic_container_proxy_ptr12@std@@QEAAXXZ 0000000140000000     ball.obj
 0003:fff88000       $unwind$?_Throw_bad_array_new_length@std@@YAXXZ 0000000140000000     ball.obj
 0003:fff88000       $unwind$?_Tidy_deallocate@?$basic_string@DU?$char_traits@D@std@@V?$allocator@D@2@@std@@AEAAXXZ 0000000140000000     ball.obj
 0003:fff88000       $unwind$?_Tidy_init@?$basic_string@DU?$char_traits@D@std@@V?$allocator@D@2@@std@@AEAAXXZ 0000000140000000     ball.obj
 0003:fff88000       $unwind$?_Xlen_string@std@@YAXXZ 0000000140000000     ball.obj
 0003:fff88000       $unwind$?allocate@?$allocator@D@std@@QEAAPEAD_K@Z 0000000140000000     ball.obj
 0003:fff88000       $unwind$?allocate@?$allocator@U_Container_proxy@std@@@std@@QEAAPEAU_Container_proxy@2@_K@Z 0000000140000000     ball.obj
 0003:fff88000       $unwind$?assign@?$_Char_traits@DH@std@@SAPEADQEAD_KD@Z 0000000140000000     ball.obj
 0003:fff88000       $unwind$?assign@?$_Narrow_char_traits@DH@std@@SAPEADQEAD_KD@Z 0000000140000000     ball.obj
 0003:fff88000       $unwind$?assign@?$_Narrow_char_traits@DH@std@@SAXAEADAEBD@Z 0000000140000000     ball.obj
 0003:fff88000       $unwind$?assign@?$basic_string@DU?$char_traits@D@std@@V?$allocator@D@2@@std@@QEAAAEAV12@QEBD@Z 0000000140000000     ball.obj
 0003:fff88000       $unwind$?assign@?$basic_string@DU?$char_traits@D@std@@V?$allocator@D@2@@std@@QEAAAEAV12@QEBD_K@Z 0000000140000000     ball.obj
 0003:fff88000       $unwind$?copy@?$_Char_traits@DH@std@@SAPEADQEADQEBD_K@Z 0000000140000000     ball.obj
 0003:fff88000       $unwind$?deallocate@?$_Default_allocator_traits@V?$allocator@U_Container_proxy@std@@@std@@@std@@SAXAEAV?$allocator@U_Container_proxy@std@@@2@QEAU_Container_proxy@2@_K@Z 0000000140000000     ball.obj
 0003:fff88000       $unwind$?deallocate@?$allocator@D@std@@QEAAXQEAD_K@Z 0000000140000000     ball.obj
 0003:fff88000       $unwind$?deallocate@?$allocator@U_Container_proxy@std@@@std@@QEAAXQEAU_Container_proxy@2@_K@Z 0000000140000000     ball.obj
 0003:fff88000       $unwind$?dtor$0@?0???0?$basic_string@DU?$char_traits@D@std@@V?$allocator@D@2@@std@@QEAA@QEBD@Z@4HA 0000000140000000     ball.obj
 0003:fff88000       $unwind$?dtor$1@?0???0?$basic_string@DU?$char_traits@D@std@@V?$allocator@D@2@@std@@QEAA@QEBD@Z@4HA 0000000140000000     ball.obj
 0003:fff88000       $unwind$?is_constant_evaluated@std@@YA_NXZ 0000000140000000     ball.obj
 0003:fff88000       $unwind$?length@?$_Narrow_char_traits@DH@std@@SA_KQEBD@Z 0000000140000000     ball.obj
 0003:fff88000       $unwind$?max@?$numeric_limits@_J@std@@SA_JXZ 0000000140000000     ball.obj
 0003:fff88000       $unwind$?max_size@?$_Default_allocator_traits@V?$allocator@D@std@@@std@@SA_KAEBV?$allocator@D@2@@Z 0000000140000000     ball.obj
 0003:fff88000       $unwind$?max_size@?$basic_string@DU?$char_traits@D@std@@V?$allocator@D@2@@std@@QEBA_KXZ 0000000140000000     ball.obj
 0003:fff88000       $unwind$?move@?$_Char_traits@DH@std@@SAPEADQEADQEBD_K@Z 0000000140000000     ball.obj
 0003:fff88000       $unwind$?what@exception@std@@UEBAPEBDXZ 0000000140000000     ball.obj
 0003:fff88000       ??$_Reallocate_for@V<lambda_1>@?1??assign@?$basic_string@DU?$char_traits@D@std@@V?$allocator@D@2@@std@@QEAAAEAV34@QEBD_K@Z@PEBD@?$basic_string@DU?$char_traits@D@std@@V?$allocator@D@2@@std@@AEAAAEAV01@_KV<lambda_1>@?1??assign@01@QEAAAEAV01@QEBD0@Z@PEBD@Z$rtcName$0 0000000140000000     ball.obj
 0003:fff88000       ??0?$basic_string@DU?$char_traits@D@std@@V?$allocator@D@2@@std@@QEAA@QEBD@Z$rtcName$0 0000000140000000     ball.obj
 0003:fff88000       ??1?$basic_string@DU?$char_traits@D@std@@V?$allocator@D@2@@std@@QEAA@XZ$rtcName$0 0000000140000000     ball.obj
 0003:fff88000       ?_Calculate_growth@?$basic_string@DU?$char_traits@D@std@@V?$allocator@D@2@@std@@CA_K_K00@Z$rtcName$0 0000000140000000     ball.obj
 0003:fff88000       ?_Orphan_all_locked_v3@_Container_base12@std@@AEAAXXZ$rtcName$0 0000000140000000     ball.obj
 0002:fffda000       ?dtor$0@?0???0?$basic_string@DU?$char_traits@D@std@@V?$allocator@D@2@@std@@QEAA@QEBD@Z@4HA 0000000140000000 f   ball.obj
 0002:fffda000       ?dtor$1@?0???0?$basic_string@DU?$char_traits@D@std@@V?$allocator@D@2@@std@@QEAA@QEBD@Z@4HA 0000000140000000 f   ball.obj
 0003:fff88000       ?max_size@?$basic_string@DU?$char_traits@D@std@@V?$allocator@D@2@@std@@QEBA_KXZ$rtcName$0 0000000140000000     ball.obj
 0000:fff56000       _volmd                     0000000140000000     ball.obj
 0000:fff56000       _volmd                     0000000140000000     ball.obj
 0000:fff56000       _volmd                     0000000140000000     ball.obj
 0000:fff56000       _volmd                     0000000140000000     ball.obj
 0000:fff56000       _volmd                     0000000140000000     ball.obj
 0000:fff56000       _volmd                     0000000140000000     ball.obj
 0000:fff56000       _volmd                     0000000140000000     ball.obj
 0000:fff56000       _volmd                     0000000140000000     ball.obj
 0000:fff56000       _volmd                     0000000140000000     ball.obj
 0000:fff56000       _volmd                     0000000140000000     ball.obj
 0000:fff56000       _volmd                     0000000140000000     ball.obj
 0000:fff56000       _volmd                     0000000140000000     ball.obj
 0003:fff88000       $unwind$??$max@H@std@@YAAEBHAEBH0@Z 0000000140000000     boxblur.obj
 0003:fff88000       $unwind$??$min@H@std@@YAAEBHAEBH0@Z 0000000140000000     boxblur.obj
 0003:fff88000       $unwind$??_H@YAXPEAX_K1P6APEAX0@Z@Z 0000000140000000     boxblur.obj
 0003:fff88000       $unwind$?freeAligned@@YAXPEAX@Z 0000000140000000     boxblur.obj
 0003:fff88000       $cppxdata$??$_Deallocate@$0BA@$0A@@std@@YAXPEAX_K@Z 0000000140000000     demo.obj
 0003:fff88000       $cppxdata$??$_Deallocate_plain@V?$allocator@U_Container_proxy@std@@@std@@@std@@YAXAEAV?$allocator@U_Container_proxy@std@@@0@QEAU_Container_proxy@0@@Z 0000000140000000     demo.obj
 0003:fff88000       $cppxdata$??0?$basic_string@DU?$char_traits@D@std@@V?$allocator@D@2@@std@@QEAA@QEBD@Z 0000000140000000     demo.obj
 0003:fff88000       $cppxdata$?_Tidy_deallocate@?$basic_string@DU?$char_traits@D@std@@V?$allocator@D@2@@std@@AEAAXXZ 0000000140000000     demo.obj
 0003:fff88000       $cppxdata$?_Tidy_init@?$basic_string@DU?$char_traits@D@std@@V?$allocator@D@2@@std@@AEAAXXZ 0000000140000000     demo.obj
 0003:fff88000       $ip2state$??$_Deallocate@$0BA@$0A@@std@@YAXPEAX_K@Z 0000000140000000     demo.obj
 0003:fff88000       $ip2state$??$_Deallocate_plain@V?$allocator@U_Container_proxy@std@@@std@@@std@@YAXAEAV?$allocator@U_Container_proxy@std@@@0@QEAU_Container_proxy@0@@Z 0000000140000000     demo.obj
 0003:fff88000       $ip2state$??0?$basic_string@DU?$char_traits@D@std@@V?$allocator@D@2@@std@@QEAA@QEBD@Z 0000000140000000     demo.obj
 0003:fff88000       $ip2state$?_Tidy_deallocate@?$basic_string@DU?$char_traits@D@std@@V?$allocator@D@2@@std@@AEAAXXZ 0000000140000000     demo.obj
 0003:fff88000       $ip2state$?_Tidy_init@?$basic_string@DU?$char_traits@D@std@@V?$allocator@D@2@@std@@AEAAXXZ 0000000140000000     demo.obj
 0003:fff88000       $stateUnwindMap$??0?$basic_string@DU?$char_traits@D@std@@V?$allocator@D@2@@std@@QEAA@QEBD@Z 0000000140000000     demo.obj
 0003:fff88000       $unwind$??$?0$$V@?$_Compressed_pair@V?$allocator@D@std@@V?$_String_val@U?$_Simple_types@D@std@@@2@$00@std@@QEAA@U_Zero_then_variadic_args_t@1@@Z 0000000140000000     demo.obj
 0003:fff88000       $unwind$??$?0D@?$allocator@U_Container_proxy@std@@@std@@QEAA@AEBV?$allocator@D@1@@Z 0000000140000000     demo.obj
 0003:fff88000       $unwind$??$_Allocate@$0BA@U_Default_allocate_traits@std@@$0A@@std@@YAPEAX_K@Z 0000000140000000     demo.obj
 0003:fff88000       $unwind$??$_Allocate_manually_vector_aligned@U_Default_allocate_traits@std@@@std@@YAPEAX_K@Z 0000000140000000     demo.obj
 0003:fff88000       $unwind$??$_Construct_in_place@PEADAEBQEAD@std@@YAXAEAPEADAEBQEAD@Z 0000000140000000     demo.obj
 0003:fff88000       $unwind$??$_Construct_in_place@U_Container_proxy@std@@PEAU_Container_base12@2@@std@@YAXAEAU_Container_proxy@0@$$QEAPEAU_Container_base12@0@@Z 0000000140000000     demo.obj
 0003:fff88000       $unwind$??$_Convert_size@_K@std@@YA_K_K@Z 0000000140000000     demo.obj
 0003:fff88000       $unwind$??$_Deallocate@$0BA@$0A@@std@@YAXPEAX_K@Z 0000000140000000     demo.obj
 0003:fff88000       $unwind$??$_Deallocate_plain@V?$allocator@U_Container_proxy@std@@@std@@@std@@YAXAEAV?$allocator@U_Container_proxy@std@@@0@QEAU_Container_proxy@0@@Z 0000000140000000     demo.obj
 0003:fff88000       $unwind$??$_Delete_plain_internal@V?$allocator@U_Container_proxy@std@@@std@@@std@@YAXAEAV?$allocator@U_Container_proxy@std@@@0@QEAU_Container_proxy@0@@Z 0000000140000000     demo.obj
 0003:fff88000       $unwind$??$_Destroy_in_place@PEAD@std@@YAXAEAPEAD@Z 0000000140000000     demo.obj
 0003:fff88000       $unwind$??$_Get_size_of_n@$00@std@@YA_K_K@Z 0000000140000000     demo.obj
 0003:fff88000       $unwind$??$_Get_size_of_n@$0BA@@std@@YA_K_K@Z 0000000140000000     demo.obj
 0003:fff88000       $unwind$??$_Reallocate_for@V<lambda_1>@?1??assign@?$basic_string@DU?$char_traits@D@std@@V?$allocator@D@2@@std@@QEAAAEAV34@QEBD_K@Z@PEBD@?$basic_string@DU?$char_traits@D@std@@V?$allocator@D@2@@std@@AEAAAEAV01@_KV<lambda_1>@?1??assign@01@QEAAAEAV01@QEBD0@Z@PEBD@Z 0000000140000000     demo.obj
 0003:fff88000       $unwind$??$_Unfancy@D@std@@YAPEADPEAD@Z 0000000140000000     demo.obj
 0003:fff88000       $unwind$??$_Unfancy@U_Container_proxy@std@@@std@@YAPEAU_Container_proxy@0@PEAU10@@Z 0000000140000000     demo.obj
 0003:fff88000       $unwind$??$_Voidify_iter@PEAD@std@@YAPEAXPEAD@Z 0000000140000000     demo.obj
 0003:fff88000       $unwind$??$_Voidify_iter@PEAPEAD@std@@YAPEAXPEAPEAD@Z 0000000140000000     demo.obj
 0003:fff88000       $unwind$??$_Voidify_iter@PEAU_Container_proxy@std@@@std@@YAPEAXPEAU_Container_proxy@0@@Z 0000000140000000     demo.obj
 0003:fff88000       $unwind$??$addressof@PEAD@std@@YAPEAPEADAEAPEAD@Z 0000000140000000     demo.obj
 0003:fff88000       $unwind$??$addressof@U_Container_base12@std@@@std@@YAPEAU_Container_base12@0@AEAU10@@Z 0000000140000000     demo.obj
 0003:fff88000       $unwind$??$addressof@U_Container_proxy@std@@@std@@YAPEAU_Container_proxy@0@AEAU10@@Z 0000000140000000     demo.obj
 0003:fff88000       $unwind$??$construct_at@DAEBDX@std@@YAPEADQEADAEBD@Z 0000000140000000     demo.obj
 0003:fff88000       $unwind$??$construct_at@PEADAEBQEADX@std@@YAPEAPEADQEAPEADAEBQEAD@Z 0000000140000000     demo.obj
 0003:fff88000       $unwind$??$construct_at@U_Container_proxy@std@@PEAU_Container_base12@2@X@std@@YAPEAU_Container_proxy@0@QEAU10@$$QEAPEAU_Container_base12@0@@Z 0000000140000000     demo.obj
 0003:fff88000       $unwind$??$forward@AEBD@std@@YAAEBDAEBD@Z 0000000140000000     demo.obj
 0003:fff88000       $unwind$??$forward@AEBQEAD@std@@YAAEBQEADAEBQEAD@Z 0000000140000000     demo.obj
 0003:fff88000       $unwind$??$forward@PEAU_Container_base12@std@@@std@@YA$$QEAPEAU_Container_base12@0@AEAPEAU10@@Z 0000000140000000     demo.obj
 0003:fff88000       $unwind$??$max@H@std@@YAAEBHAEBH0@Z 0000000140000000     demo.obj
 0003:fff88000       $unwind$??$max@M@std@@YAAEBMAEBM0@Z 0000000140000000     demo.obj
 0003:fff88000       $unwind$??$max@_K@std@@YAAEB_KAEB_K0@Z 0000000140000000     demo.obj
 0003:fff88000       $unwind$??$min@H@std@@YAAEBHAEBH0@Z 0000000140000000     demo.obj
 0003:fff88000       $unwind$??$min@M@std@@YAAEBMAEBM0@Z 0000000140000000     demo.obj
 0003:fff88000       $unwind$??$min@_K@std@@YAAEB_KAEB_K0@Z 0000000140000000     demo.obj
 0003:fff88000       $unwind$??0?$_Container_proxy_ptr12@V?$allocator@U_Container_proxy@std@@@std@@@std@@QEAA@AEAV?$allocator@U_Container_proxy@std@@@1@AEAU_Container_base12@1@@Z 0000000140000000     demo.obj
 0003:fff88000       $unwind$??0?$_String_val@U?$_Simple_types@D@std@@@std@@QEAA@XZ 0000000140000000     demo.obj
 0003:fff88000       $unwind$??0?$allocator@D@std@@QEAA@XZ 0000000140000000     demo.obj
 0003:fff88000       $unwind$??0?$basic_string@DU?$char_traits@D@std@@V?$allocator@D@2@@std@@QEAA@QEBD@Z 0000000140000000     demo.obj
 0003:fff88000       $unwind$??0_Basic_container_proxy_ptr12@std@@IEAA@XZ 0000000140000000     demo.obj
 0003:fff88000       $unwind$??0_Bxty@?$_String_val@U?$_Simple_types@D@std@@@std@@QEAA@XZ 0000000140000000     demo.obj
 0003:fff88000       $unwind$??0_Container_base12@std@@QEAA@XZ 0000000140000000     demo.obj
 0003:fff88000       $unwind$??0_Container_proxy@std@@QEAA@PEAU_Container_base12@1@@Z 0000000140000000     demo.obj
 0003:fff88000       $unwind$??0bad_alloc@std@@AEAA@QEBD@Z 0000000140000000     demo.obj
 0003:fff88000       $unwind$??0bad_alloc@std@@QEAA@AEBV01@@Z 0000000140000000     demo.obj
 0003:fff88000       $unwind$??0bad_array_new_length@std@@QEAA@AEBV01@@Z 0000000140000000     demo.obj
 0003:fff88000       $unwind$??0bad_array_new_length@std@@QEAA@XZ 0000000140000000     demo.obj
 0003:fff88000       $unwind$??0exception@std@@QEAA@AEBV01@@Z 0000000140000000     demo.obj
 0003:fff88000       $unwind$??0exception@std@@QEAA@QEBDH@Z 0000000140000000     demo.obj
 0003:fff88000       $unwind$??1?$_Compressed_pair@V?$allocator@D@std@@V?$_String_val@U?$_Simple_types@D@std@@@2@$00@std@@QEAA@XZ 0000000140000000     demo.obj
 0003:fff88000       $unwind$??1?$_Container_proxy_ptr12@V?$allocator@U_Container_proxy@std@@@std@@@std@@QEAA@XZ 0000000140000000     demo.obj
 0003:fff88000       $unwind$??1?$_String_val@U?$_Simple_types@D@std@@@std@@QEAA@XZ 0000000140000000     demo.obj
 0003:fff88000       $unwind$??1?$basic_string@DU?$char_traits@D@std@@V?$allocator@D@2@@std@@QEAA@XZ 0000000140000000     demo.obj
 0003:fff88000       $unwind$??1_Bxty@?$_String_val@U?$_Simple_types@D@std@@@std@@QEAA@XZ 0000000140000000     demo.obj
 0003:fff88000       $unwind$??1bad_alloc@std@@UEAA@XZ 0000000140000000     demo.obj
 0003:fff88000       $unwind$??1bad_array_new_length@std@@UEAA@XZ 0000000140000000     demo.obj
 0003:fff88000       $unwind$??1exception@std@@UEAA@XZ 0000000140000000     demo.obj
 0003:fff88000       $unwind$??2@YAPEAX_KPEAX@Z 0000000140000000     demo.obj
 0003:fff88000       $unwind$??R<lambda_1>@?1??assign@?$basic_string@DU?$char_traits@D@std@@V?$allocator@D@2@@std@@QEAAAEAV23@QEBD_K@Z@QEBA@QEAD10@Z 0000000140000000     demo.obj
 0003:fff88000       $unwind$??_Gbad_alloc@std@@UEAAPEAXI@Z 0000000140000000     demo.obj
 0003:fff88000       $unwind$??_Gbad_array_new_length@std@@UEAAPEAXI@Z 0000000140000000     demo.obj
 0003:fff88000       $unwind$??_Gexception@std@@UEAAPEAXI@Z 0000000140000000     demo.obj
 0003:fff88000       $unwind$??_H@YAXPEAX_K1P6APEAX0@Z@Z 0000000140000000     demo.obj
 0003:fff88000       $unwind$?_Adjust_manually_vector_aligned@std@@YAXAEAPEAXAEA_K@Z 0000000140000000     demo.obj
 0003:fff88000       $unwind$?_Allocate@_Default_allocate_traits@std@@SAPEAX_K@Z 0000000140000000     demo.obj
 0003:fff88000       $unwind$?_Calculate_growth@?$basic_string@DU?$char_traits@D@std@@V?$allocator@D@2@@std@@AEBA_K_K@Z 0000000140000000     demo.obj
 0003:fff88000       $unwind$?_Calculate_growth@?$basic_string@DU?$char_traits@D@std@@V?$allocator@D@2@@std@@CA_K_K00@Z 0000000140000000     demo.obj
 0003:fff88000       $unwind$?_Get_first@?$_Compressed_pair@V?$allocator@D@std@@V?$_String_val@U?$_Simple_types@D@std@@@2@$00@std@@QEAAAEAV?$allocator@D@2@XZ 0000000140000000     demo.obj
 0003:fff88000       $unwind$?_Get_first@?$_Compressed_pair@V?$allocator@D@std@@V?$_String_val@U?$_Simple_types@D@std@@@2@$00@std@@QEBAAEBV?$allocator@D@2@XZ 0000000140000000     demo.obj
 0003:fff88000       $unwind$?_Getal@?$basic_string@DU?$char_traits@D@std@@V?$allocator@D@2@@std@@AEAAAEAV?$allocator@D@2@XZ 0000000140000000     demo.obj
 0003:fff88000       $unwind$?_Getal@?$basic_string@DU?$char_traits@D@std@@V?$allocator@D@2@@std@@AEBAAEBV?$allocator@D@2@XZ 0000000140000000     demo.obj
 0003:fff88000       $unwind$?_Large_string_engaged@?$_String_val@U?$_Simple_types@D@std@@@std@@QEBA_NXZ 0000000140000000     demo.obj
 0003:fff88000       $unwind$?_Myptr@?$_String_val@U?$_Simple_types@D@std@@@std@@QEAAPEADXZ 0000000140000000     demo.obj
 0003:fff88000       $unwind$?_Orphan_all@_Container_base12@std@@QEAAXXZ 0000000140000000     demo.obj
 0003:fff88000       $unwind$?_Orphan_all_locked_v3@_Container_base12@std@@AEAAXXZ 0000000140000000     demo.obj
 0003:fff88000       $unwind$?_Orphan_all_unlocked_v3@_Container_base12@std@@AEAAXXZ 0000000140000000     demo.obj
 0003:fff88000       $unwind$?_Release@_Basic_container_proxy_ptr12@std@@QEAAXXZ 0000000140000000     demo.obj
 0003:fff88000       $unwind$?_Throw_bad_array_new_length@std@@YAXXZ 0000000140000000     demo.obj
 0003:fff88000       $unwind$?_Tidy_deallocate@?$basic_string@DU?$char_traits@D@std@@V?$allocator@D@2@@std@@AEAAXXZ 0000000140000000     demo.obj
 0003:fff88000       $unwind$?_Tidy_init@?$basic_string@DU?$char_traits@D@std@@V?$allocator@D@2@@std@@AEAAXXZ 0000000140000000     demo.obj
 0003:fff88000       $unwind$?_Xlen_string@std@@YAXXZ 0000000140000000     demo.obj
 0003:fff88000       $unwind$?allocate@?$allocator@D@std@@QEAAPEAD_K@Z 0000000140000000     demo.obj
 0003:fff88000       $unwind$?allocate@?$allocator@U_Container_proxy@std@@@std@@QEAAPEAU_Container_proxy@2@_K@Z 0000000140000000     demo.obj
 0003:fff88000       $unwind$?assign@?$_Char_traits@DH@std@@SAPEADQEAD_KD@Z 0000000140000000     demo.obj
 0003:fff88000       $unwind$?assign@?$_Narrow_char_traits@DH@std@@SAPEADQEAD_KD@Z 0000000140000000     demo.obj
 0003:fff88000       $unwind$?assign@?$_Narrow_char_traits@DH@std@@SAXAEADAEBD@Z 0000000140000000     demo.obj
 0003:fff88000       $unwind$?assign@?$basic_string@DU?$char_traits@D@std@@V?$allocator@D@2@@std@@QEAAAEAV12@QEBD@Z 0000000140000000     demo.obj
 0003:fff88000       $unwind$?assign@?$basic_string@DU?$char_traits@D@std@@V?$allocator@D@2@@std@@QEAAAEAV12@QEBD_K@Z 0000000140000000     demo.obj
 0003:fff88000       $unwind$?copy@?$_Char_traits@DH@std@@SAPEADQEADQEBD_K@Z 0000000140000000     demo.obj
 0003:fff88000       $unwind$?deallocate@?$_Default_allocator_traits@V?$allocator@U_Container_proxy@std@@@std@@@std@@SAXAEAV?$allocator@U_Container_proxy@std@@@2@QEAU_Container_proxy@2@_K@Z 0000000140000000     demo.obj
 0003:fff88000       $unwind$?deallocate@?$allocator@D@std@@QEAAXQEAD_K@Z 0000000140000000     demo.obj
 0003:fff88000       $unwind$?deallocate@?$allocator@U_Container_proxy@std@@@std@@QEAAXQEAU_Container_proxy@2@_K@Z 0000000140000000     demo.obj
 0003:fff88000       $unwind$?dtor$0@?0???0?$basic_string@DU?$char_traits@D@std@@V?$allocator@D@2@@std@@QEAA@QEBD@Z@4HA 0000000140000000     demo.obj
 0003:fff88000       $unwind$?dtor$1@?0???0?$basic_string@DU?$char_traits@D@std@@V?$allocator@D@2@@std@@QEAA@QEBD@Z@4HA 0000000140000000     demo.obj
 0003:fff88000       $unwind$?is_constant_evaluated@std@@YA_NXZ 0000000140000000     demo.obj
 0003:fff88000       $unwind$?length@?$_Narrow_char_traits@DH@std@@SA_KQEBD@Z 0000000140000000     demo.obj
 0003:fff88000       $unwind$?max@?$numeric_limits@_J@std@@SA_JXZ 0000000140000000     demo.obj
 0003:fff88000       $unwind$?max_size@?$_Default_allocator_traits@V?$allocator@D@std@@@std@@SA_KAEBV?$allocator@D@2@@Z 0000000140000000     demo.obj
 0003:fff88000       $unwind$?max_size@?$basic_string@DU?$char_traits@D@std@@V?$allocator@D@2@@std@@QEBA_KXZ 0000000140000000     demo.obj
 0003:fff88000       $unwind$?move@?$_Char_traits@DH@std@@SAPEADQEADQEBD_K@Z 0000000140000000     demo.obj
 0003:fff88000       $unwind$?what@exception@std@@UEBAPEBDXZ 0000000140000000     demo.obj
 0003:fff88000       ??$_Reallocate_for@V<lambda_1>@?1??assign@?$basic_string@DU?$char_traits@D@std@@V?$allocator@D@2@@std@@QEAAAEAV34@QEBD_K@Z@PEBD@?$basic_string@DU?$char_traits@D@std@@V?$allocator@D@2@@std@@AEAAAEAV01@_KV<lambda_1>@?1??assign@01@QEAAAEAV01@QEBD0@Z@PEBD@Z$rtcName$0 0000000140000000     demo.obj
 0003:fff88000       ??0?$basic_string@DU?$char_traits@D@std@@V?$allocator@D@2@@std@@QEAA@QEBD@Z$rtcName$0 0000000140000000     demo.obj
 0003:fff88000       ??1?$basic_string@DU?$char_traits@D@std@@V?$allocator@D@2@@std@@QEAA@XZ$rtcName$0 0000000140000000     demo.obj
 0003:fff88000       ?_Calculate_growth@?$basic_string@DU?$char_traits@D@std@@V?$allocator@D@2@@std@@CA_K_K00@Z$rtcName$0 0000000140000000     demo.obj
 0003:fff88000       ?_Orphan_all_locked_v3@_Container_base12@std@@AEAAXXZ$rtcName$0 0000000140000000     demo.obj
 0002:fffda000       ?dtor$0@?0???0?$basic_string@DU?$char_traits@D@std@@V?$allocator@D@2@@std@@QEAA@QEBD@Z@4HA 0000000140000000 f   demo.obj
 0002:fffda000       ?dtor$1@?0???0?$basic_string@DU?$char_traits@D@std@@V?$allocator@D@2@@std@@QEAA@QEBD@Z@4HA 0000000140000000 f   demo.obj
 0003:fff88000       ?max_size@?$basic_string@DU?$char_traits@D@std@@V?$allocator@D@2@@std@@QEBA_KXZ$rtcName$0 0000000140000000     demo.obj
 0000:fff56000       _volmd                     0000000140000000     demo.obj
 0000:fff56000       _volmd                     0000000140000000     demo.obj
 0000:fff56000       _volmd                     0000000140000000     demo.obj
 0000:fff56000       _volmd                     0000000140000000     demo.obj
 0000:fff56000       _volmd                     0000000140000000     demo.obj
 0000:fff56000       _volmd                     0000000140000000     demo.obj
 0000:fff56000       _volmd                     0000000140000000     demo.obj
 0000:fff56000       _volmd                     0000000140000000     demo.obj
 0000:fff56000       _volmd                     0000000140000000     demo.obj
 0000:fff56000       _volmd                     0000000140000000     demo.obj
 0000:fff56000       _volmd                     0000000140000000     demo.obj
 0000:fff56000       _volmd                     0000000140000000     demo.obj
 0000:fff56000       _volmd                     0000000140000000     demo.obj
 0000:fff56000       _volmd                     0000000140000000     demo.obj
 0000:fff56000       _volmd                     0000000140000000     demo.obj
 0000:fff56000       _volmd                     0000000140000000     demo.obj
 0000:fff56000       _volmd                     0000000140000000     demo.obj
 0000:fff56000       _volmd                     0000000140000000     demo.obj
 0000:fff56000       _volmd                     0000000140000000     demo.obj
 0000:fff56000       _volmd                     0000000140000000     demo.obj
 0000:fff56000       _volmd                     0000000140000000     demo.obj
 0000:fff56000       _volmd                     0000000140000000     demo.obj
 0000:fff56000       _volmd                     0000000140000000     demo.obj
 0000:fff56000       _volmd                     0000000140000000     demo.obj
 0000:fff56000       _volmd                     0000000140000000     demo.obj
 0000:fff56000       _volmd                     0000000140000000     demo.obj
 0000:fff56000       _volmd                     0000000140000000     demo.obj
 0000:fff56000       _volmd                     0000000140000000     demo.obj
 0000:fff56000       _volmd                     0000000140000000     demo.obj
 0000:fff56000       _volmd                     0000000140000000     demo.obj
 0000:fff56000       _volmd                     0000000140000000     demo.obj
 0000:fff56000       _volmd                     0000000140000000     demo.obj
 0000:fff56000       _volmd                     0000000140000000     demo.obj
 0000:fff56000       _volmd                     0000000140000000     demo.obj
 0000:fff56000       _volmd                     0000000140000000     demo.obj
 0000:fff56000       _volmd                     0000000140000000     demo.obj
 0000:fff56000       _volmd                     0000000140000000     demo.obj
 0000:fff56000       _volmd                     0000000140000000     demo.obj
 0000:fff56000       _volmd                     0000000140000000     demo.obj
 0000:fff56000       _volmd                     0000000140000000     demo.obj
 0000:fff56000       _volmd                     0000000140000000     demo.obj
 0000:fff56000       _volmd                     0000000140000000     demo.obj
 0000:fff56000       _volmd                     0000000140000000     demo.obj
 0000:fff56000       _volmd                     0000000140000000     demo.obj
 0000:fff56000       _volmd                     0000000140000000     demo.obj
 0000:fff56000       _volmd                     0000000140000000     demo.obj
 0000:fff56000       _volmd                     0000000140000000     demo.obj
 0000:fff56000       _volmd                     0000000140000000     demo.obj
 0000:fff56000       _volmd                     0000000140000000     demo.obj
 0000:fff56000       _volmd                     0000000140000000     demo.obj
 0000:fff56000       _volmd                     0000000140000000     demo.obj
 0000:fff56000       _volmd                     0000000140000000     demo.obj
 0000:fff56000       _volmd                     0000000140000000     demo.obj
 0000:fff56000       _volmd                     0000000140000000     demo.obj
 0000:fff56000       _volmd                     0000000140000000     demo.obj
 0000:fff56000       _volmd                     0000000140000000     demo.obj
 0000:fff56000       _volmd                     0000000140000000     demo.obj
 0000:fff56000       _volmd                     0000000140000000     demo.obj
 0000:fff56000       _volmd                     0000000140000000     demo.obj
 0000:fff56000       _volmd                     0000000140000000     demo.obj
 0003:fff88000       $cppxdata$??$_Deallocate@$0BA@$0A@@std@@YAXPEAX_K@Z 0000000140000000     display.obj
 0003:fff88000       $cppxdata$??$_Deallocate_plain@V?$allocator@U_Container_proxy@std@@@std@@@std@@YAXAEAV?$allocator@U_Container_proxy@std@@@0@QEAU_Container_proxy@0@@Z 0000000140000000     display.obj
 0003:fff88000       $cppxdata$??0?$basic_string@DU?$char_traits@D@std@@V?$allocator@D@2@@std@@QEAA@QEBD@Z 0000000140000000     display.obj
 0003:fff88000       $cppxdata$??0?$basic_string@DU?$char_traits@D@std@@V?$allocator@D@2@@std@@QEAA@U_String_constructor_concat_tag@1@AEBV01@QEBD_K23@Z 0000000140000000     display.obj
 0003:fff88000       $cppxdata$?_Tidy_deallocate@?$basic_string@DU?$char_traits@D@std@@V?$allocator@D@2@@std@@AEAAXXZ 0000000140000000     display.obj
 0003:fff88000       $cppxdata$?_Tidy_init@?$basic_string@DU?$char_traits@D@std@@V?$allocator@D@2@@std@@AEAAXXZ 0000000140000000     display.obj
 0003:fff88000       $ip2state$??$_Deallocate@$0BA@$0A@@std@@YAXPEAX_K@Z 0000000140000000     display.obj
 0003:fff88000       $ip2state$??$_Deallocate_plain@V?$allocator@U_Container_proxy@std@@@std@@@std@@YAXAEAV?$allocator@U_Container_proxy@std@@@0@QEAU_Container_proxy@0@@Z 0000000140000000     display.obj
 0003:fff88000       $ip2state$??0?$basic_string@DU?$char_traits@D@std@@V?$allocator@D@2@@std@@QEAA@QEBD@Z 0000000140000000     display.obj
 0003:fff88000       $ip2state$??0?$basic_string@DU?$char_traits@D@std@@V?$allocator@D@2@@std@@QEAA@U_String_constructor_concat_tag@1@AEBV01@QEBD_K23@Z 0000000140000000     display.obj
 0003:fff88000       $ip2state$?_Tidy_deallocate@?$basic_string@DU?$char_traits@D@std@@V?$allocator@D@2@@std@@AEAAXXZ 0000000140000000     display.obj
 0003:fff88000       $ip2state$?_Tidy_init@?$basic_string@DU?$char_traits@D@std@@V?$allocator@D@2@@std@@AEAAXXZ 0000000140000000     display.obj
 0003:fff88000       $stateUnwindMap$??0?$basic_string@DU?$char_traits@D@std@@V?$allocator@D@2@@std@@QEAA@QEBD@Z 0000000140000000     display.obj
 0003:fff88000       $stateUnwindMap$??0?$basic_string@DU?$char_traits@D@std@@V?$allocator@D@2@@std@@QEAA@U_String_constructor_concat_tag@1@AEBV01@QEBD_K23@Z 0000000140000000     display.obj
 0003:fff88000       $unwind$??$?0$$V@?$_Compressed_pair@V?$allocator@D@std@@V?$_String_val@U?$_Simple_types@D@std@@@2@$00@std@@QEAA@U_Zero_then_variadic_args_t@1@@Z 0000000140000000     display.obj
 0003:fff88000       $unwind$??$?0D@?$allocator@U_Container_proxy@std@@@std@@QEAA@AEBV?$allocator@D@1@@Z 0000000140000000     display.obj
 0003:fff88000       $unwind$??$?0V?$allocator@D@std@@$$V@?$_Compressed_pair@V?$allocator@D@std@@V?$_String_val@U?$_Simple_types@D@std@@@2@$00@std@@QEAA@U_One_then_variadic_args_t@1@$$QEAV?$allocator@D@1@@Z 0000000140000000     display.obj
 0003:fff88000       $unwind$??$?HDU?$char_traits@D@std@@V?$allocator@D@1@@std@@YA?AV?$basic_string@DU?$char_traits@D@std@@V?$allocator@D@2@@0@QEBDAEBV10@@Z 0000000140000000     display.obj
 0003:fff88000       $unwind$??$_Allocate@$0BA@U_Default_allocate_traits@std@@$0A@@std@@YAPEAX_K@Z 0000000140000000     display.obj
 0003:fff88000       $unwind$??$_Allocate_manually_vector_aligned@U_Default_allocate_traits@std@@@std@@YAPEAX_K@Z 0000000140000000     display.obj
 0003:fff88000       $unwind$??$_Construct_in_place@PEADAEBQEAD@std@@YAXAEAPEADAEBQEAD@Z 0000000140000000     display.obj
 0003:fff88000       $unwind$??$_Construct_in_place@U_Container_proxy@std@@PEAU_Container_base12@2@@std@@YAXAEAU_Container_proxy@0@$$QEAPEAU_Container_base12@0@@Z 0000000140000000     display.obj
 0003:fff88000       $unwind$??$_Convert_size@_K@std@@YA_K_K@Z 0000000140000000     display.obj
 0003:fff88000       $unwind$??$_Deallocate@$0BA@$0A@@std@@YAXPEAX_K@Z 0000000140000000     display.obj
 0003:fff88000       $unwind$??$_Deallocate_plain@V?$allocator@U_Container_proxy@std@@@std@@@std@@YAXAEAV?$allocator@U_Container_proxy@std@@@0@QEAU_Container_proxy@0@@Z 0000000140000000     display.obj
 0003:fff88000       $unwind$??$_Delete_plain_internal@V?$allocator@U_Container_proxy@std@@@std@@@std@@YAXAEAV?$allocator@U_Container_proxy@std@@@0@QEAU_Container_proxy@0@@Z 0000000140000000     display.obj
 0003:fff88000       $unwind$??$_Destroy_in_place@PEAD@std@@YAXAEAPEAD@Z 0000000140000000     display.obj
 0003:fff88000       $unwind$??$_Get_size_of_n@$00@std@@YA_K_K@Z 0000000140000000     display.obj
 0003:fff88000       $unwind$??$_Get_size_of_n@$0BA@@std@@YA_K_K@Z 0000000140000000     display.obj
 0003:fff88000       $unwind$??$_Reallocate_for@V<lambda_1>@?1??assign@?$basic_string@DU?$char_traits@D@std@@V?$allocator@D@2@@std@@QEAAAEAV34@QEBD_K@Z@PEBD@?$basic_string@DU?$char_traits@D@std@@V?$allocator@D@2@@std@@AEAAAEAV01@_KV<lambda_1>@?1??assign@01@QEAAAEAV01@QEBD0@Z@PEBD@Z 0000000140000000     display.obj
 0003:fff88000       $unwind$??$_Unfancy@D@std@@YAPEADPEAD@Z 0000000140000000     display.obj
 0003:fff88000       $unwind$??$_Unfancy@U_Container_proxy@std@@@std@@YAPEAU_Container_proxy@0@PEAU10@@Z 0000000140000000     display.obj
 0003:fff88000       $unwind$??$_Voidify_iter@PEAD@std@@YAPEAXPEAD@Z 0000000140000000     display.obj
 0003:fff88000       $unwind$??$_Voidify_iter@PEAPEAD@std@@YAPEAXPEAPEAD@Z 0000000140000000     display.obj
 0003:fff88000       $unwind$??$_Voidify_iter@PEAU_Container_proxy@std@@@std@@YAPEAXPEAU_Container_proxy@0@@Z 0000000140000000     display.obj
 0003:fff88000       $unwind$??$addressof@PEAD@std@@YAPEAPEADAEAPEAD@Z 0000000140000000     display.obj
 0003:fff88000       $unwind$??$addressof@U_Container_base12@std@@@std@@YAPEAU_Container_base12@0@AEAU10@@Z 0000000140000000     display.obj
 0003:fff88000       $unwind$??$addressof@U_Container_proxy@std@@@std@@YAPEAU_Container_proxy@0@AEAU10@@Z 0000000140000000     display.obj
 0003:fff88000       $unwind$??$construct_at@DAEBDX@std@@YAPEADQEADAEBD@Z 0000000140000000     display.obj
 0003:fff88000       $unwind$??$construct_at@PEADAEBQEADX@std@@YAPEAPEADQEAPEADAEBQEAD@Z 0000000140000000     display.obj
 0003:fff88000       $unwind$??$construct_at@U_Container_proxy@std@@PEAU_Container_base12@2@X@std@@YAPEAU_Container_proxy@0@QEAU10@$$QEAPEAU_Container_base12@0@@Z 0000000140000000     display.obj
 0003:fff88000       $unwind$??$forward@AEBD@std@@YAAEBDAEBD@Z 0000000140000000     display.obj
 0003:fff88000       $unwind$??$forward@AEBQEAD@std@@YAAEBQEADAEBQEAD@Z 0000000140000000     display.obj
 0003:fff88000       $unwind$??$forward@PEAU_Container_base12@std@@@std@@YA$$QEAPEAU_Container_base12@0@AEAPEAU10@@Z 0000000140000000     display.obj
 0003:fff88000       $unwind$??$forward@V?$allocator@D@std@@@std@@YA$$QEAV?$allocator@D@0@AEAV10@@Z 0000000140000000     display.obj
 0003:fff88000       $unwind$??$max@_K@std@@YAAEB_KAEB_K0@Z 0000000140000000     display.obj
 0003:fff88000       $unwind$??$min@_K@std@@YAAEB_KAEB_K0@Z 0000000140000000     display.obj
 0003:fff88000       $unwind$??0?$_Container_proxy_ptr12@V?$allocator@U_Container_proxy@std@@@std@@@std@@QEAA@AEAV?$allocator@U_Container_proxy@std@@@1@AEAU_Container_base12@1@@Z 0000000140000000     display.obj
 0003:fff88000       $unwind$??0?$_String_val@U?$_Simple_types@D@std@@@std@@QEAA@XZ 0000000140000000     display.obj
 0003:fff88000       $unwind$??0?$allocator@D@std@@QEAA@XZ 0000000140000000     display.obj
 0003:fff88000       $unwind$??0?$basic_string@DU?$char_traits@D@std@@V?$allocator@D@2@@std@@QEAA@QEBD@Z 0000000140000000     display.obj
 0003:fff88000       $unwind$??0?$basic_string@DU?$char_traits@D@std@@V?$allocator@D@2@@std@@QEAA@U_String_constructor_concat_tag@1@AEBV01@QEBD_K23@Z 0000000140000000     display.obj
 0003:fff88000       $unwind$??0_Basic_container_proxy_ptr12@std@@IEAA@XZ 0000000140000000     display.obj
 0003:fff88000       $unwind$??0_Bxty@?$_String_val@U?$_Simple_types@D@std@@@std@@QEAA@XZ 0000000140000000     display.obj
 0003:fff88000       $unwind$??0_Container_base12@std@@QEAA@XZ 0000000140000000     display.obj
 0003:fff88000       $unwind$??0_Container_proxy@std@@QEAA@PEAU_Container_base12@1@@Z 0000000140000000     display.obj
 0003:fff88000       $unwind$??0bad_alloc@std@@AEAA@QEBD@Z 0000000140000000     display.obj
 0003:fff88000       $unwind$??0bad_alloc@std@@QEAA@AEBV01@@Z 0000000140000000     display.obj
 0003:fff88000       $unwind$??0bad_array_new_length@std@@QEAA@AEBV01@@Z 0000000140000000     display.obj
 0003:fff88000       $unwind$??0bad_array_new_length@std@@QEAA@XZ 0000000140000000     display.obj
 0003:fff88000       $unwind$??0exception@std@@QEAA@AEBV01@@Z 0000000140000000     display.obj
 0003:fff88000       $unwind$??0exception@std@@QEAA@QEBDH@Z 0000000140000000     display.obj
 0003:fff88000       $unwind$??1?$_Compressed_pair@V?$allocator@D@std@@V?$_String_val@U?$_Simple_types@D@std@@@2@$00@std@@QEAA@XZ 0000000140000000     display.obj
 0003:fff88000       $unwind$??1?$_Container_proxy_ptr12@V?$allocator@U_Container_proxy@std@@@std@@@std@@QEAA@XZ 0000000140000000     display.obj
 0003:fff88000       $unwind$??1?$_String_val@U?$_Simple_types@D@std@@@std@@QEAA@XZ 0000000140000000     display.obj
 0003:fff88000       $unwind$??1?$basic_string@DU?$char_traits@D@std@@V?$allocator@D@2@@std@@QEAA@XZ 0000000140000000     display.obj
 0003:fff88000       $unwind$??1_Bxty@?$_String_val@U?$_Simple_types@D@std@@@std@@QEAA@XZ 0000000140000000     display.obj
 0003:fff88000       $unwind$??1bad_alloc@std@@UEAA@XZ 0000000140000000     display.obj
 0003:fff88000       $unwind$??1bad_array_new_length@std@@UEAA@XZ 0000000140000000     display.obj
 0003:fff88000       $unwind$??1exception@std@@UEAA@XZ 0000000140000000     display.obj
 0003:fff88000       $unwind$??2@YAPEAX_KPEAX@Z 0000000140000000     display.obj
 0003:fff88000       $unwind$??R<lambda_1>@?1??assign@?$basic_string@DU?$char_traits@D@std@@V?$allocator@D@2@@std@@QEAAAEAV23@QEBD_K@Z@QEBA@QEAD10@Z 0000000140000000     display.obj
 0003:fff88000       $unwind$??_Gbad_alloc@std@@UEAAPEAXI@Z 0000000140000000     display.obj
 0003:fff88000       $unwind$??_Gbad_array_new_length@std@@UEAAPEAXI@Z 0000000140000000     display.obj
 0003:fff88000       $unwind$??_Gexception@std@@UEAAPEAXI@Z 0000000140000000     display.obj
 0003:fff88000       $unwind$??_H@YAXPEAX_K1P6APEAX0@Z@Z 0000000140000000     display.obj
 0003:fff88000       $unwind$?_Adjust_manually_vector_aligned@std@@YAXAEAPEAXAEA_K@Z 0000000140000000     display.obj
 0003:fff88000       $unwind$?_Allocate@_Default_allocate_traits@std@@SAPEAX_K@Z 0000000140000000     display.obj
 0003:fff88000       $unwind$?_Calculate_growth@?$basic_string@DU?$char_traits@D@std@@V?$allocator@D@2@@std@@AEBA_K_K@Z 0000000140000000     display.obj
 0003:fff88000       $unwind$?_Calculate_growth@?$basic_string@DU?$char_traits@D@std@@V?$allocator@D@2@@std@@CA_K_K00@Z 0000000140000000     display.obj
 0003:fff88000       $unwind$?_Get_first@?$_Compressed_pair@V?$allocator@D@std@@V?$_String_val@U?$_Simple_types@D@std@@@2@$00@std@@QEAAAEAV?$allocator@D@2@XZ 0000000140000000     display.obj
 0003:fff88000       $unwind$?_Get_first@?$_Compressed_pair@V?$allocator@D@std@@V?$_String_val@U?$_Simple_types@D@std@@@2@$00@std@@QEBAAEBV?$allocator@D@2@XZ 0000000140000000     display.obj
 0003:fff88000       $unwind$?_Getal@?$basic_string@DU?$char_traits@D@std@@V?$allocator@D@2@@std@@AEAAAEAV?$allocator@D@2@XZ 0000000140000000     display.obj
 0003:fff88000       $unwind$?_Getal@?$basic_string@DU?$char_traits@D@std@@V?$allocator@D@2@@std@@AEBAAEBV?$allocator@D@2@XZ 0000000140000000     display.obj
 0003:fff88000       $unwind$?_Large_string_engaged@?$_String_val@U?$_Simple_types@D@std@@@std@@QEBA_NXZ 0000000140000000     display.obj
 0003:fff88000       $unwind$?_Myptr@?$_String_val@U?$_Simple_types@D@std@@@std@@QEAAPEADXZ 0000000140000000     display.obj
 0003:fff88000       $unwind$?_Myptr@?$_String_val@U?$_Simple_types@D@std@@@std@@QEBAPEBDXZ 0000000140000000     display.obj
 0003:fff88000       $unwind$?_Orphan_all@_Container_base12@std@@QEAAXXZ 0000000140000000     display.obj
 0003:fff88000       $unwind$?_Orphan_all_locked_v3@_Container_base12@std@@AEAAXXZ 0000000140000000     display.obj
 0003:fff88000       $unwind$?_Orphan_all_unlocked_v3@_Container_base12@std@@AEAAXXZ 0000000140000000     display.obj
 0003:fff88000       $unwind$?_Release@_Basic_container_proxy_ptr12@std@@QEAAXXZ 0000000140000000     display.obj
 0003:fff88000       $unwind$?_Throw_bad_array_new_length@std@@YAXXZ 0000000140000000     display.obj
 0003:fff88000       $unwind$?_Tidy_deallocate@?$basic_string@DU?$char_traits@D@std@@V?$allocator@D@2@@std@@AEAAXXZ 0000000140000000     display.obj
 0003:fff88000       $unwind$?_Tidy_init@?$basic_string@DU?$char_traits@D@std@@V?$allocator@D@2@@std@@AEAAXXZ 0000000140000000     display.obj
 0003:fff88000       $unwind$?_Xlen_string@std@@YAXXZ 0000000140000000     display.obj
 0003:fff88000       $unwind$?allocate@?$allocator@D@std@@QEAAPEAD_K@Z 0000000140000000     display.obj
 0003:fff88000       $unwind$?allocate@?$allocator@U_Container_proxy@std@@@std@@QEAAPEAU_Container_proxy@2@_K@Z 0000000140000000     display.obj
 0003:fff88000       $unwind$?assign@?$_Char_traits@DH@std@@SAPEADQEAD_KD@Z 0000000140000000     display.obj
 0003:fff88000       $unwind$?assign@?$_Narrow_char_traits@DH@std@@SAPEADQEAD_KD@Z 0000000140000000     display.obj
 0003:fff88000       $unwind$?assign@?$_Narrow_char_traits@DH@std@@SAXAEADAEBD@Z 0000000140000000     display.obj
 0003:fff88000       $unwind$?assign@?$basic_string@DU?$char_traits@D@std@@V?$allocator@D@2@@std@@QEAAAEAV12@QEBD@Z 0000000140000000     display.obj
 0003:fff88000       $unwind$?assign@?$basic_string@DU?$char_traits@D@std@@V?$allocator@D@2@@std@@QEAAAEAV12@QEBD_K@Z 0000000140000000     display.obj
 0003:fff88000       $unwind$?c_str@?$basic_string@DU?$char_traits@D@std@@V?$allocator@D@2@@std@@QEBAPEBDXZ 0000000140000000     display.obj
 0003:fff88000       $unwind$?copy@?$_Char_traits@DH@std@@SAPEADQEADQEBD_K@Z 0000000140000000     display.obj
 0003:fff88000       $unwind$?deallocate@?$_Default_allocator_traits@V?$allocator@U_Container_proxy@std@@@std@@@std@@SAXAEAV?$allocator@U_Container_proxy@std@@@2@QEAU_Container_proxy@2@_K@Z 0000000140000000     display.obj
 0003:fff88000       $unwind$?deallocate@?$allocator@D@std@@QEAAXQEAD_K@Z 0000000140000000     display.obj
 0003:fff88000       $unwind$?deallocate@?$allocator@U_Container_proxy@std@@@std@@QEAAXQEAU_Container_proxy@2@_K@Z 0000000140000000     display.obj
 0003:fff88000       $unwind$?dtor$0@?0???0?$basic_string@DU?$char_traits@D@std@@V?$allocator@D@2@@std@@QEAA@QEBD@Z@4HA 0000000140000000     display.obj
 0003:fff88000       $unwind$?dtor$0@?0???0?$basic_string@DU?$char_traits@D@std@@V?$allocator@D@2@@std@@QEAA@U_String_constructor_concat_tag@1@AEBV01@QEBD_K23@Z@4HA 0000000140000000     display.obj
 0003:fff88000       $unwind$?dtor$1@?0???0?$basic_string@DU?$char_traits@D@std@@V?$allocator@D@2@@std@@QEAA@QEBD@Z@4HA 0000000140000000     display.obj
 0003:fff88000       $unwind$?dtor$1@?0???0?$basic_string@DU?$char_traits@D@std@@V?$allocator@D@2@@std@@QEAA@U_String_constructor_concat_tag@1@AEBV01@QEBD_K23@Z@4HA 0000000140000000     display.obj
 0003:fff88000       $unwind$?is_constant_evaluated@std@@YA_NXZ 0000000140000000     display.obj
 0003:fff88000       $unwind$?length@?$_Narrow_char_traits@DH@std@@SA_KQEBD@Z 0000000140000000     display.obj
 0003:fff88000       $unwind$?max@?$numeric_limits@_J@std@@SA_JXZ 0000000140000000     display.obj
 0003:fff88000       $unwind$?max_size@?$_Default_allocator_traits@V?$allocator@D@std@@@std@@SA_KAEBV?$allocator@D@2@@Z 0000000140000000     display.obj
 0003:fff88000       $unwind$?max_size@?$basic_string@DU?$char_traits@D@std@@V?$allocator@D@2@@std@@QEBA_KXZ 0000000140000000     display.obj
 0003:fff88000       $unwind$?move@?$_Char_traits@DH@std@@SAPEADQEADQEBD_K@Z 0000000140000000     display.obj
 0003:fff88000       $unwind$?select_on_container_copy_construction@?$_Default_allocator_traits@V?$allocator@D@std@@@std@@SA?AV?$allocator@D@2@AEBV32@@Z 0000000140000000     display.obj
 0003:fff88000       $unwind$?size@?$basic_string@DU?$char_traits@D@std@@V?$allocator@D@2@@std@@QEBA_KXZ 0000000140000000     display.obj
 0003:fff88000       $unwind$?what@exception@std@@UEBAPEBDXZ 0000000140000000     display.obj
 0003:fff88000       ??$_Reallocate_for@V<lambda_1>@?1??assign@?$basic_string@DU?$char_traits@D@std@@V?$allocator@D@2@@std@@QEAAAEAV34@QEBD_K@Z@PEBD@?$basic_string@DU?$char_traits@D@std@@V?$allocator@D@2@@std@@AEAAAEAV01@_KV<lambda_1>@?1??assign@01@QEAAAEAV01@QEBD0@Z@PEBD@Z$rtcName$0 0000000140000000     display.obj
 0003:fff88000       ??0?$basic_string@DU?$char_traits@D@std@@V?$allocator@D@2@@std@@QEAA@QEBD@Z$rtcName$0 0000000140000000     display.obj
 0003:fff88000       ??0?$basic_string@DU?$char_traits@D@std@@V?$allocator@D@2@@std@@QEAA@U_String_constructor_concat_tag@1@AEBV01@QEBD_K23@Z$rtcName$0 0000000140000000     display.obj
 0003:fff88000       ??1?$basic_string@DU?$char_traits@D@std@@V?$allocator@D@2@@std@@QEAA@XZ$rtcName$0 0000000140000000     display.obj
 0003:fff88000       ?_Calculate_growth@?$basic_string@DU?$char_traits@D@std@@V?$allocator@D@2@@std@@CA_K_K00@Z$rtcName$0 0000000140000000     display.obj
 0003:fff88000       ?_Orphan_all_locked_v3@_Container_base12@std@@AEAAXXZ$rtcName$0 0000000140000000     display.obj
 0002:fffda000       ?dtor$0@?0???0?$basic_string@DU?$char_traits@D@std@@V?$allocator@D@2@@std@@QEAA@QEBD@Z@4HA 0000000140000000 f   display.obj
 0002:fffda000       ?dtor$0@?0???0?$basic_string@DU?$char_traits@D@std@@V?$allocator@D@2@@std@@QEAA@U_String_constructor_concat_tag@1@AEBV01@QEBD_K23@Z@4HA 0000000140000000 f   display.obj
 0002:fffda000       ?dtor$1@?0???0?$basic_string@DU?$char_traits@D@std@@V?$allocator@D@2@@std@@QEAA@QEBD@Z@4HA 0000000140000000 f   display.obj
 0002:fffda000       ?dtor$1@?0???0?$basic_string@DU?$char_traits@D@std@@V?$allocator@D@2@@std@@QEAA@U_String_constructor_concat_tag@1@AEBV01@QEBD_K23@Z@4HA 0000000140000000 f   display.obj
 0003:fff88000       ?max_size@?$basic_string@DU?$char_traits@D@std@@V?$allocator@D@2@@std@@QEBA_KXZ$rtcName$0 0000000140000000     display.obj
 0000:fff56000       _volmd                     0000000140000000     display.obj
 0000:fff56000       _volmd                     0000000140000000     display.obj
 0000:fff56000       _volmd                     0000000140000000     display.obj
 0000:fff56000       _volmd                     0000000140000000     display.obj
 0000:fff56000       _volmd                     0000000140000000     display.obj
 0000:fff56000       _volmd                     0000000140000000     display.obj
 0003:fff88000       $unwind$??_H@YAXPEAX_K1P6APEAX0@Z@Z 0000000140000000     fast-cosine.obj
 0003:fff88000       $unwind$??_H@YAXPEAX_K1P6APEAX0@Z@Z 0000000140000000     fx-blitter.obj
 0003:fff88000       $unwind$?freeAligned@@YAXPEAX@Z 0000000140000000     fx-blitter.obj
 0003:fff88000       $unwind$?mallocAligned@@YAPEAX_K0@Z 0000000140000000     fx-blitter.obj
 0003:fff88000       $unwind$??$min@H@std@@YAAEBHAEBH0@Z 0000000140000000     gamepad.obj
 0003:fff88000       $unwind$??_H@YAXPEAX_K1P6APEAX0@Z@Z 0000000140000000     gamepad.obj
 0003:fff88000       $cppxdata$??$_Deallocate@$0BA@$0A@@std@@YAXPEAX_K@Z 0000000140000000     image.obj
 0003:fff88000       $cppxdata$??$_Deallocate_plain@V?$allocator@U_Container_proxy@std@@@std@@@std@@YAXAEAV?$allocator@U_Container_proxy@std@@@0@QEAU_Container_proxy@0@@Z 0000000140000000     image.obj
 0003:fff88000       $cppxdata$??0?$basic_string@DU?$char_traits@D@std@@V?$allocator@D@2@@std@@QEAA@U_String_constructor_concat_tag@1@AEBV01@QEBD_K23@Z 0000000140000000     image.obj
 0003:fff88000       $cppxdata$?_Tidy_deallocate@?$basic_string@DU?$char_traits@D@std@@V?$allocator@D@2@@std@@AEAAXXZ 0000000140000000     image.obj
 0003:fff88000       $ip2state$??$_Deallocate@$0BA@$0A@@std@@YAXPEAX_K@Z 0000000140000000     image.obj
 0003:fff88000       $ip2state$??$_Deallocate_plain@V?$allocator@U_Container_proxy@std@@@std@@@std@@YAXAEAV?$allocator@U_Container_proxy@std@@@0@QEAU_Container_proxy@0@@Z 0000000140000000     image.obj
 0003:fff88000       $ip2state$??0?$basic_string@DU?$char_traits@D@std@@V?$allocator@D@2@@std@@QEAA@U_String_constructor_concat_tag@1@AEBV01@QEBD_K23@Z 0000000140000000     image.obj
 0003:fff88000       $ip2state$?_Tidy_deallocate@?$basic_string@DU?$char_traits@D@std@@V?$allocator@D@2@@std@@AEAAXXZ 0000000140000000     image.obj
 0003:fff88000       $stateUnwindMap$??0?$basic_string@DU?$char_traits@D@std@@V?$allocator@D@2@@std@@QEAA@U_String_constructor_concat_tag@1@AEBV01@QEBD_K23@Z 0000000140000000     image.obj
 0003:fff88000       $unwind$??$?0D@?$allocator@U_Container_proxy@std@@@std@@QEAA@AEBV?$allocator@D@1@@Z 0000000140000000     image.obj
 0003:fff88000       $unwind$??$?0V?$allocator@D@std@@$$V@?$_Compressed_pair@V?$allocator@D@std@@V?$_String_val@U?$_Simple_types@D@std@@@2@$00@std@@QEAA@U_One_then_variadic_args_t@1@$$QEAV?$allocator@D@1@@Z 0000000140000000     image.obj
 0003:fff88000       $unwind$??$?HDU?$char_traits@D@std@@V?$allocator@D@1@@std@@YA?AV?$basic_string@DU?$char_traits@D@std@@V?$allocator@D@2@@0@QEBDAEBV10@@Z 0000000140000000     image.obj
 0003:fff88000       $unwind$??$_Allocate@$0BA@U_Default_allocate_traits@std@@$0A@@std@@YAPEAX_K@Z 0000000140000000     image.obj
 0003:fff88000       $unwind$??$_Allocate_manually_vector_aligned@U_Default_allocate_traits@std@@@std@@YAPEAX_K@Z 0000000140000000     image.obj
 0003:fff88000       $unwind$??$_Construct_in_place@PEADAEBQEAD@std@@YAXAEAPEADAEBQEAD@Z 0000000140000000     image.obj
 0003:fff88000       $unwind$??$_Construct_in_place@U_Container_proxy@std@@PEAU_Container_base12@2@@std@@YAXAEAU_Container_proxy@0@$$QEAPEAU_Container_base12@0@@Z 0000000140000000     image.obj
 0003:fff88000       $unwind$??$_Convert_size@_K@std@@YA_K_K@Z 0000000140000000     image.obj
 0003:fff88000       $unwind$??$_Deallocate@$0BA@$0A@@std@@YAXPEAX_K@Z 0000000140000000     image.obj
 0003:fff88000       $unwind$??$_Deallocate_plain@V?$allocator@U_Container_proxy@std@@@std@@@std@@YAXAEAV?$allocator@U_Container_proxy@std@@@0@QEAU_Container_proxy@0@@Z 0000000140000000     image.obj
 0003:fff88000       $unwind$??$_Delete_plain_internal@V?$allocator@U_Container_proxy@std@@@std@@@std@@YAXAEAV?$allocator@U_Container_proxy@std@@@0@QEAU_Container_proxy@0@@Z 0000000140000000     image.obj
 0003:fff88000       $unwind$??$_Destroy_in_place@PEAD@std@@YAXAEAPEAD@Z 0000000140000000     image.obj
 0003:fff88000       $unwind$??$_Get_size_of_n@$00@std@@YA_K_K@Z 0000000140000000     image.obj
 0003:fff88000       $unwind$??$_Get_size_of_n@$0BA@@std@@YA_K_K@Z 0000000140000000     image.obj
 0003:fff88000       $unwind$??$_Unfancy@D@std@@YAPEADPEAD@Z 0000000140000000     image.obj
 0003:fff88000       $unwind$??$_Unfancy@U_Container_proxy@std@@@std@@YAPEAU_Container_proxy@0@PEAU10@@Z 0000000140000000     image.obj
 0003:fff88000       $unwind$??$_Voidify_iter@PEAD@std@@YAPEAXPEAD@Z 0000000140000000     image.obj
 0003:fff88000       $unwind$??$_Voidify_iter@PEAPEAD@std@@YAPEAXPEAPEAD@Z 0000000140000000     image.obj
 0003:fff88000       $unwind$??$_Voidify_iter@PEAU_Container_proxy@std@@@std@@YAPEAXPEAU_Container_proxy@0@@Z 0000000140000000     image.obj
 0003:fff88000       $unwind$??$addressof@PEAD@std@@YAPEAPEADAEAPEAD@Z 0000000140000000     image.obj
 0003:fff88000       $unwind$??$addressof@U_Container_base12@std@@@std@@YAPEAU_Container_base12@0@AEAU10@@Z 0000000140000000     image.obj
 0003:fff88000       $unwind$??$addressof@U_Container_proxy@std@@@std@@YAPEAU_Container_proxy@0@AEAU10@@Z 0000000140000000     image.obj
 0003:fff88000       $unwind$??$construct_at@DAEBDX@std@@YAPEADQEADAEBD@Z 0000000140000000     image.obj
 0003:fff88000       $unwind$??$construct_at@PEADAEBQEADX@std@@YAPEAPEADQEAPEADAEBQEAD@Z 0000000140000000     image.obj
 0003:fff88000       $unwind$??$construct_at@U_Container_proxy@std@@PEAU_Container_base12@2@X@std@@YAPEAU_Container_proxy@0@QEAU10@$$QEAPEAU_Container_base12@0@@Z 0000000140000000     image.obj
 0003:fff88000       $unwind$??$forward@AEBD@std@@YAAEBDAEBD@Z 0000000140000000     image.obj
 0003:fff88000       $unwind$??$forward@AEBQEAD@std@@YAAEBQEADAEBQEAD@Z 0000000140000000     image.obj
 0003:fff88000       $unwind$??$forward@PEAU_Container_base12@std@@@std@@YA$$QEAPEAU_Container_base12@0@AEAPEAU10@@Z 0000000140000000     image.obj
 0003:fff88000       $unwind$??$forward@V?$allocator@D@std@@@std@@YA$$QEAV?$allocator@D@0@AEAV10@@Z 0000000140000000     image.obj
 0003:fff88000       $unwind$??$max@_K@std@@YAAEB_KAEB_K0@Z 0000000140000000     image.obj
 0003:fff88000       $unwind$??$min@_K@std@@YAAEB_KAEB_K0@Z 0000000140000000     image.obj
 0003:fff88000       $unwind$??0?$_Container_proxy_ptr12@V?$allocator@U_Container_proxy@std@@@std@@@std@@QEAA@AEAV?$allocator@U_Container_proxy@std@@@1@AEAU_Container_base12@1@@Z 0000000140000000     image.obj
 0003:fff88000       $unwind$??0?$_String_val@U?$_Simple_types@D@std@@@std@@QEAA@XZ 0000000140000000     image.obj
 0003:fff88000       $unwind$??0?$basic_string@DU?$char_traits@D@std@@V?$allocator@D@2@@std@@QEAA@U_String_constructor_concat_tag@1@AEBV01@QEBD_K23@Z 0000000140000000     image.obj
 0003:fff88000       $unwind$??0_Basic_container_proxy_ptr12@std@@IEAA@XZ 0000000140000000     image.obj
 0003:fff88000       $unwind$??0_Bxty@?$_String_val@U?$_Simple_types@D@std@@@std@@QEAA@XZ 0000000140000000     image.obj
 0003:fff88000       $unwind$??0_Container_base12@std@@QEAA@XZ 0000000140000000     image.obj
 0003:fff88000       $unwind$??0_Container_proxy@std@@QEAA@PEAU_Container_base12@1@@Z 0000000140000000     image.obj
 0003:fff88000       $unwind$??0bad_alloc@std@@AEAA@QEBD@Z 0000000140000000     image.obj
 0003:fff88000       $unwind$??0bad_alloc@std@@QEAA@AEBV01@@Z 0000000140000000     image.obj
 0003:fff88000       $unwind$??0bad_array_new_length@std@@QEAA@AEBV01@@Z 0000000140000000     image.obj
 0003:fff88000       $unwind$??0bad_array_new_length@std@@QEAA@XZ 0000000140000000     image.obj
 0003:fff88000       $unwind$??0exception@std@@QEAA@AEBV01@@Z 0000000140000000     image.obj
 0003:fff88000       $unwind$??0exception@std@@QEAA@QEBDH@Z 0000000140000000     image.obj
 0003:fff88000       $unwind$??1?$_Compressed_pair@V?$allocator@D@std@@V?$_String_val@U?$_Simple_types@D@std@@@2@$00@std@@QEAA@XZ 0000000140000000     image.obj
 0003:fff88000       $unwind$??1?$_Container_proxy_ptr12@V?$allocator@U_Container_proxy@std@@@std@@@std@@QEAA@XZ 0000000140000000     image.obj
 0003:fff88000       $unwind$??1?$_String_val@U?$_Simple_types@D@std@@@std@@QEAA@XZ 0000000140000000     image.obj
 0003:fff88000       $unwind$??1?$basic_string@DU?$char_traits@D@std@@V?$allocator@D@2@@std@@QEAA@XZ 0000000140000000     image.obj
 0003:fff88000       $unwind$??1_Bxty@?$_String_val@U?$_Simple_types@D@std@@@std@@QEAA@XZ 0000000140000000     image.obj
 0003:fff88000       $unwind$??1bad_alloc@std@@UEAA@XZ 0000000140000000     image.obj
 0003:fff88000       $unwind$??1bad_array_new_length@std@@UEAA@XZ 0000000140000000     image.obj
 0003:fff88000       $unwind$??1exception@std@@UEAA@XZ 0000000140000000     image.obj
 0003:fff88000       $unwind$??2@YAPEAX_KPEAX@Z 0000000140000000     image.obj
 0003:fff88000       $unwind$??_Gbad_alloc@std@@UEAAPEAXI@Z 0000000140000000     image.obj
 0003:fff88000       $unwind$??_Gbad_array_new_length@std@@UEAAPEAXI@Z 0000000140000000     image.obj
 0003:fff88000       $unwind$??_Gexception@std@@UEAAPEAXI@Z 0000000140000000     image.obj
 0003:fff88000       $unwind$??_H@YAXPEAX_K1P6APEAX0@Z@Z 0000000140000000     image.obj
 0003:fff88000       $unwind$?_Adjust_manually_vector_aligned@std@@YAXAEAPEAXAEA_K@Z 0000000140000000     image.obj
 0003:fff88000       $unwind$?_Allocate@_Default_allocate_traits@std@@SAPEAX_K@Z 0000000140000000     image.obj
 0003:fff88000       $unwind$?_Calculate_growth@?$basic_string@DU?$char_traits@D@std@@V?$allocator@D@2@@std@@CA_K_K00@Z 0000000140000000     image.obj
 0003:fff88000       $unwind$?_Get_first@?$_Compressed_pair@V?$allocator@D@std@@V?$_String_val@U?$_Simple_types@D@std@@@2@$00@std@@QEAAAEAV?$allocator@D@2@XZ 0000000140000000     image.obj
 0003:fff88000       $unwind$?_Get_first@?$_Compressed_pair@V?$allocator@D@std@@V?$_String_val@U?$_Simple_types@D@std@@@2@$00@std@@QEBAAEBV?$allocator@D@2@XZ 0000000140000000     image.obj
 0003:fff88000       $unwind$?_Getal@?$basic_string@DU?$char_traits@D@std@@V?$allocator@D@2@@std@@AEAAAEAV?$allocator@D@2@XZ 0000000140000000     image.obj
 0003:fff88000       $unwind$?_Getal@?$basic_string@DU?$char_traits@D@std@@V?$allocator@D@2@@std@@AEBAAEBV?$allocator@D@2@XZ 0000000140000000     image.obj
 0003:fff88000       $unwind$?_Large_string_engaged@?$_String_val@U?$_Simple_types@D@std@@@std@@QEBA_NXZ 0000000140000000     image.obj
 0003:fff88000       $unwind$?_Myptr@?$_String_val@U?$_Simple_types@D@std@@@std@@QEBAPEBDXZ 0000000140000000     image.obj
 0003:fff88000       $unwind$?_Orphan_all@_Container_base12@std@@QEAAXXZ 0000000140000000     image.obj
 0003:fff88000       $unwind$?_Orphan_all_locked_v3@_Container_base12@std@@AEAAXXZ 0000000140000000     image.obj
 0003:fff88000       $unwind$?_Orphan_all_unlocked_v3@_Container_base12@std@@AEAAXXZ 0000000140000000     image.obj
 0003:fff88000       $unwind$?_Release@_Basic_container_proxy_ptr12@std@@QEAAXXZ 0000000140000000     image.obj
 0003:fff88000       $unwind$?_Throw_bad_array_new_length@std@@YAXXZ 0000000140000000     image.obj
 0003:fff88000       $unwind$?_Tidy_deallocate@?$basic_string@DU?$char_traits@D@std@@V?$allocator@D@2@@std@@AEAAXXZ 0000000140000000     image.obj
 0003:fff88000       $unwind$?_Xlen_string@std@@YAXXZ 0000000140000000     image.obj
 0003:fff88000       $unwind$?allocate@?$allocator@D@std@@QEAAPEAD_K@Z 0000000140000000     image.obj
 0003:fff88000       $unwind$?allocate@?$allocator@U_Container_proxy@std@@@std@@QEAAPEAU_Container_proxy@2@_K@Z 0000000140000000     image.obj
 0003:fff88000       $unwind$?assign@?$_Char_traits@DH@std@@SAPEADQEAD_KD@Z 0000000140000000     image.obj
 0003:fff88000       $unwind$?assign@?$_Narrow_char_traits@DH@std@@SAPEADQEAD_KD@Z 0000000140000000     image.obj
 0003:fff88000       $unwind$?assign@?$_Narrow_char_traits@DH@std@@SAXAEADAEBD@Z 0000000140000000     image.obj
 0003:fff88000       $unwind$?c_str@?$basic_string@DU?$char_traits@D@std@@V?$allocator@D@2@@std@@QEBAPEBDXZ 0000000140000000     image.obj
 0003:fff88000       $unwind$?copy@?$_Char_traits@DH@std@@SAPEADQEADQEBD_K@Z 0000000140000000     image.obj
 0003:fff88000       $unwind$?deallocate@?$_Default_allocator_traits@V?$allocator@U_Container_proxy@std@@@std@@@std@@SAXAEAV?$allocator@U_Container_proxy@std@@@2@QEAU_Container_proxy@2@_K@Z 0000000140000000     image.obj
 0003:fff88000       $unwind$?deallocate@?$allocator@D@std@@QEAAXQEAD_K@Z 0000000140000000     image.obj
 0003:fff88000       $unwind$?deallocate@?$allocator@U_Container_proxy@std@@@std@@QEAAXQEAU_Container_proxy@2@_K@Z 0000000140000000     image.obj
 0003:fff88000       $unwind$?dtor$0@?0???0?$basic_string@DU?$char_traits@D@std@@V?$allocator@D@2@@std@@QEAA@U_String_constructor_concat_tag@1@AEBV01@QEBD_K23@Z@4HA 0000000140000000     image.obj
 0003:fff88000       $unwind$?dtor$1@?0???0?$basic_string@DU?$char_traits@D@std@@V?$allocator@D@2@@std@@QEAA@U_String_constructor_concat_tag@1@AEBV01@QEBD_K23@Z@4HA 0000000140000000     image.obj
 0003:fff88000       $unwind$?freeAligned@@YAXPEAX@Z 0000000140000000     image.obj
 0003:fff88000       $unwind$?is_constant_evaluated@std@@YA_NXZ 0000000140000000     image.obj
 0003:fff88000       $unwind$?length@?$_Narrow_char_traits@DH@std@@SA_KQEBD@Z 0000000140000000     image.obj
 0003:fff88000       $unwind$?mallocAligned@@YAPEAX_K0@Z 0000000140000000     image.obj
 0003:fff88000       $unwind$?max@?$numeric_limits@_J@std@@SA_JXZ 0000000140000000     image.obj
 0003:fff88000       $unwind$?max_size@?$_Default_allocator_traits@V?$allocator@D@std@@@std@@SA_KAEBV?$allocator@D@2@@Z 0000000140000000     image.obj
 0003:fff88000       $unwind$?max_size@?$basic_string@DU?$char_traits@D@std@@V?$allocator@D@2@@std@@QEBA_KXZ 0000000140000000     image.obj
 0003:fff88000       $unwind$?select_on_container_copy_construction@?$_Default_allocator_traits@V?$allocator@D@std@@@std@@SA?AV?$allocator@D@2@AEBV32@@Z 0000000140000000     image.obj
 0003:fff88000       $unwind$?size@?$basic_string@DU?$char_traits@D@std@@V?$allocator@D@2@@std@@QEBA_KXZ 0000000140000000     image.obj
 0003:fff88000       $unwind$?what@exception@std@@UEBAPEBDXZ 0000000140000000     image.obj
 0003:fff88000       ??0?$basic_string@DU?$char_traits@D@std@@V?$allocator@D@2@@std@@QEAA@U_String_constructor_concat_tag@1@AEBV01@QEBD_K23@Z$rtcName$0 0000000140000000     image.obj
 0003:fff88000       ??1?$basic_string@DU?$char_traits@D@std@@V?$allocator@D@2@@std@@QEAA@XZ$rtcName$0 0000000140000000     image.obj
 0003:fff88000       ?_Calculate_growth@?$basic_string@DU?$char_traits@D@std@@V?$allocator@D@2@@std@@CA_K_K00@Z$rtcName$0 0000000140000000     image.obj
 0003:fff88000       ?_Orphan_all_locked_v3@_Container_base12@std@@AEAAXXZ$rtcName$0 0000000140000000     image.obj
 0002:fffda000       ?dtor$0@?0???0?$basic_string@DU?$char_traits@D@std@@V?$allocator@D@2@@std@@QEAA@U_String_constructor_concat_tag@1@AEBV01@QEBD_K23@Z@4HA 0000000140000000 f   image.obj
 0002:fffda000       ?dtor$1@?0???0?$basic_string@DU?$char_traits@D@std@@V?$allocator@D@2@@std@@QEAA@U_String_constructor_concat_tag@1@AEBV01@QEBD_K23@Z@4HA 0000000140000000 f   image.obj
 0003:fff88000       ?max_size@?$basic_string@DU?$char_traits@D@std@@V?$allocator@D@2@@std@@QEBA_KXZ$rtcName$0 0000000140000000     image.obj
 0000:fff56000       _volmd                     0000000140000000     image.obj
 0000:fff56000       _volmd                     0000000140000000     image.obj
 0000:fff56000       _volmd                     0000000140000000     image.obj
 0000:fff56000       _volmd                     0000000140000000     image.obj
 0000:fff56000       _volmd                     0000000140000000     image.obj
 0000:fff56000       _volmd                     0000000140000000     image.obj
 0003:fff88000       $cppxdata$??$_Deallocate@$0BA@$0A@@std@@YAXPEAX_K@Z 0000000140000000     landscape.obj
 0003:fff88000       $cppxdata$??$_Deallocate_plain@V?$allocator@U_Container_proxy@std@@@std@@@std@@YAXAEAV?$allocator@U_Container_proxy@std@@@0@QEAU_Container_proxy@0@@Z 0000000140000000     landscape.obj
 0003:fff88000       $cppxdata$??0?$basic_string@DU?$char_traits@D@std@@V?$allocator@D@2@@std@@QEAA@QEBD@Z 0000000140000000     landscape.obj
 0003:fff88000       $cppxdata$?_Tidy_deallocate@?$basic_string@DU?$char_traits@D@std@@V?$allocator@D@2@@std@@AEAAXXZ 0000000140000000     landscape.obj
 0003:fff88000       $cppxdata$?_Tidy_init@?$basic_string@DU?$char_traits@D@std@@V?$allocator@D@2@@std@@AEAAXXZ 0000000140000000     landscape.obj
 0003:fff88000       $ip2state$??$_Deallocate@$0BA@$0A@@std@@YAXPEAX_K@Z 0000000140000000     landscape.obj
 0003:fff88000       $ip2state$??$_Deallocate_plain@V?$allocator@U_Container_proxy@std@@@std@@@std@@YAXAEAV?$allocator@U_Container_proxy@std@@@0@QEAU_Container_proxy@0@@Z 0000000140000000     landscape.obj
 0003:fff88000       $ip2state$??0?$basic_string@DU?$char_traits@D@std@@V?$allocator@D@2@@std@@QEAA@QEBD@Z 0000000140000000     landscape.obj
 0003:fff88000       $ip2state$?_Tidy_deallocate@?$basic_string@DU?$char_traits@D@std@@V?$allocator@D@2@@std@@AEAAXXZ 0000000140000000     landscape.obj
 0003:fff88000       $ip2state$?_Tidy_init@?$basic_string@DU?$char_traits@D@std@@V?$allocator@D@2@@std@@AEAAXXZ 0000000140000000     landscape.obj
 0003:fff88000       $stateUnwindMap$??0?$basic_string@DU?$char_traits@D@std@@V?$allocator@D@2@@std@@QEAA@QEBD@Z 0000000140000000     landscape.obj
 0003:fff88000       $unwind$??$?0$$V@?$_Compressed_pair@V?$allocator@D@std@@V?$_String_val@U?$_Simple_types@D@std@@@2@$00@std@@QEAA@U_Zero_then_variadic_args_t@1@@Z 0000000140000000     landscape.obj
 0003:fff88000       $unwind$??$?0D@?$allocator@U_Container_proxy@std@@@std@@QEAA@AEBV?$allocator@D@1@@Z 0000000140000000     landscape.obj
 0003:fff88000       $unwind$??$_Allocate@$0BA@U_Default_allocate_traits@std@@$0A@@std@@YAPEAX_K@Z 0000000140000000     landscape.obj
 0003:fff88000       $unwind$??$_Allocate_manually_vector_aligned@U_Default_allocate_traits@std@@@std@@YAPEAX_K@Z 0000000140000000     landscape.obj
 0003:fff88000       $unwind$??$_Construct_in_place@PEADAEBQEAD@std@@YAXAEAPEADAEBQEAD@Z 0000000140000000     landscape.obj
 0003:fff88000       $unwind$??$_Construct_in_place@U_Container_proxy@std@@PEAU_Container_base12@2@@std@@YAXAEAU_Container_proxy@0@$$QEAPEAU_Container_base12@0@@Z 0000000140000000     landscape.obj
 0003:fff88000       $unwind$??$_Convert_size@_K@std@@YA_K_K@Z 0000000140000000     landscape.obj
 0003:fff88000       $unwind$??$_Deallocate@$0BA@$0A@@std@@YAXPEAX_K@Z 0000000140000000     landscape.obj
 0003:fff88000       $unwind$??$_Deallocate_plain@V?$allocator@U_Container_proxy@std@@@std@@@std@@YAXAEAV?$allocator@U_Container_proxy@std@@@0@QEAU_Container_proxy@0@@Z 0000000140000000     landscape.obj
 0003:fff88000       $unwind$??$_Delete_plain_internal@V?$allocator@U_Container_proxy@std@@@std@@@std@@YAXAEAV?$allocator@U_Container_proxy@std@@@0@QEAU_Container_proxy@0@@Z 0000000140000000     landscape.obj
 0003:fff88000       $unwind$??$_Destroy_in_place@PEAD@std@@YAXAEAPEAD@Z 0000000140000000     landscape.obj
 0003:fff88000       $unwind$??$_Get_size_of_n@$00@std@@YA_K_K@Z 0000000140000000     landscape.obj
 0003:fff88000       $unwind$??$_Get_size_of_n@$0BA@@std@@YA_K_K@Z 0000000140000000     landscape.obj
 0003:fff88000       $unwind$??$_Reallocate_for@V<lambda_1>@?1??assign@?$basic_string@DU?$char_traits@D@std@@V?$allocator@D@2@@std@@QEAAAEAV34@QEBD_K@Z@PEBD@?$basic_string@DU?$char_traits@D@std@@V?$allocator@D@2@@std@@AEAAAEAV01@_KV<lambda_1>@?1??assign@01@QEAAAEAV01@QEBD0@Z@PEBD@Z 0000000140000000     landscape.obj
 0003:fff88000       $unwind$??$_Unfancy@D@std@@YAPEADPEAD@Z 0000000140000000     landscape.obj
 0003:fff88000       $unwind$??$_Unfancy@U_Container_proxy@std@@@std@@YAPEAU_Container_proxy@0@PEAU10@@Z 0000000140000000     landscape.obj
 0003:fff88000       $unwind$??$_Voidify_iter@PEAD@std@@YAPEAXPEAD@Z 0000000140000000     landscape.obj
 0003:fff88000       $unwind$??$_Voidify_iter@PEAPEAD@std@@YAPEAXPEAPEAD@Z 0000000140000000     landscape.obj
 0003:fff88000       $unwind$??$_Voidify_iter@PEAU_Container_proxy@std@@@std@@YAPEAXPEAU_Container_proxy@0@@Z 0000000140000000     landscape.obj
 0003:fff88000       $unwind$??$addressof@PEAD@std@@YAPEAPEADAEAPEAD@Z 0000000140000000     landscape.obj
 0003:fff88000       $unwind$??$addressof@U_Container_base12@std@@@std@@YAPEAU_Container_base12@0@AEAU10@@Z 0000000140000000     landscape.obj
 0003:fff88000       $unwind$??$addressof@U_Container_proxy@std@@@std@@YAPEAU_Container_proxy@0@AEAU10@@Z 0000000140000000     landscape.obj
 0003:fff88000       $unwind$??$construct_at@DAEBDX@std@@YAPEADQEADAEBD@Z 0000000140000000     landscape.obj
 0003:fff88000       $unwind$??$construct_at@PEADAEBQEADX@std@@YAPEAPEADQEAPEADAEBQEAD@Z 0000000140000000     landscape.obj
 0003:fff88000       $unwind$??$construct_at@U_Container_proxy@std@@PEAU_Container_base12@2@X@std@@YAPEAU_Container_proxy@0@QEAU10@$$QEAPEAU_Container_base12@0@@Z 0000000140000000     landscape.obj
 0003:fff88000       $unwind$??$forward@AEBD@std@@YAAEBDAEBD@Z 0000000140000000     landscape.obj
 0003:fff88000       $unwind$??$forward@AEBQEAD@std@@YAAEBQEADAEBQEAD@Z 0000000140000000     landscape.obj
 0003:fff88000       $unwind$??$forward@PEAU_Container_base12@std@@@std@@YA$$QEAPEAU_Container_base12@0@AEAPEAU10@@Z 0000000140000000     landscape.obj
 0003:fff88000       $unwind$??$max@_K@std@@YAAEB_KAEB_K0@Z 0000000140000000     landscape.obj
 0003:fff88000       $unwind$??$min@M@std@@YAAEBMAEBM0@Z 0000000140000000     landscape.obj
 0003:fff88000       $unwind$??$min@_K@std@@YAAEB_KAEB_K0@Z 0000000140000000     landscape.obj
 0003:fff88000       $unwind$??0?$_Container_proxy_ptr12@V?$allocator@U_Container_proxy@std@@@std@@@std@@QEAA@AEAV?$allocator@U_Container_proxy@std@@@1@AEAU_Container_base12@1@@Z 0000000140000000     landscape.obj
 0003:fff88000       $unwind$??0?$_String_val@U?$_Simple_types@D@std@@@std@@QEAA@XZ 0000000140000000     landscape.obj
 0003:fff88000       $unwind$??0?$allocator@D@std@@QEAA@XZ 0000000140000000     landscape.obj
 0003:fff88000       $unwind$??0?$basic_string@DU?$char_traits@D@std@@V?$allocator@D@2@@std@@QEAA@QEBD@Z 0000000140000000     landscape.obj
 0003:fff88000       $unwind$??0_Basic_container_proxy_ptr12@std@@IEAA@XZ 0000000140000000     landscape.obj
 0003:fff88000       $unwind$??0_Bxty@?$_String_val@U?$_Simple_types@D@std@@@std@@QEAA@XZ 0000000140000000     landscape.obj
 0003:fff88000       $unwind$??0_Container_base12@std@@QEAA@XZ 0000000140000000     landscape.obj
 0003:fff88000       $unwind$??0_Container_proxy@std@@QEAA@PEAU_Container_base12@1@@Z 0000000140000000     landscape.obj
 0003:fff88000       $unwind$??0bad_alloc@std@@AEAA@QEBD@Z 0000000140000000     landscape.obj
 0003:fff88000       $unwind$??0bad_alloc@std@@QEAA@AEBV01@@Z 0000000140000000     landscape.obj
 0003:fff88000       $unwind$??0bad_array_new_length@std@@QEAA@AEBV01@@Z 0000000140000000     landscape.obj
 0003:fff88000       $unwind$??0bad_array_new_length@std@@QEAA@XZ 0000000140000000     landscape.obj
 0003:fff88000       $unwind$??0exception@std@@QEAA@AEBV01@@Z 0000000140000000     landscape.obj
 0003:fff88000       $unwind$??0exception@std@@QEAA@QEBDH@Z 0000000140000000     landscape.obj
 0003:fff88000       $unwind$??1?$_Compressed_pair@V?$allocator@D@std@@V?$_String_val@U?$_Simple_types@D@std@@@2@$00@std@@QEAA@XZ 0000000140000000     landscape.obj
 0003:fff88000       $unwind$??1?$_Container_proxy_ptr12@V?$allocator@U_Container_proxy@std@@@std@@@std@@QEAA@XZ 0000000140000000     landscape.obj
 0003:fff88000       $unwind$??1?$_String_val@U?$_Simple_types@D@std@@@std@@QEAA@XZ 0000000140000000     landscape.obj
 0003:fff88000       $unwind$??1?$basic_string@DU?$char_traits@D@std@@V?$allocator@D@2@@std@@QEAA@XZ 0000000140000000     landscape.obj
 0003:fff88000       $unwind$??1_Bxty@?$_String_val@U?$_Simple_types@D@std@@@std@@QEAA@XZ 0000000140000000     landscape.obj
 0003:fff88000       $unwind$??1bad_alloc@std@@UEAA@XZ 0000000140000000     landscape.obj
 0003:fff88000       $unwind$??1bad_array_new_length@std@@UEAA@XZ 0000000140000000     landscape.obj
 0003:fff88000       $unwind$??1exception@std@@UEAA@XZ 0000000140000000     landscape.obj
 0003:fff88000       $unwind$??2@YAPEAX_KPEAX@Z 0000000140000000     landscape.obj
 0003:fff88000       $unwind$??R<lambda_1>@?1??assign@?$basic_string@DU?$char_traits@D@std@@V?$allocator@D@2@@std@@QEAAAEAV23@QEBD_K@Z@QEBA@QEAD10@Z 0000000140000000     landscape.obj
 0003:fff88000       $unwind$??_Gbad_alloc@std@@UEAAPEAXI@Z 0000000140000000     landscape.obj
 0003:fff88000       $unwind$??_Gbad_array_new_length@std@@UEAAPEAXI@Z 0000000140000000     landscape.obj
 0003:fff88000       $unwind$??_Gexception@std@@UEAAPEAXI@Z 0000000140000000     landscape.obj
 0003:fff88000       $unwind$??_H@YAXPEAX_K1P6APEAX0@Z@Z 0000000140000000     landscape.obj
 0003:fff88000       $unwind$?_Adjust_manually_vector_aligned@std@@YAXAEAPEAXAEA_K@Z 0000000140000000     landscape.obj
 0003:fff88000       $unwind$?_Allocate@_Default_allocate_traits@std@@SAPEAX_K@Z 0000000140000000     landscape.obj
 0003:fff88000       $unwind$?_Calculate_growth@?$basic_string@DU?$char_traits@D@std@@V?$allocator@D@2@@std@@AEBA_K_K@Z 0000000140000000     landscape.obj
 0003:fff88000       $unwind$?_Calculate_growth@?$basic_string@DU?$char_traits@D@std@@V?$allocator@D@2@@std@@CA_K_K00@Z 0000000140000000     landscape.obj
 0003:fff88000       $unwind$?_Get_first@?$_Compressed_pair@V?$allocator@D@std@@V?$_String_val@U?$_Simple_types@D@std@@@2@$00@std@@QEAAAEAV?$allocator@D@2@XZ 0000000140000000     landscape.obj
 0003:fff88000       $unwind$?_Get_first@?$_Compressed_pair@V?$allocator@D@std@@V?$_String_val@U?$_Simple_types@D@std@@@2@$00@std@@QEBAAEBV?$allocator@D@2@XZ 0000000140000000     landscape.obj
 0003:fff88000       $unwind$?_Getal@?$basic_string@DU?$char_traits@D@std@@V?$allocator@D@2@@std@@AEAAAEAV?$allocator@D@2@XZ 0000000140000000     landscape.obj
 0003:fff88000       $unwind$?_Getal@?$basic_string@DU?$char_traits@D@std@@V?$allocator@D@2@@std@@AEBAAEBV?$allocator@D@2@XZ 0000000140000000     landscape.obj
 0003:fff88000       $unwind$?_Large_string_engaged@?$_String_val@U?$_Simple_types@D@std@@@std@@QEBA_NXZ 0000000140000000     landscape.obj
 0003:fff88000       $unwind$?_Myptr@?$_String_val@U?$_Simple_types@D@std@@@std@@QEAAPEADXZ 0000000140000000     landscape.obj
 0003:fff88000       $unwind$?_Orphan_all@_Container_base12@std@@QEAAXXZ 0000000140000000     landscape.obj
 0003:fff88000       $unwind$?_Orphan_all_locked_v3@_Container_base12@std@@AEAAXXZ 0000000140000000     landscape.obj
 0003:fff88000       $unwind$?_Orphan_all_unlocked_v3@_Container_base12@std@@AEAAXXZ 0000000140000000     landscape.obj
 0003:fff88000       $unwind$?_Release@_Basic_container_proxy_ptr12@std@@QEAAXXZ 0000000140000000     landscape.obj
 0003:fff88000       $unwind$?_Throw_bad_array_new_length@std@@YAXXZ 0000000140000000     landscape.obj
 0003:fff88000       $unwind$?_Tidy_deallocate@?$basic_string@DU?$char_traits@D@std@@V?$allocator@D@2@@std@@AEAAXXZ 0000000140000000     landscape.obj
 0003:fff88000       $unwind$?_Tidy_init@?$basic_string@DU?$char_traits@D@std@@V?$allocator@D@2@@std@@AEAAXXZ 0000000140000000     landscape.obj
 0003:fff88000       $unwind$?_Xlen_string@std@@YAXXZ 0000000140000000     landscape.obj
 0003:fff88000       $unwind$?allocate@?$allocator@D@std@@QEAAPEAD_K@Z 0000000140000000     landscape.obj
 0003:fff88000       $unwind$?allocate@?$allocator@U_Container_proxy@std@@@std@@QEAAPEAU_Container_proxy@2@_K@Z 0000000140000000     landscape.obj
 0003:fff88000       $unwind$?assign@?$_Char_traits@DH@std@@SAPEADQEAD_KD@Z 0000000140000000     landscape.obj
 0003:fff88000       $unwind$?assign@?$_Narrow_char_traits@DH@std@@SAPEADQEAD_KD@Z 0000000140000000     landscape.obj
 0003:fff88000       $unwind$?assign@?$_Narrow_char_traits@DH@std@@SAXAEADAEBD@Z 0000000140000000     landscape.obj
 0003:fff88000       $unwind$?assign@?$basic_string@DU?$char_traits@D@std@@V?$allocator@D@2@@std@@QEAAAEAV12@QEBD@Z 0000000140000000     landscape.obj
 0003:fff88000       $unwind$?assign@?$basic_string@DU?$char_traits@D@std@@V?$allocator@D@2@@std@@QEAAAEAV12@QEBD_K@Z 0000000140000000     landscape.obj
 0003:fff88000       $unwind$?copy@?$_Char_traits@DH@std@@SAPEADQEADQEBD_K@Z 0000000140000000     landscape.obj
 0003:fff88000       $unwind$?deallocate@?$_Default_allocator_traits@V?$allocator@U_Container_proxy@std@@@std@@@std@@SAXAEAV?$allocator@U_Container_proxy@std@@@2@QEAU_Container_proxy@2@_K@Z 0000000140000000     landscape.obj
 0003:fff88000       $unwind$?deallocate@?$allocator@D@std@@QEAAXQEAD_K@Z 0000000140000000     landscape.obj
 0003:fff88000       $unwind$?deallocate@?$allocator@U_Container_proxy@std@@@std@@QEAAXQEAU_Container_proxy@2@_K@Z 0000000140000000     landscape.obj
 0003:fff88000       $unwind$?dtor$0@?0???0?$basic_string@DU?$char_traits@D@std@@V?$allocator@D@2@@std@@QEAA@QEBD@Z@4HA 0000000140000000     landscape.obj
 0003:fff88000       $unwind$?dtor$1@?0???0?$basic_string@DU?$char_traits@D@std@@V?$allocator@D@2@@std@@QEAA@QEBD@Z@4HA 0000000140000000     landscape.obj
 0003:fff88000       $unwind$?is_constant_evaluated@std@@YA_NXZ 0000000140000000     landscape.obj
 0003:fff88000       $unwind$?length@?$_Narrow_char_traits@DH@std@@SA_KQEBD@Z 0000000140000000     landscape.obj
 0003:fff88000       $unwind$?max@?$numeric_limits@_J@std@@SA_JXZ 0000000140000000     landscape.obj
 0003:fff88000       $unwind$?max_size@?$_Default_allocator_traits@V?$allocator@D@std@@@std@@SA_KAEBV?$allocator@D@2@@Z 0000000140000000     landscape.obj
 0003:fff88000       $unwind$?max_size@?$basic_string@DU?$char_traits@D@std@@V?$allocator@D@2@@std@@QEBA_KXZ 0000000140000000     landscape.obj
 0003:fff88000       $unwind$?move@?$_Char_traits@DH@std@@SAPEADQEADQEBD_K@Z 0000000140000000     landscape.obj
 0003:fff88000       $unwind$?what@exception@std@@UEBAPEBDXZ 0000000140000000     landscape.obj
 0003:fff88000       $unwind$fabsf              0000000140000000     landscape.obj
 0003:fff88000       ??$_Reallocate_for@V<lambda_1>@?1??assign@?$basic_string@DU?$char_traits@D@std@@V?$allocator@D@2@@std@@QEAAAEAV34@QEBD_K@Z@PEBD@?$basic_string@DU?$char_traits@D@std@@V?$allocator@D@2@@std@@AEAAAEAV01@_KV<lambda_1>@?1??assign@01@QEAAAEAV01@QEBD0@Z@PEBD@Z$rtcName$0 0000000140000000     landscape.obj
 0003:fff88000       ??0?$basic_string@DU?$char_traits@D@std@@V?$allocator@D@2@@std@@QEAA@QEBD@Z$rtcName$0 0000000140000000     landscape.obj
 0003:fff88000       ??1?$basic_string@DU?$char_traits@D@std@@V?$allocator@D@2@@std@@QEAA@XZ$rtcName$0 0000000140000000     landscape.obj
 0003:fff88000       ?_Calculate_growth@?$basic_string@DU?$char_traits@D@std@@V?$allocator@D@2@@std@@CA_K_K00@Z$rtcName$0 0000000140000000     landscape.obj
 0003:fff88000       ?_Orphan_all_locked_v3@_Container_base12@std@@AEAAXXZ$rtcName$0 0000000140000000     landscape.obj
 0002:fffda000       ?dtor$0@?0???0?$basic_string@DU?$char_traits@D@std@@V?$allocator@D@2@@std@@QEAA@QEBD@Z@4HA 0000000140000000 f   landscape.obj
 0002:fffda000       ?dtor$1@?0???0?$basic_string@DU?$char_traits@D@std@@V?$allocator@D@2@@std@@QEAA@QEBD@Z@4HA 0000000140000000 f   landscape.obj
 0003:fff88000       ?max_size@?$basic_string@DU?$char_traits@D@std@@V?$allocator@D@2@@std@@QEBA_KXZ$rtcName$0 0000000140000000     landscape.obj
 0000:fff56000       _volmd                     0000000140000000     landscape.obj
 0000:fff56000       _volmd                     0000000140000000     landscape.obj
 0000:fff56000       _volmd                     0000000140000000     landscape.obj
 0000:fff56000       _volmd                     0000000140000000     landscape.obj
 0000:fff56000       _volmd                     0000000140000000     landscape.obj
 0003:fff88000       $unwind$??_H@YAXPEAX_K1P6APEAX0@Z@Z 0000000140000000     lens.obj
 0003:fff88000       $cppxdata$??$_Deallocate@$0BA@$0A@@std@@YAXPEAX_K@Z 0000000140000000     main.obj
 0003:fff88000       $cppxdata$??$_Deallocate_plain@V?$allocator@U_Container_proxy@std@@@std@@@std@@YAXAEAV?$allocator@U_Container_proxy@std@@@0@QEAU_Container_proxy@0@@Z 0000000140000000     main.obj
 0003:fff88000       $cppxdata$??0?$basic_string@DU?$char_traits@D@std@@V?$allocator@D@2@@std@@QEAA@QEBD@Z 0000000140000000     main.obj
 0003:fff88000       $cppxdata$?_Tidy_deallocate@?$basic_string@DU?$char_traits@D@std@@V?$allocator@D@2@@std@@AEAAXXZ 0000000140000000     main.obj
 0003:fff88000       $cppxdata$?_Tidy_init@?$basic_string@DU?$char_traits@D@std@@V?$allocator@D@2@@std@@AEAAXXZ 0000000140000000     main.obj
 0003:fff88000       $ip2state$??$_Deallocate@$0BA@$0A@@std@@YAXPEAX_K@Z 0000000140000000     main.obj
 0003:fff88000       $ip2state$??$_Deallocate_plain@V?$allocator@U_Container_proxy@std@@@std@@@std@@YAXAEAV?$allocator@U_Container_proxy@std@@@0@QEAU_Container_proxy@0@@Z 0000000140000000     main.obj
 0003:fff88000       $ip2state$??0?$basic_string@DU?$char_traits@D@std@@V?$allocator@D@2@@std@@QEAA@QEBD@Z 0000000140000000     main.obj
 0003:fff88000       $ip2state$?_Tidy_deallocate@?$basic_string@DU?$char_traits@D@std@@V?$allocator@D@2@@std@@AEAAXXZ 0000000140000000     main.obj
 0003:fff88000       $ip2state$?_Tidy_init@?$basic_string@DU?$char_traits@D@std@@V?$allocator@D@2@@std@@AEAAXXZ 0000000140000000     main.obj
 0003:fff88000       $stateUnwindMap$??0?$basic_string@DU?$char_traits@D@std@@V?$allocator@D@2@@std@@QEAA@QEBD@Z 0000000140000000     main.obj
 0003:fff88000       $unwind$??$?0$$V@?$_Compressed_pair@V?$allocator@D@std@@V?$_String_val@U?$_Simple_types@D@std@@@2@$00@std@@QEAA@U_Zero_then_variadic_args_t@1@@Z 0000000140000000     main.obj
 0003:fff88000       $unwind$??$?0D@?$allocator@U_Container_proxy@std@@@std@@QEAA@AEBV?$allocator@D@1@@Z 0000000140000000     main.obj
 0003:fff88000       $unwind$??$?0V?$allocator@D@std@@$$V@?$_Compressed_pair@V?$allocator@D@std@@V?$_String_val@U?$_Simple_types@D@std@@@2@$00@std@@QEAA@U_One_then_variadic_args_t@1@$$QEAV?$allocator@D@1@@Z 0000000140000000     main.obj
 0003:fff88000       $unwind$??$_Alloc_proxy@V?$allocator@U_Container_proxy@std@@@std@@@_Container_base12@std@@QEAAX$$QEAV?$allocator@U_Container_proxy@std@@@1@@Z 0000000140000000     main.obj
 0003:fff88000       $unwind$??$_Allocate@$0BA@U_Default_allocate_traits@std@@$0A@@std@@YAPEAX_K@Z 0000000140000000     main.obj
 0003:fff88000       $unwind$??$_Allocate_manually_vector_aligned@U_Default_allocate_traits@std@@@std@@YAPEAX_K@Z 0000000140000000     main.obj
 0003:fff88000       $unwind$??$_Construct_in_place@PEADAEBQEAD@std@@YAXAEAPEADAEBQEAD@Z 0000000140000000     main.obj
 0003:fff88000       $unwind$??$_Construct_in_place@U_Container_proxy@std@@PEAU_Container_base12@2@@std@@YAXAEAU_Container_proxy@0@$$QEAPEAU_Container_base12@0@@Z 0000000140000000     main.obj
 0003:fff88000       $unwind$??$_Convert_size@_K@std@@YA_K_K@Z 0000000140000000     main.obj
 0003:fff88000       $unwind$??$_Deallocate@$0BA@$0A@@std@@YAXPEAX_K@Z 0000000140000000     main.obj
 0003:fff88000       $unwind$??$_Deallocate_plain@V?$allocator@U_Container_proxy@std@@@std@@@std@@YAXAEAV?$allocator@U_Container_proxy@std@@@0@QEAU_Container_proxy@0@@Z 0000000140000000     main.obj
 0003:fff88000       $unwind$??$_Delete_plain_internal@V?$allocator@U_Container_proxy@std@@@std@@@std@@YAXAEAV?$allocator@U_Container_proxy@std@@@0@QEAU_Container_proxy@0@@Z 0000000140000000     main.obj
 0003:fff88000       $unwind$??$_Destroy_in_place@PEAD@std@@YAXAEAPEAD@Z 0000000140000000     main.obj
 0003:fff88000       $unwind$??$_Get_size_of_n@$00@std@@YA_K_K@Z 0000000140000000     main.obj
 0003:fff88000       $unwind$??$_Get_size_of_n@$0BA@@std@@YA_K_K@Z 0000000140000000     main.obj
 0003:fff88000       $unwind$??$_Reallocate_for@V<lambda_1>@?1??assign@?$basic_string@DU?$char_traits@D@std@@V?$allocator@D@2@@std@@QEAAAEAV34@QEBD_K@Z@PEBD@?$basic_string@DU?$char_traits@D@std@@V?$allocator@D@2@@std@@AEAAAEAV01@_KV<lambda_1>@?1??assign@01@QEAAAEAV01@QEBD0@Z@PEBD@Z 0000000140000000     main.obj
 0003:fff88000       $unwind$??$_Unfancy@D@std@@YAPEADPEAD@Z 0000000140000000     main.obj
 0003:fff88000       $unwind$??$_Unfancy@U_Container_proxy@std@@@std@@YAPEAU_Container_proxy@0@PEAU10@@Z 0000000140000000     main.obj
 0003:fff88000       $unwind$??$_Voidify_iter@PEAD@std@@YAPEAXPEAD@Z 0000000140000000     main.obj
 0003:fff88000       $unwind$??$_Voidify_iter@PEAPEAD@std@@YAPEAXPEAPEAD@Z 0000000140000000     main.obj
 0003:fff88000       $unwind$??$_Voidify_iter@PEAU_Container_proxy@std@@@std@@YAPEAXPEAU_Container_proxy@0@@Z 0000000140000000     main.obj
 0003:fff88000       $unwind$??$addressof@PEAD@std@@YAPEAPEADAEAPEAD@Z 0000000140000000     main.obj
 0003:fff88000       $unwind$??$addressof@U_Container_base12@std@@@std@@YAPEAU_Container_base12@0@AEAU10@@Z 0000000140000000     main.obj
 0003:fff88000       $unwind$??$addressof@U_Container_proxy@std@@@std@@YAPEAU_Container_proxy@0@AEAU10@@Z 0000000140000000     main.obj
 0003:fff88000       $unwind$??$construct_at@DAEBDX@std@@YAPEADQEADAEBD@Z 0000000140000000     main.obj
 0003:fff88000       $unwind$??$construct_at@PEADAEBQEADX@std@@YAPEAPEADQEAPEADAEBQEAD@Z 0000000140000000     main.obj
 0003:fff88000       $unwind$??$construct_at@U_Container_proxy@std@@PEAU_Container_base12@2@X@std@@YAPEAU_Container_proxy@0@QEAU10@$$QEAPEAU_Container_base12@0@@Z 0000000140000000     main.obj
 0003:fff88000       $unwind$??$forward@AEBD@std@@YAAEBDAEBD@Z 0000000140000000     main.obj
 0003:fff88000       $unwind$??$forward@AEBQEAD@std@@YAAEBQEADAEBQEAD@Z 0000000140000000     main.obj
 0003:fff88000       $unwind$??$forward@PEAU_Container_base12@std@@@std@@YA$$QEAPEAU_Container_base12@0@AEAPEAU10@@Z 0000000140000000     main.obj
 0003:fff88000       $unwind$??$forward@V?$allocator@D@std@@@std@@YA$$QEAV?$allocator@D@0@AEAV10@@Z 0000000140000000     main.obj
 0003:fff88000       $unwind$??$max@_K@std@@YAAEB_KAEB_K0@Z 0000000140000000     main.obj
 0003:fff88000       $unwind$??$min@_K@std@@YAAEB_KAEB_K0@Z 0000000140000000     main.obj
 0003:fff88000       $unwind$??0?$_Container_proxy_ptr12@V?$allocator@U_Container_proxy@std@@@std@@@std@@QEAA@AEAV?$allocator@U_Container_proxy@std@@@1@AEAU_Container_base12@1@@Z 0000000140000000     main.obj
 0003:fff88000       $unwind$??0?$_String_val@U?$_Simple_types@D@std@@@std@@QEAA@XZ 0000000140000000     main.obj
 0003:fff88000       $unwind$??0?$allocator@D@std@@QEAA@XZ 0000000140000000     main.obj
 0003:fff88000       $unwind$??0?$basic_string@DU?$char_traits@D@std@@V?$allocator@D@2@@std@@QEAA@QEBD@Z 0000000140000000     main.obj
 0003:fff88000       $unwind$??0_Basic_container_proxy_ptr12@std@@IEAA@XZ 0000000140000000     main.obj
 0003:fff88000       $unwind$??0_Bxty@?$_String_val@U?$_Simple_types@D@std@@@std@@QEAA@XZ 0000000140000000     main.obj
 0003:fff88000       $unwind$??0_Container_base12@std@@QEAA@XZ 0000000140000000     main.obj
 0003:fff88000       $unwind$??0_Container_proxy@std@@QEAA@PEAU_Container_base12@1@@Z 0000000140000000     main.obj
 0003:fff88000       $unwind$??0bad_alloc@std@@AEAA@QEBD@Z 0000000140000000     main.obj
 0003:fff88000       $unwind$??0bad_alloc@std@@QEAA@AEBV01@@Z 0000000140000000     main.obj
 0003:fff88000       $unwind$??0bad_array_new_length@std@@QEAA@AEBV01@@Z 0000000140000000     main.obj
 0003:fff88000       $unwind$??0bad_array_new_length@std@@QEAA@XZ 0000000140000000     main.obj
 0003:fff88000       $unwind$??0exception@std@@QEAA@AEBV01@@Z 0000000140000000     main.obj
 0003:fff88000       $unwind$??0exception@std@@QEAA@QEBDH@Z 0000000140000000     main.obj
 0003:fff88000       $unwind$??1?$_Compressed_pair@V?$allocator@D@std@@V?$_String_val@U?$_Simple_types@D@std@@@2@$00@std@@QEAA@XZ 0000000140000000     main.obj
 0003:fff88000       $unwind$??1?$_Container_proxy_ptr12@V?$allocator@U_Container_proxy@std@@@std@@@std@@QEAA@XZ 0000000140000000     main.obj
 0003:fff88000       $unwind$??1?$_String_val@U?$_Simple_types@D@std@@@std@@QEAA@XZ 0000000140000000     main.obj
 0003:fff88000       $unwind$??1?$basic_string@DU?$char_traits@D@std@@V?$allocator@D@2@@std@@QEAA@XZ 0000000140000000     main.obj
 0003:fff88000       $unwind$??1_Bxty@?$_String_val@U?$_Simple_types@D@std@@@std@@QEAA@XZ 0000000140000000     main.obj
 0003:fff88000       $unwind$??1bad_alloc@std@@UEAA@XZ 0000000140000000     main.obj
 0003:fff88000       $unwind$??1bad_array_new_length@std@@UEAA@XZ 0000000140000000     main.obj
 0003:fff88000       $unwind$??1exception@std@@UEAA@XZ 0000000140000000     main.obj
 0003:fff88000       $unwind$??2@YAPEAX_KPEAX@Z 0000000140000000     main.obj
 0003:fff88000       $unwind$??R<lambda_1>@?1??assign@?$basic_string@DU?$char_traits@D@std@@V?$allocator@D@2@@std@@QEAAAEAV23@QEBD_K@Z@QEBA@QEAD10@Z 0000000140000000     main.obj
 0003:fff88000       $unwind$??_Gbad_alloc@std@@UEAAPEAXI@Z 0000000140000000     main.obj
 0003:fff88000       $unwind$??_Gbad_array_new_length@std@@UEAAPEAXI@Z 0000000140000000     main.obj
 0003:fff88000       $unwind$??_Gexception@std@@UEAAPEAXI@Z 0000000140000000     main.obj
 0003:fff88000       $unwind$??_H@YAXPEAX_K1P6APEAX0@Z@Z 0000000140000000     main.obj
 0003:fff88000       $unwind$?_Adjust_manually_vector_aligned@std@@YAXAEAPEAXAEA_K@Z 0000000140000000     main.obj
 0003:fff88000       $unwind$?_Allocate@_Default_allocate_traits@std@@SAPEAX_K@Z 0000000140000000     main.obj
 0003:fff88000       $unwind$?_Calculate_growth@?$basic_string@DU?$char_traits@D@std@@V?$allocator@D@2@@std@@AEBA_K_K@Z 0000000140000000     main.obj
 0003:fff88000       $unwind$?_Calculate_growth@?$basic_string@DU?$char_traits@D@std@@V?$allocator@D@2@@std@@CA_K_K00@Z 0000000140000000     main.obj
 0003:fff88000       $unwind$?_Get_first@?$_Compressed_pair@V?$allocator@D@std@@V?$_String_val@U?$_Simple_types@D@std@@@2@$00@std@@QEAAAEAV?$allocator@D@2@XZ 0000000140000000     main.obj
 0003:fff88000       $unwind$?_Get_first@?$_Compressed_pair@V?$allocator@D@std@@V?$_String_val@U?$_Simple_types@D@std@@@2@$00@std@@QEBAAEBV?$allocator@D@2@XZ 0000000140000000     main.obj
 0003:fff88000       $unwind$?_Getal@?$basic_string@DU?$char_traits@D@std@@V?$allocator@D@2@@std@@AEAAAEAV?$allocator@D@2@XZ 0000000140000000     main.obj
 0003:fff88000       $unwind$?_Getal@?$basic_string@DU?$char_traits@D@std@@V?$allocator@D@2@@std@@AEBAAEBV?$allocator@D@2@XZ 0000000140000000     main.obj
 0003:fff88000       $unwind$?_Large_string_engaged@?$_String_val@U?$_Simple_types@D@std@@@std@@QEBA_NXZ 0000000140000000     main.obj
 0003:fff88000       $unwind$?_Myptr@?$_String_val@U?$_Simple_types@D@std@@@std@@QEAAPEADXZ 0000000140000000     main.obj
 0003:fff88000       $unwind$?_Myptr@?$_String_val@U?$_Simple_types@D@std@@@std@@QEBAPEBDXZ 0000000140000000     main.obj
 0003:fff88000       $unwind$?_Orphan_all@_Container_base12@std@@QEAAXXZ 0000000140000000     main.obj
 0003:fff88000       $unwind$?_Orphan_all_locked_v3@_Container_base12@std@@AEAAXXZ 0000000140000000     main.obj
 0003:fff88000       $unwind$?_Orphan_all_unlocked_v3@_Container_base12@std@@AEAAXXZ 0000000140000000     main.obj
 0003:fff88000       $unwind$?_Release@_Basic_container_proxy_ptr12@std@@QEAAXXZ 0000000140000000     main.obj
 0003:fff88000       $unwind$?_Throw_bad_array_new_length@std@@YAXXZ 0000000140000000     main.obj
 0003:fff88000       $unwind$?_Tidy_deallocate@?$basic_string@DU?$char_traits@D@std@@V?$allocator@D@2@@std@@AEAAXXZ 0000000140000000     main.obj
 0003:fff88000       $unwind$?_Tidy_init@?$basic_string@DU?$char_traits@D@std@@V?$allocator@D@2@@std@@AEAAXXZ 0000000140000000     main.obj
 0003:fff88000       $unwind$?_Xlen_string@std@@YAXXZ 0000000140000000     main.obj
 0003:fff88000       $unwind$?allocate@?$allocator@D@std@@QEAAPEAD_K@Z 0000000140000000     main.obj
 0003:fff88000       $unwind$?allocate@?$allocator@U_Container_proxy@std@@@std@@QEAAPEAU_Container_proxy@2@_K@Z 0000000140000000     main.obj
 0003:fff88000       $unwind$?assign@?$_Char_traits@DH@std@@SAPEADQEAD_KD@Z 0000000140000000     main.obj
 0003:fff88000       $unwind$?assign@?$_Narrow_char_traits@DH@std@@SAPEADQEAD_KD@Z 0000000140000000     main.obj
 0003:fff88000       $unwind$?assign@?$_Narrow_char_traits@DH@std@@SAXAEADAEBD@Z 0000000140000000     main.obj
 0003:fff88000       $unwind$?assign@?$basic_string@DU?$char_traits@D@std@@V?$allocator@D@2@@std@@QEAAAEAV12@QEBD@Z 0000000140000000     main.obj
 0003:fff88000       $unwind$?assign@?$basic_string@DU?$char_traits@D@std@@V?$allocator@D@2@@std@@QEAAAEAV12@QEBD_K@Z 0000000140000000     main.obj
 0003:fff88000       $unwind$?c_str@?$basic_string@DU?$char_traits@D@std@@V?$allocator@D@2@@std@@QEBAPEBDXZ 0000000140000000     main.obj
 0003:fff88000       $unwind$?copy@?$_Char_traits@DH@std@@SAPEADQEADQEBD_K@Z 0000000140000000     main.obj
 0003:fff88000       $unwind$?deallocate@?$_Default_allocator_traits@V?$allocator@U_Container_proxy@std@@@std@@@std@@SAXAEAV?$allocator@U_Container_proxy@std@@@2@QEAU_Container_proxy@2@_K@Z 0000000140000000     main.obj
 0003:fff88000       $unwind$?deallocate@?$allocator@D@std@@QEAAXQEAD_K@Z 0000000140000000     main.obj
 0003:fff88000       $unwind$?deallocate@?$allocator@U_Container_proxy@std@@@std@@QEAAXQEAU_Container_proxy@2@_K@Z 0000000140000000     main.obj
 0003:fff88000       $unwind$?dtor$0@?0???0?$basic_string@DU?$char_traits@D@std@@V?$allocator@D@2@@std@@QEAA@QEBD@Z@4HA 0000000140000000     main.obj
 0003:fff88000       $unwind$?dtor$1@?0???0?$basic_string@DU?$char_traits@D@std@@V?$allocator@D@2@@std@@QEAA@QEBD@Z@4HA 0000000140000000     main.obj
 0003:fff88000       $unwind$?freeAligned@@YAXPEAX@Z 0000000140000000     main.obj
 0003:fff88000       $unwind$?is_constant_evaluated@std@@YA_NXZ 0000000140000000     main.obj
 0003:fff88000       $unwind$?length@?$_Narrow_char_traits@DH@std@@SA_KQEBD@Z 0000000140000000     main.obj
 0003:fff88000       $unwind$?mallocAligned@@YAPEAX_K0@Z 0000000140000000     main.obj
 0003:fff88000       $unwind$?max@?$numeric_limits@_J@std@@SA_JXZ 0000000140000000     main.obj
 0003:fff88000       $unwind$?max_size@?$_Default_allocator_traits@V?$allocator@D@std@@@std@@SA_KAEBV?$allocator@D@2@@Z 0000000140000000     main.obj
 0003:fff88000       $unwind$?max_size@?$basic_string@DU?$char_traits@D@std@@V?$allocator@D@2@@std@@QEBA_KXZ 0000000140000000     main.obj
 0003:fff88000       $unwind$?move@?$_Char_traits@DH@std@@SAPEADQEADQEBD_K@Z 0000000140000000     main.obj
 0003:fff88000       $unwind$?select_on_container_copy_construction@?$_Default_allocator_traits@V?$allocator@D@std@@@std@@SA?AV?$allocator@D@2@AEBV32@@Z 0000000140000000     main.obj
 0003:fff88000       $unwind$?size@?$basic_string@DU?$char_traits@D@std@@V?$allocator@D@2@@std@@QEBA_KXZ 0000000140000000     main.obj
 0003:fff88000       $unwind$?what@exception@std@@UEBAPEBDXZ 0000000140000000     main.obj
 0003:fff88000       $unwind$__local_stdio_printf_options 0000000140000000     main.obj
 0003:fff88000       $unwind$snprintf           0000000140000000     main.obj
 0003:fff88000       $unwind$vsnprintf          0000000140000000     main.obj
 0003:fff88000       ??$_Reallocate_for@V<lambda_1>@?1??assign@?$basic_string@DU?$char_traits@D@std@@V?$allocator@D@2@@std@@QEAAAEAV34@QEBD_K@Z@PEBD@?$basic_string@DU?$char_traits@D@std@@V?$allocator@D@2@@std@@AEAAAEAV01@_KV<lambda_1>@?1??assign@01@QEAAAEAV01@QEBD0@Z@PEBD@Z$rtcName$0 0000000140000000     main.obj
 0003:fff88000       ??0?$basic_string@DU?$char_traits@D@std@@V?$allocator@D@2@@std@@QEAA@QEBD@Z$rtcName$0 0000000140000000     main.obj
 0003:fff88000       ??1?$basic_string@DU?$char_traits@D@std@@V?$allocator@D@2@@std@@QEAA@XZ$rtcName$0 0000000140000000     main.obj
 0003:fff88000       ?_Calculate_growth@?$basic_string@DU?$char_traits@D@std@@V?$allocator@D@2@@std@@CA_K_K00@Z$rtcName$0 0000000140000000     main.obj
 0003:fff88000       ?_Orphan_all_locked_v3@_Container_base12@std@@AEAAXXZ$rtcName$0 0000000140000000     main.obj
 0002:fffda000       ?dtor$0@?0???0?$basic_string@DU?$char_traits@D@std@@V?$allocator@D@2@@std@@QEAA@QEBD@Z@4HA 0000000140000000 f   main.obj
 0002:fffda000       ?dtor$1@?0???0?$basic_string@DU?$char_traits@D@std@@V?$allocator@D@2@@std@@QEAA@QEBD@Z@4HA 0000000140000000 f   main.obj
 0003:fff88000       ?max_size@?$basic_string@DU?$char_traits@D@std@@V?$allocator@D@2@@std@@QEBA_KXZ$rtcName$0 0000000140000000     main.obj
 0000:fff56000       _volmd                     0000000140000000     main.obj
 0000:fff56000       _volmd                     0000000140000000     main.obj
 0000:fff56000       _volmd                     0000000140000000     main.obj
 0000:fff56000       _volmd                     0000000140000000     main.obj
 0000:fff56000       _volmd                     0000000140000000     main.obj
 0000:fff56000       _volmd                     0000000140000000     main.obj
 0000:fff56000       _volmd                     0000000140000000     main.obj
 0000:fff56000       _volmd                     0000000140000000     main.obj
 0000:fff56000       _volmd                     0000000140000000     main.obj
 0000:fff56000       _volmd                     0000000140000000     main.obj
 0000:fff56000       _volmd                     0000000140000000     main.obj
 0000:fff56000       _volmd                     0000000140000000     main.obj
 0000:fff56000       _volmd                     0000000140000000     main.obj
 0000:fff56000       _volmd                     0000000140000000     main.obj
 0000:fff56000       _volmd                     0000000140000000     main.obj
 0000:fff56000       _volmd                     0000000140000000     main.obj
 0000:fff56000       _volmd                     0000000140000000     main.obj
 0000:fff56000       _volmd                     0000000140000000     main.obj
 0000:fff56000       _volmd                     0000000140000000     main.obj
 0000:fff56000       _volmd                     0000000140000000     main.obj
 0000:fff56000       _volmd                     0000000140000000     main.obj
 0000:fff56000       _volmd                     0000000140000000     main.obj
 0000:fff56000       _volmd                     0000000140000000     main.obj
 0000:fff56000       _volmd                     0000000140000000     main.obj
 0000:fff56000       _volmd                     0000000140000000     main.obj
 0000:fff56000       _volmd                     0000000140000000     main.obj
 0003:fff88000       snprintf$rtcName$0         0000000140000000     main.obj
 0003:fff88000       $unwind$??_H@YAXPEAX_K1P6APEAX0@Z@Z 0000000140000000     polar.obj
 0003:fff88000       $unwind$?freeAligned@@YAXPEAX@Z 0000000140000000     polar.obj
 0003:fff88000       $unwind$?mallocAligned@@YAPEAX_K0@Z 0000000140000000     polar.obj
 0003:fff88000       $cppxdata$??$_Deallocate@$0BA@$0A@@std@@YAXPEAX_K@Z 0000000140000000     rocket.obj
 0003:fff88000       $cppxdata$??$_Deallocate_plain@V?$allocator@U_Container_proxy@std@@@std@@@std@@YAXAEAV?$allocator@U_Container_proxy@std@@@0@QEAU_Container_proxy@0@@Z 0000000140000000     rocket.obj
 0003:fff88000       $cppxdata$??0?$basic_string@DU?$char_traits@D@std@@V?$allocator@D@2@@std@@QEAA@QEBD@Z 0000000140000000     rocket.obj
 0003:fff88000       $cppxdata$?_Tidy_deallocate@?$basic_string@DU?$char_traits@D@std@@V?$allocator@D@2@@std@@AEAAXXZ 0000000140000000     rocket.obj
 0003:fff88000       $cppxdata$?_Tidy_init@?$basic_string@DU?$char_traits@D@std@@V?$allocator@D@2@@std@@AEAAXXZ 0000000140000000     rocket.obj
 0003:fff88000       $ip2state$??$_Deallocate@$0BA@$0A@@std@@YAXPEAX_K@Z 0000000140000000     rocket.obj
 0003:fff88000       $ip2state$??$_Deallocate_plain@V?$allocator@U_Container_proxy@std@@@std@@@std@@YAXAEAV?$allocator@U_Container_proxy@std@@@0@QEAU_Container_proxy@0@@Z 0000000140000000     rocket.obj
 0003:fff88000       $ip2state$??0?$basic_string@DU?$char_traits@D@std@@V?$allocator@D@2@@std@@QEAA@QEBD@Z 0000000140000000     rocket.obj
 0003:fff88000       $ip2state$?_Tidy_deallocate@?$basic_string@DU?$char_traits@D@std@@V?$allocator@D@2@@std@@AEAAXXZ 0000000140000000     rocket.obj
 0003:fff88000       $ip2state$?_Tidy_init@?$basic_string@DU?$char_traits@D@std@@V?$allocator@D@2@@std@@AEAAXXZ 0000000140000000     rocket.obj
 0003:fff88000       $stateUnwindMap$??0?$basic_string@DU?$char_traits@D@std@@V?$allocator@D@2@@std@@QEAA@QEBD@Z 0000000140000000     rocket.obj
 0003:fff88000       $unwind$??$?0$$V@?$_Compressed_pair@V?$allocator@D@std@@V?$_String_val@U?$_Simple_types@D@std@@@2@$00@std@@QEAA@U_Zero_then_variadic_args_t@1@@Z 0000000140000000     rocket.obj
 0003:fff88000       $unwind$??$?0D@?$allocator@U_Container_proxy@std@@@std@@QEAA@AEBV?$allocator@D@1@@Z 0000000140000000     rocket.obj
 0003:fff88000       $unwind$??$_Allocate@$0BA@U_Default_allocate_traits@std@@$0A@@std@@YAPEAX_K@Z 0000000140000000     rocket.obj
 0003:fff88000       $unwind$??$_Allocate_manually_vector_aligned@U_Default_allocate_traits@std@@@std@@YAPEAX_K@Z 0000000140000000     rocket.obj
 0003:fff88000       $unwind$??$_Construct_in_place@PEADAEBQEAD@std@@YAXAEAPEADAEBQEAD@Z 0000000140000000     rocket.obj
 0003:fff88000       $unwind$??$_Construct_in_place@U_Container_proxy@std@@PEAU_Container_base12@2@@std@@YAXAEAU_Container_proxy@0@$$QEAPEAU_Container_base12@0@@Z 0000000140000000     rocket.obj
 0003:fff88000       $unwind$??$_Convert_size@_K@std@@YA_K_K@Z 0000000140000000     rocket.obj
 0003:fff88000       $unwind$??$_Deallocate@$0BA@$0A@@std@@YAXPEAX_K@Z 0000000140000000     rocket.obj
 0003:fff88000       $unwind$??$_Deallocate_plain@V?$allocator@U_Container_proxy@std@@@std@@@std@@YAXAEAV?$allocator@U_Container_proxy@std@@@0@QEAU_Container_proxy@0@@Z 0000000140000000     rocket.obj
 0003:fff88000       $unwind$??$_Delete_plain_internal@V?$allocator@U_Container_proxy@std@@@std@@@std@@YAXAEAV?$allocator@U_Container_proxy@std@@@0@QEAU_Container_proxy@0@@Z 0000000140000000     rocket.obj
 0003:fff88000       $unwind$??$_Destroy_in_place@PEAD@std@@YAXAEAPEAD@Z 0000000140000000     rocket.obj
 0003:fff88000       $unwind$??$_Get_size_of_n@$00@std@@YA_K_K@Z 0000000140000000     rocket.obj
 0003:fff88000       $unwind$??$_Get_size_of_n@$0BA@@std@@YA_K_K@Z 0000000140000000     rocket.obj
 0003:fff88000       $unwind$??$_Reallocate_for@V<lambda_1>@?1??assign@?$basic_string@DU?$char_traits@D@std@@V?$allocator@D@2@@std@@QEAAAEAV34@QEBD_K@Z@PEBD@?$basic_string@DU?$char_traits@D@std@@V?$allocator@D@2@@std@@AEAAAEAV01@_KV<lambda_1>@?1??assign@01@QEAAAEAV01@QEBD0@Z@PEBD@Z 0000000140000000     rocket.obj
 0003:fff88000       $unwind$??$_Unfancy@D@std@@YAPEADPEAD@Z 0000000140000000     rocket.obj
 0003:fff88000       $unwind$??$_Unfancy@U_Container_proxy@std@@@std@@YAPEAU_Container_proxy@0@PEAU10@@Z 0000000140000000     rocket.obj
 0003:fff88000       $unwind$??$_Voidify_iter@PEAD@std@@YAPEAXPEAD@Z 0000000140000000     rocket.obj
 0003:fff88000       $unwind$??$_Voidify_iter@PEAPEAD@std@@YAPEAXPEAPEAD@Z 0000000140000000     rocket.obj
 0003:fff88000       $unwind$??$_Voidify_iter@PEAU_Container_proxy@std@@@std@@YAPEAXPEAU_Container_proxy@0@@Z 0000000140000000     rocket.obj
 0003:fff88000       $unwind$??$addressof@PEAD@std@@YAPEAPEADAEAPEAD@Z 0000000140000000     rocket.obj
 0003:fff88000       $unwind$??$addressof@U_Container_base12@std@@@std@@YAPEAU_Container_base12@0@AEAU10@@Z 0000000140000000     rocket.obj
 0003:fff88000       $unwind$??$addressof@U_Container_proxy@std@@@std@@YAPEAU_Container_proxy@0@AEAU10@@Z 0000000140000000     rocket.obj
 0003:fff88000       $unwind$??$construct_at@DAEBDX@std@@YAPEADQEADAEBD@Z 0000000140000000     rocket.obj
 0003:fff88000       $unwind$??$construct_at@PEADAEBQEADX@std@@YAPEAPEADQEAPEADAEBQEAD@Z 0000000140000000     rocket.obj
 0003:fff88000       $unwind$??$construct_at@U_Container_proxy@std@@PEAU_Container_base12@2@X@std@@YAPEAU_Container_proxy@0@QEAU10@$$QEAPEAU_Container_base12@0@@Z 0000000140000000     rocket.obj
 0003:fff88000       $unwind$??$forward@AEBD@std@@YAAEBDAEBD@Z 0000000140000000     rocket.obj
 0003:fff88000       $unwind$??$forward@AEBQEAD@std@@YAAEBQEADAEBQEAD@Z 0000000140000000     rocket.obj
 0003:fff88000       $unwind$??$forward@PEAU_Container_base12@std@@@std@@YA$$QEAPEAU_Container_base12@0@AEAPEAU10@@Z 0000000140000000     rocket.obj
 0003:fff88000       $unwind$??$max@_K@std@@YAAEB_KAEB_K0@Z 0000000140000000     rocket.obj
 0003:fff88000       $unwind$??$min@_K@std@@YAAEB_KAEB_K0@Z 0000000140000000     rocket.obj
 0003:fff88000       $unwind$??0?$_Container_proxy_ptr12@V?$allocator@U_Container_proxy@std@@@std@@@std@@QEAA@AEAV?$allocator@U_Container_proxy@std@@@1@AEAU_Container_base12@1@@Z 0000000140000000     rocket.obj
 0003:fff88000       $unwind$??0?$_String_val@U?$_Simple_types@D@std@@@std@@QEAA@XZ 0000000140000000     rocket.obj
 0003:fff88000       $unwind$??0?$allocator@D@std@@QEAA@XZ 0000000140000000     rocket.obj
 0003:fff88000       $unwind$??0?$basic_string@DU?$char_traits@D@std@@V?$allocator@D@2@@std@@QEAA@QEBD@Z 0000000140000000     rocket.obj
 0003:fff88000       $unwind$??0_Basic_container_proxy_ptr12@std@@IEAA@XZ 0000000140000000     rocket.obj
 0003:fff88000       $unwind$??0_Bxty@?$_String_val@U?$_Simple_types@D@std@@@std@@QEAA@XZ 0000000140000000     rocket.obj
 0003:fff88000       $unwind$??0_Container_base12@std@@QEAA@XZ 0000000140000000     rocket.obj
 0003:fff88000       $unwind$??0_Container_proxy@std@@QEAA@PEAU_Container_base12@1@@Z 0000000140000000     rocket.obj
 0003:fff88000       $unwind$??0bad_alloc@std@@AEAA@QEBD@Z 0000000140000000     rocket.obj
 0003:fff88000       $unwind$??0bad_alloc@std@@QEAA@AEBV01@@Z 0000000140000000     rocket.obj
 0003:fff88000       $unwind$??0bad_array_new_length@std@@QEAA@AEBV01@@Z 0000000140000000     rocket.obj
 0003:fff88000       $unwind$??0bad_array_new_length@std@@QEAA@XZ 0000000140000000     rocket.obj
 0003:fff88000       $unwind$??0exception@std@@QEAA@AEBV01@@Z 0000000140000000     rocket.obj
 0003:fff88000       $unwind$??0exception@std@@QEAA@QEBDH@Z 0000000140000000     rocket.obj
 0003:fff88000       $unwind$??1?$_Compressed_pair@V?$allocator@D@std@@V?$_String_val@U?$_Simple_types@D@std@@@2@$00@std@@QEAA@XZ 0000000140000000     rocket.obj
 0003:fff88000       $unwind$??1?$_Container_proxy_ptr12@V?$allocator@U_Container_proxy@std@@@std@@@std@@QEAA@XZ 0000000140000000     rocket.obj
 0003:fff88000       $unwind$??1?$_String_val@U?$_Simple_types@D@std@@@std@@QEAA@XZ 0000000140000000     rocket.obj
 0003:fff88000       $unwind$??1?$basic_string@DU?$char_traits@D@std@@V?$allocator@D@2@@std@@QEAA@XZ 0000000140000000     rocket.obj
 0003:fff88000       $unwind$??1_Bxty@?$_String_val@U?$_Simple_types@D@std@@@std@@QEAA@XZ 0000000140000000     rocket.obj
 0003:fff88000       $unwind$??1bad_alloc@std@@UEAA@XZ 0000000140000000     rocket.obj
 0003:fff88000       $unwind$??1bad_array_new_length@std@@UEAA@XZ 0000000140000000     rocket.obj
 0003:fff88000       $unwind$??1exception@std@@UEAA@XZ 0000000140000000     rocket.obj
 0003:fff88000       $unwind$??2@YAPEAX_KPEAX@Z 0000000140000000     rocket.obj
 0003:fff88000       $unwind$??R<lambda_1>@?1??assign@?$basic_string@DU?$char_traits@D@std@@V?$allocator@D@2@@std@@QEAAAEAV23@QEBD_K@Z@QEBA@QEAD10@Z 0000000140000000     rocket.obj
 0003:fff88000       $unwind$??_Gbad_alloc@std@@UEAAPEAXI@Z 0000000140000000     rocket.obj
 0003:fff88000       $unwind$??_Gbad_array_new_length@std@@UEAAPEAXI@Z 0000000140000000     rocket.obj
 0003:fff88000       $unwind$??_Gexception@std@@UEAAPEAXI@Z 0000000140000000     rocket.obj
 0003:fff88000       $unwind$??_H@YAXPEAX_K1P6APEAX0@Z@Z 0000000140000000     rocket.obj
 0003:fff88000       $unwind$?_Adjust_manually_vector_aligned@std@@YAXAEAPEAXAEA_K@Z 0000000140000000     rocket.obj
 0003:fff88000       $unwind$?_Allocate@_Default_allocate_traits@std@@SAPEAX_K@Z 0000000140000000     rocket.obj
 0003:fff88000       $unwind$?_Calculate_growth@?$basic_string@DU?$char_traits@D@std@@V?$allocator@D@2@@std@@AEBA_K_K@Z 0000000140000000     rocket.obj
 0003:fff88000       $unwind$?_Calculate_growth@?$basic_string@DU?$char_traits@D@std@@V?$allocator@D@2@@std@@CA_K_K00@Z 0000000140000000     rocket.obj
 0003:fff88000       $unwind$?_Get_first@?$_Compressed_pair@V?$allocator@D@std@@V?$_String_val@U?$_Simple_types@D@std@@@2@$00@std@@QEAAAEAV?$allocator@D@2@XZ 0000000140000000     rocket.obj
 0003:fff88000       $unwind$?_Get_first@?$_Compressed_pair@V?$allocator@D@std@@V?$_String_val@U?$_Simple_types@D@std@@@2@$00@std@@QEBAAEBV?$allocator@D@2@XZ 0000000140000000     rocket.obj
 0003:fff88000       $unwind$?_Getal@?$basic_string@DU?$char_traits@D@std@@V?$allocator@D@2@@std@@AEAAAEAV?$allocator@D@2@XZ 0000000140000000     rocket.obj
 0003:fff88000       $unwind$?_Getal@?$basic_string@DU?$char_traits@D@std@@V?$allocator@D@2@@std@@AEBAAEBV?$allocator@D@2@XZ 0000000140000000     rocket.obj
 0003:fff88000       $unwind$?_Large_string_engaged@?$_String_val@U?$_Simple_types@D@std@@@std@@QEBA_NXZ 0000000140000000     rocket.obj
 0003:fff88000       $unwind$?_Myptr@?$_String_val@U?$_Simple_types@D@std@@@std@@QEAAPEADXZ 0000000140000000     rocket.obj
 0003:fff88000       $unwind$?_Orphan_all@_Container_base12@std@@QEAAXXZ 0000000140000000     rocket.obj
 0003:fff88000       $unwind$?_Orphan_all_locked_v3@_Container_base12@std@@AEAAXXZ 0000000140000000     rocket.obj
 0003:fff88000       $unwind$?_Orphan_all_unlocked_v3@_Container_base12@std@@AEAAXXZ 0000000140000000     rocket.obj
 0003:fff88000       $unwind$?_Release@_Basic_container_proxy_ptr12@std@@QEAAXXZ 0000000140000000     rocket.obj
 0003:fff88000       $unwind$?_Throw_bad_array_new_length@std@@YAXXZ 0000000140000000     rocket.obj
 0003:fff88000       $unwind$?_Tidy_deallocate@?$basic_string@DU?$char_traits@D@std@@V?$allocator@D@2@@std@@AEAAXXZ 0000000140000000     rocket.obj
 0003:fff88000       $unwind$?_Tidy_init@?$basic_string@DU?$char_traits@D@std@@V?$allocator@D@2@@std@@AEAAXXZ 0000000140000000     rocket.obj
 0003:fff88000       $unwind$?_Xlen_string@std@@YAXXZ 0000000140000000     rocket.obj
 0003:fff88000       $unwind$?allocate@?$allocator@D@std@@QEAAPEAD_K@Z 0000000140000000     rocket.obj
 0003:fff88000       $unwind$?allocate@?$allocator@U_Container_proxy@std@@@std@@QEAAPEAU_Container_proxy@2@_K@Z 0000000140000000     rocket.obj
 0003:fff88000       $unwind$?assign@?$_Char_traits@DH@std@@SAPEADQEAD_KD@Z 0000000140000000     rocket.obj
 0003:fff88000       $unwind$?assign@?$_Narrow_char_traits@DH@std@@SAPEADQEAD_KD@Z 0000000140000000     rocket.obj
 0003:fff88000       $unwind$?assign@?$_Narrow_char_traits@DH@std@@SAXAEADAEBD@Z 0000000140000000     rocket.obj
 0003:fff88000       $unwind$?assign@?$basic_string@DU?$char_traits@D@std@@V?$allocator@D@2@@std@@QEAAAEAV12@QEBD@Z 0000000140000000     rocket.obj
 0003:fff88000       $unwind$?assign@?$basic_string@DU?$char_traits@D@std@@V?$allocator@D@2@@std@@QEAAAEAV12@QEBD_K@Z 0000000140000000     rocket.obj
 0003:fff88000       $unwind$?copy@?$_Char_traits@DH@std@@SAPEADQEADQEBD_K@Z 0000000140000000     rocket.obj
 0003:fff88000       $unwind$?deallocate@?$_Default_allocator_traits@V?$allocator@U_Container_proxy@std@@@std@@@std@@SAXAEAV?$allocator@U_Container_proxy@std@@@2@QEAU_Container_proxy@2@_K@Z 0000000140000000     rocket.obj
 0003:fff88000       $unwind$?deallocate@?$allocator@D@std@@QEAAXQEAD_K@Z 0000000140000000     rocket.obj
 0003:fff88000       $unwind$?deallocate@?$allocator@U_Container_proxy@std@@@std@@QEAAXQEAU_Container_proxy@2@_K@Z 0000000140000000     rocket.obj
 0003:fff88000       $unwind$?dtor$0@?0???0?$basic_string@DU?$char_traits@D@std@@V?$allocator@D@2@@std@@QEAA@QEBD@Z@4HA 0000000140000000     rocket.obj
 0003:fff88000       $unwind$?dtor$1@?0???0?$basic_string@DU?$char_traits@D@std@@V?$allocator@D@2@@std@@QEAA@QEBD@Z@4HA 0000000140000000     rocket.obj
 0003:fff88000       $unwind$?is_constant_evaluated@std@@YA_NXZ 0000000140000000     rocket.obj
 0003:fff88000       $unwind$?length@?$_Narrow_char_traits@DH@std@@SA_KQEBD@Z 0000000140000000     rocket.obj
 0003:fff88000       $unwind$?max@?$numeric_limits@_J@std@@SA_JXZ 0000000140000000     rocket.obj
 0003:fff88000       $unwind$?max_size@?$_Default_allocator_traits@V?$allocator@D@std@@@std@@SA_KAEBV?$allocator@D@2@@Z 0000000140000000     rocket.obj
 0003:fff88000       $unwind$?max_size@?$basic_string@DU?$char_traits@D@std@@V?$allocator@D@2@@std@@QEBA_KXZ 0000000140000000     rocket.obj
 0003:fff88000       $unwind$?move@?$_Char_traits@DH@std@@SAPEADQEADQEBD_K@Z 0000000140000000     rocket.obj
 0003:fff88000       $unwind$?what@exception@std@@UEBAPEBDXZ 0000000140000000     rocket.obj
 0003:fff88000       ??$_Reallocate_for@V<lambda_1>@?1??assign@?$basic_string@DU?$char_traits@D@std@@V?$allocator@D@2@@std@@QEAAAEAV34@QEBD_K@Z@PEBD@?$basic_string@DU?$char_traits@D@std@@V?$allocator@D@2@@std@@AEAAAEAV01@_KV<lambda_1>@?1??assign@01@QEAAAEAV01@QEBD0@Z@PEBD@Z$rtcName$0 0000000140000000     rocket.obj
 0003:fff88000       ??0?$basic_string@DU?$char_traits@D@std@@V?$allocator@D@2@@std@@QEAA@QEBD@Z$rtcName$0 0000000140000000     rocket.obj
 0003:fff88000       ??1?$basic_string@DU?$char_traits@D@std@@V?$allocator@D@2@@std@@QEAA@XZ$rtcName$0 0000000140000000     rocket.obj
 0003:fff88000       ?_Calculate_growth@?$basic_string@DU?$char_traits@D@std@@V?$allocator@D@2@@std@@CA_K_K00@Z$rtcName$0 0000000140000000     rocket.obj
 0003:fff88000       ?_Orphan_all_locked_v3@_Container_base12@std@@AEAAXXZ$rtcName$0 0000000140000000     rocket.obj
 0002:fffda000       ?dtor$0@?0???0?$basic_string@DU?$char_traits@D@std@@V?$allocator@D@2@@std@@QEAA@QEBD@Z@4HA 0000000140000000 f   rocket.obj
 0002:fffda000       ?dtor$1@?0???0?$basic_string@DU?$char_traits@D@std@@V?$allocator@D@2@@std@@QEAA@QEBD@Z@4HA 0000000140000000 f   rocket.obj
 0003:fff88000       ?max_size@?$basic_string@DU?$char_traits@D@std@@V?$allocator@D@2@@std@@QEBA_KXZ$rtcName$0 0000000140000000     rocket.obj
 0000:fff56000       _volmd                     0000000140000000     rocket.obj
 0000:fff56000       _volmd                     0000000140000000     rocket.obj
 0000:fff56000       _volmd                     0000000140000000     rocket.obj
 0003:fff88000       $unwind$??_H@YAXPEAX_K1P6APEAX0@Z@Z 0000000140000000     satori-lumablur.obj
 0003:fff88000       $cppxdata$??$_Deallocate@$0BA@$0A@@std@@YAXPEAX_K@Z 0000000140000000     shadertoy.obj
 0003:fff88000       $cppxdata$??$_Deallocate_plain@V?$allocator@U_Container_proxy@std@@@std@@@std@@YAXAEAV?$allocator@U_Container_proxy@std@@@0@QEAU_Container_proxy@0@@Z 0000000140000000     shadertoy.obj
 0003:fff88000       $cppxdata$??0?$basic_string@DU?$char_traits@D@std@@V?$allocator@D@2@@std@@QEAA@QEBD@Z 0000000140000000     shadertoy.obj
 0003:fff88000       $cppxdata$?_Tidy_deallocate@?$basic_string@DU?$char_traits@D@std@@V?$allocator@D@2@@std@@AEAAXXZ 0000000140000000     shadertoy.obj
 0003:fff88000       $cppxdata$?_Tidy_init@?$basic_string@DU?$char_traits@D@std@@V?$allocator@D@2@@std@@AEAAXXZ 0000000140000000     shadertoy.obj
 0003:fff88000       $ip2state$??$_Deallocate@$0BA@$0A@@std@@YAXPEAX_K@Z 0000000140000000     shadertoy.obj
 0003:fff88000       $ip2state$??$_Deallocate_plain@V?$allocator@U_Container_proxy@std@@@std@@@std@@YAXAEAV?$allocator@U_Container_proxy@std@@@0@QEAU_Container_proxy@0@@Z 0000000140000000     shadertoy.obj
 0003:fff88000       $ip2state$??0?$basic_string@DU?$char_traits@D@std@@V?$allocator@D@2@@std@@QEAA@QEBD@Z 0000000140000000     shadertoy.obj
 0003:fff88000       $ip2state$?_Tidy_deallocate@?$basic_string@DU?$char_traits@D@std@@V?$allocator@D@2@@std@@AEAAXXZ 0000000140000000     shadertoy.obj
 0003:fff88000       $ip2state$?_Tidy_init@?$basic_string@DU?$char_traits@D@std@@V?$allocator@D@2@@std@@AEAAXXZ 0000000140000000     shadertoy.obj
 0003:fff88000       $stateUnwindMap$??0?$basic_string@DU?$char_traits@D@std@@V?$allocator@D@2@@std@@QEAA@QEBD@Z 0000000140000000     shadertoy.obj
 0003:fff88000       $unwind$??$?0$$V@?$_Compressed_pair@V?$allocator@D@std@@V?$_String_val@U?$_Simple_types@D@std@@@2@$00@std@@QEAA@U_Zero_then_variadic_args_t@1@@Z 0000000140000000     shadertoy.obj
 0003:fff88000       $unwind$??$?0D@?$allocator@U_Container_proxy@std@@@std@@QEAA@AEBV?$allocator@D@1@@Z 0000000140000000     shadertoy.obj
 0003:fff88000       $unwind$??$_Allocate@$0BA@U_Default_allocate_traits@std@@$0A@@std@@YAPEAX_K@Z 0000000140000000     shadertoy.obj
 0003:fff88000       $unwind$??$_Allocate_manually_vector_aligned@U_Default_allocate_traits@std@@@std@@YAPEAX_K@Z 0000000140000000     shadertoy.obj
 0003:fff88000       $unwind$??$_Construct_in_place@PEADAEBQEAD@std@@YAXAEAPEADAEBQEAD@Z 0000000140000000     shadertoy.obj
 0003:fff88000       $unwind$??$_Construct_in_place@U_Container_proxy@std@@PEAU_Container_base12@2@@std@@YAXAEAU_Container_proxy@0@$$QEAPEAU_Container_base12@0@@Z 0000000140000000     shadertoy.obj
 0003:fff88000       $unwind$??$_Convert_size@_K@std@@YA_K_K@Z 0000000140000000     shadertoy.obj
 0003:fff88000       $unwind$??$_Deallocate@$0BA@$0A@@std@@YAXPEAX_K@Z 0000000140000000     shadertoy.obj
 0003:fff88000       $unwind$??$_Deallocate_plain@V?$allocator@U_Container_proxy@std@@@std@@@std@@YAXAEAV?$allocator@U_Container_proxy@std@@@0@QEAU_Container_proxy@0@@Z 0000000140000000     shadertoy.obj
 0003:fff88000       $unwind$??$_Delete_plain_internal@V?$allocator@U_Container_proxy@std@@@std@@@std@@YAXAEAV?$allocator@U_Container_proxy@std@@@0@QEAU_Container_proxy@0@@Z 0000000140000000     shadertoy.obj
 0003:fff88000       $unwind$??$_Destroy_in_place@PEAD@std@@YAXAEAPEAD@Z 0000000140000000     shadertoy.obj
 0003:fff88000       $unwind$??$_Get_size_of_n@$00@std@@YA_K_K@Z 0000000140000000     shadertoy.obj
 0003:fff88000       $unwind$??$_Get_size_of_n@$0BA@@std@@YA_K_K@Z 0000000140000000     shadertoy.obj
 0003:fff88000       $unwind$??$_Reallocate_for@V<lambda_1>@?1??assign@?$basic_string@DU?$char_traits@D@std@@V?$allocator@D@2@@std@@QEAAAEAV34@QEBD_K@Z@PEBD@?$basic_string@DU?$char_traits@D@std@@V?$allocator@D@2@@std@@AEAAAEAV01@_KV<lambda_1>@?1??assign@01@QEAAAEAV01@QEBD0@Z@PEBD@Z 0000000140000000     shadertoy.obj
 0003:fff88000       $unwind$??$_Unfancy@D@std@@YAPEADPEAD@Z 0000000140000000     shadertoy.obj
 0003:fff88000       $unwind$??$_Unfancy@U_Container_proxy@std@@@std@@YAPEAU_Container_proxy@0@PEAU10@@Z 0000000140000000     shadertoy.obj
 0003:fff88000       $unwind$??$_Voidify_iter@PEAD@std@@YAPEAXPEAD@Z 0000000140000000     shadertoy.obj
 0003:fff88000       $unwind$??$_Voidify_iter@PEAPEAD@std@@YAPEAXPEAPEAD@Z 0000000140000000     shadertoy.obj
 0003:fff88000       $unwind$??$_Voidify_iter@PEAU_Container_proxy@std@@@std@@YAPEAXPEAU_Container_proxy@0@@Z 0000000140000000     shadertoy.obj
 0003:fff88000       $unwind$??$addressof@PEAD@std@@YAPEAPEADAEAPEAD@Z 0000000140000000     shadertoy.obj
 0003:fff88000       $unwind$??$addressof@U_Container_base12@std@@@std@@YAPEAU_Container_base12@0@AEAU10@@Z 0000000140000000     shadertoy.obj
 0003:fff88000       $unwind$??$addressof@U_Container_proxy@std@@@std@@YAPEAU_Container_proxy@0@AEAU10@@Z 0000000140000000     shadertoy.obj
 0003:fff88000       $unwind$??$construct_at@DAEBDX@std@@YAPEADQEADAEBD@Z 0000000140000000     shadertoy.obj
 0003:fff88000       $unwind$??$construct_at@PEADAEBQEADX@std@@YAPEAPEADQEAPEADAEBQEAD@Z 0000000140000000     shadertoy.obj
 0003:fff88000       $unwind$??$construct_at@U_Container_proxy@std@@PEAU_Container_base12@2@X@std@@YAPEAU_Container_proxy@0@QEAU10@$$QEAPEAU_Container_base12@0@@Z 0000000140000000     shadertoy.obj
 0003:fff88000       $unwind$??$forward@AEBD@std@@YAAEBDAEBD@Z 0000000140000000     shadertoy.obj
 0003:fff88000       $unwind$??$forward@AEBQEAD@std@@YAAEBQEADAEBQEAD@Z 0000000140000000     shadertoy.obj
 0003:fff88000       $unwind$??$forward@PEAU_Container_base12@std@@@std@@YA$$QEAPEAU_Container_base12@0@AEAPEAU10@@Z 0000000140000000     shadertoy.obj
 0003:fff88000       $unwind$??$max@M@std@@YAAEBMAEBM0@Z 0000000140000000     shadertoy.obj
 0003:fff88000       $unwind$??$max@_K@std@@YAAEB_KAEB_K0@Z 0000000140000000     shadertoy.obj
 0003:fff88000       $unwind$??$min@M@std@@YAAEBMAEBM0@Z 0000000140000000     shadertoy.obj
 0003:fff88000       $unwind$??$min@_K@std@@YAAEB_KAEB_K0@Z 0000000140000000     shadertoy.obj
 0003:fff88000       $unwind$??0?$_Container_proxy_ptr12@V?$allocator@U_Container_proxy@std@@@std@@@std@@QEAA@AEAV?$allocator@U_Container_proxy@std@@@1@AEAU_Container_base12@1@@Z 0000000140000000     shadertoy.obj
 0003:fff88000       $unwind$??0?$_String_val@U?$_Simple_types@D@std@@@std@@QEAA@XZ 0000000140000000     shadertoy.obj
 0003:fff88000       $unwind$??0?$allocator@D@std@@QEAA@XZ 0000000140000000     shadertoy.obj
 0003:fff88000       $unwind$??0?$basic_string@DU?$char_traits@D@std@@V?$allocator@D@2@@std@@QEAA@QEBD@Z 0000000140000000     shadertoy.obj
 0003:fff88000       $unwind$??0Vector3@@QEAA@MMM@Z 0000000140000000     shadertoy.obj
 0003:fff88000       $unwind$??0Vector4@@QEAA@MMMM@Z 0000000140000000     shadertoy.obj
 0003:fff88000       $unwind$??0Vector4@@QEAA@XZ 0000000140000000     shadertoy.obj
 0003:fff88000       $unwind$??0_Basic_container_proxy_ptr12@std@@IEAA@XZ 0000000140000000     shadertoy.obj
 0003:fff88000       $unwind$??0_Bxty@?$_String_val@U?$_Simple_types@D@std@@@std@@QEAA@XZ 0000000140000000     shadertoy.obj
 0003:fff88000       $unwind$??0_Container_base12@std@@QEAA@XZ 0000000140000000     shadertoy.obj
 0003:fff88000       $unwind$??0_Container_proxy@std@@QEAA@PEAU_Container_base12@1@@Z 0000000140000000     shadertoy.obj
 0003:fff88000       $unwind$??0bad_alloc@std@@AEAA@QEBD@Z 0000000140000000     shadertoy.obj
 0003:fff88000       $unwind$??0bad_alloc@std@@QEAA@AEBV01@@Z 0000000140000000     shadertoy.obj
 0003:fff88000       $unwind$??0bad_array_new_length@std@@QEAA@AEBV01@@Z 0000000140000000     shadertoy.obj
 0003:fff88000       $unwind$??0bad_array_new_length@std@@QEAA@XZ 0000000140000000     shadertoy.obj
 0003:fff88000       $unwind$??0exception@std@@QEAA@AEBV01@@Z 0000000140000000     shadertoy.obj
 0003:fff88000       $unwind$??0exception@std@@QEAA@QEBDH@Z 0000000140000000     shadertoy.obj
 0003:fff88000       $unwind$??1?$_Compressed_pair@V?$allocator@D@std@@V?$_String_val@U?$_Simple_types@D@std@@@2@$00@std@@QEAA@XZ 0000000140000000     shadertoy.obj
 0003:fff88000       $unwind$??1?$_Container_proxy_ptr12@V?$allocator@U_Container_proxy@std@@@std@@@std@@QEAA@XZ 0000000140000000     shadertoy.obj
 0003:fff88000       $unwind$??1?$_String_val@U?$_Simple_types@D@std@@@std@@QEAA@XZ 0000000140000000     shadertoy.obj
 0003:fff88000       $unwind$??1?$basic_string@DU?$char_traits@D@std@@V?$allocator@D@2@@std@@QEAA@XZ 0000000140000000     shadertoy.obj
 0003:fff88000       $unwind$??1_Bxty@?$_String_val@U?$_Simple_types@D@std@@@std@@QEAA@XZ 0000000140000000     shadertoy.obj
 0003:fff88000       $unwind$??1bad_alloc@std@@UEAA@XZ 0000000140000000     shadertoy.obj
 0003:fff88000       $unwind$??1bad_array_new_length@std@@UEAA@XZ 0000000140000000     shadertoy.obj
 0003:fff88000       $unwind$??1exception@std@@UEAA@XZ 0000000140000000     shadertoy.obj
 0003:fff88000       $unwind$??2@YAPEAX_KPEAX@Z 0000000140000000     shadertoy.obj
 0003:fff88000       $unwind$??DVector3@@QEBA?BMAEBV0@@Z 0000000140000000     shadertoy.obj
 0003:fff88000       $unwind$??DVector3@@QEBA?BV0@M@Z 0000000140000000     shadertoy.obj
 0003:fff88000       $unwind$??GVector3@@QEBA?BV0@AEBV0@@Z 0000000140000000     shadertoy.obj
 0003:fff88000       $unwind$??R<lambda_1>@?1??assign@?$basic_string@DU?$char_traits@D@std@@V?$allocator@D@2@@std@@QEAAAEAV23@QEBD_K@Z@QEBA@QEAD10@Z 0000000140000000     shadertoy.obj
 0003:fff88000       $unwind$??XVector3@@QEAAAEAV0@M@Z 0000000140000000     shadertoy.obj
 0003:fff88000       $unwind$??_Gbad_alloc@std@@UEAAPEAXI@Z 0000000140000000     shadertoy.obj
 0003:fff88000       $unwind$??_Gbad_array_new_length@std@@UEAAPEAXI@Z 0000000140000000     shadertoy.obj
 0003:fff88000       $unwind$??_Gexception@std@@UEAAPEAXI@Z 0000000140000000     shadertoy.obj
 0003:fff88000       $unwind$??_H@YAXPEAX_K1P6APEAX0@Z@Z 0000000140000000     shadertoy.obj
 0003:fff88000       $unwind$?Dot@Vector3@@SAMAEBV1@0@Z 0000000140000000     shadertoy.obj
 0003:fff88000       $unwind$?Length@Vector3@@QEBAMXZ 0000000140000000     shadertoy.obj
 0003:fff88000       $unwind$?Normalize@Vector3@@QEAAXXZ 0000000140000000     shadertoy.obj
 0003:fff88000       $unwind$?Normalized@Vector3@@QEBA?BV1@XZ 0000000140000000     shadertoy.obj
 0003:fff88000       $unwind$?Scale@Vector3@@SA?BV1@AEBV1@M@Z 0000000140000000     shadertoy.obj
 0003:fff88000       $unwind$?Sub@Vector3@@SA?BV1@AEBV1@0@Z 0000000140000000     shadertoy.obj
 0003:fff88000       $unwind$?_Adjust_manually_vector_aligned@std@@YAXAEAPEAXAEA_K@Z 0000000140000000     shadertoy.obj
 0003:fff88000       $unwind$?_Allocate@_Default_allocate_traits@std@@SAPEAX_K@Z 0000000140000000     shadertoy.obj
 0003:fff88000       $unwind$?_Calculate_growth@?$basic_string@DU?$char_traits@D@std@@V?$allocator@D@2@@std@@AEBA_K_K@Z 0000000140000000     shadertoy.obj
 0003:fff88000       $unwind$?_Calculate_growth@?$basic_string@DU?$char_traits@D@std@@V?$allocator@D@2@@std@@CA_K_K00@Z 0000000140000000     shadertoy.obj
 0003:fff88000       $unwind$?_Get_first@?$_Compressed_pair@V?$allocator@D@std@@V?$_String_val@U?$_Simple_types@D@std@@@2@$00@std@@QEAAAEAV?$allocator@D@2@XZ 0000000140000000     shadertoy.obj
 0003:fff88000       $unwind$?_Get_first@?$_Compressed_pair@V?$allocator@D@std@@V?$_String_val@U?$_Simple_types@D@std@@@2@$00@std@@QEBAAEBV?$allocator@D@2@XZ 0000000140000000     shadertoy.obj
 0003:fff88000       $unwind$?_Getal@?$basic_string@DU?$char_traits@D@std@@V?$allocator@D@2@@std@@AEAAAEAV?$allocator@D@2@XZ 0000000140000000     shadertoy.obj
 0003:fff88000       $unwind$?_Getal@?$basic_string@DU?$char_traits@D@std@@V?$allocator@D@2@@std@@AEBAAEBV?$allocator@D@2@XZ 0000000140000000     shadertoy.obj
 0003:fff88000       $unwind$?_Large_string_engaged@?$_String_val@U?$_Simple_types@D@std@@@std@@QEBA_NXZ 0000000140000000     shadertoy.obj
 0003:fff88000       $unwind$?_Myptr@?$_String_val@U?$_Simple_types@D@std@@@std@@QEAAPEADXZ 0000000140000000     shadertoy.obj
 0003:fff88000       $unwind$?_Orphan_all@_Container_base12@std@@QEAAXXZ 0000000140000000     shadertoy.obj
 0003:fff88000       $unwind$?_Orphan_all_locked_v3@_Container_base12@std@@AEAAXXZ 0000000140000000     shadertoy.obj
 0003:fff88000       $unwind$?_Orphan_all_unlocked_v3@_Container_base12@std@@AEAAXXZ 0000000140000000     shadertoy.obj
 0003:fff88000       $unwind$?_Release@_Basic_container_proxy_ptr12@std@@QEAAXXZ 0000000140000000     shadertoy.obj
 0003:fff88000       $unwind$?_Throw_bad_array_new_length@std@@YAXXZ 0000000140000000     shadertoy.obj
 0003:fff88000       $unwind$?_Tidy_deallocate@?$basic_string@DU?$char_traits@D@std@@V?$allocator@D@2@@std@@AEAAXXZ 0000000140000000     shadertoy.obj
 0003:fff88000       $unwind$?_Tidy_init@?$basic_string@DU?$char_traits@D@std@@V?$allocator@D@2@@std@@AEAAXXZ 0000000140000000     shadertoy.obj
 0003:fff88000       $unwind$?_Xlen_string@std@@YAXXZ 0000000140000000     shadertoy.obj
 0003:fff88000       $unwind$?allocate@?$allocator@D@std@@QEAAPEAD_K@Z 0000000140000000     shadertoy.obj
 0003:fff88000       $unwind$?allocate@?$allocator@U_Container_proxy@std@@@std@@QEAAPEAU_Container_proxy@2@_K@Z 0000000140000000     shadertoy.obj
 0003:fff88000       $unwind$?assign@?$_Char_traits@DH@std@@SAPEADQEAD_KD@Z 0000000140000000     shadertoy.obj
 0003:fff88000       $unwind$?assign@?$_Narrow_char_traits@DH@std@@SAPEADQEAD_KD@Z 0000000140000000     shadertoy.obj
 0003:fff88000       $unwind$?assign@?$_Narrow_char_traits@DH@std@@SAXAEADAEBD@Z 0000000140000000     shadertoy.obj
 0003:fff88000       $unwind$?assign@?$basic_string@DU?$char_traits@D@std@@V?$allocator@D@2@@std@@QEAAAEAV12@QEBD@Z 0000000140000000     shadertoy.obj
 0003:fff88000       $unwind$?assign@?$basic_string@DU?$char_traits@D@std@@V?$allocator@D@2@@std@@QEAAAEAV12@QEBD_K@Z 0000000140000000     shadertoy.obj
 0003:fff88000       $unwind$?copy@?$_Char_traits@DH@std@@SAPEADQEADQEBD_K@Z 0000000140000000     shadertoy.obj
 0003:fff88000       $unwind$?deallocate@?$_Default_allocator_traits@V?$allocator@U_Container_proxy@std@@@std@@@std@@SAXAEAV?$allocator@U_Container_proxy@std@@@2@QEAU_Container_proxy@2@_K@Z 0000000140000000     shadertoy.obj
 0003:fff88000       $unwind$?deallocate@?$allocator@D@std@@QEAAXQEAD_K@Z 0000000140000000     shadertoy.obj
 0003:fff88000       $unwind$?deallocate@?$allocator@U_Container_proxy@std@@@std@@QEAAXQEAU_Container_proxy@2@_K@Z 0000000140000000     shadertoy.obj
 0003:fff88000       $unwind$?dtor$0@?0???0?$basic_string@DU?$char_traits@D@std@@V?$allocator@D@2@@std@@QEAA@QEBD@Z@4HA 0000000140000000     shadertoy.obj
 0003:fff88000       $unwind$?dtor$1@?0???0?$basic_string@DU?$char_traits@D@std@@V?$allocator@D@2@@std@@QEAA@QEBD@Z@4HA 0000000140000000     shadertoy.obj
 0003:fff88000       $unwind$?freeAligned@@YAXPEAX@Z 0000000140000000     shadertoy.obj
 0003:fff88000       $unwind$?is_constant_evaluated@std@@YA_NXZ 0000000140000000     shadertoy.obj
 0003:fff88000       $unwind$?length@?$_Narrow_char_traits@DH@std@@SA_KQEBD@Z 0000000140000000     shadertoy.obj
 0003:fff88000       $unwind$?mallocAligned@@YAPEAX_K0@Z 0000000140000000     shadertoy.obj
 0003:fff88000       $unwind$?max@?$numeric_limits@_J@std@@SA_JXZ 0000000140000000     shadertoy.obj
 0003:fff88000       $unwind$?max_size@?$_Default_allocator_traits@V?$allocator@D@std@@@std@@SA_KAEBV?$allocator@D@2@@Z 0000000140000000     shadertoy.obj
 0003:fff88000       $unwind$?max_size@?$basic_string@DU?$char_traits@D@std@@V?$allocator@D@2@@std@@QEBA_KXZ 0000000140000000     shadertoy.obj
 0003:fff88000       $unwind$?move@?$_Char_traits@DH@std@@SAPEADQEADQEBD_K@Z 0000000140000000     shadertoy.obj
 0003:fff88000       $unwind$?what@exception@std@@UEBAPEBDXZ 0000000140000000     shadertoy.obj
 0003:fff88000       $unwind$fabsf              0000000140000000     shadertoy.obj
 0003:fff88000       ??$_Reallocate_for@V<lambda_1>@?1??assign@?$basic_string@DU?$char_traits@D@std@@V?$allocator@D@2@@std@@QEAAAEAV34@QEBD_K@Z@PEBD@?$basic_string@DU?$char_traits@D@std@@V?$allocator@D@2@@std@@AEAAAEAV01@_KV<lambda_1>@?1??assign@01@QEAAAEAV01@QEBD0@Z@PEBD@Z$rtcName$0 0000000140000000     shadertoy.obj
 0003:fff88000       ??0?$basic_string@DU?$char_traits@D@std@@V?$allocator@D@2@@std@@QEAA@QEBD@Z$rtcName$0 0000000140000000     shadertoy.obj
 0003:fff88000       ??1?$basic_string@DU?$char_traits@D@std@@V?$allocator@D@2@@std@@QEAA@XZ$rtcName$0 0000000140000000     shadertoy.obj
 0003:fff88000       ?Normalized@Vector3@@QEBA?BV1@XZ$rtcName$0 0000000140000000     shadertoy.obj
 0003:fff88000       ?_Calculate_growth@?$basic_string@DU?$char_traits@D@std@@V?$allocator@D@2@@std@@CA_K_K00@Z$rtcName$0 0000000140000000     shadertoy.obj
 0003:fff88000       ?_Orphan_all_locked_v3@_Container_base12@std@@AEAAXXZ$rtcName$0 0000000140000000     shadertoy.obj
 0002:fffda000       ?dtor$0@?0???0?$basic_string@DU?$char_traits@D@std@@V?$allocator@D@2@@std@@QEAA@QEBD@Z@4HA 0000000140000000 f   shadertoy.obj
 0002:fffda000       ?dtor$1@?0???0?$basic_string@DU?$char_traits@D@std@@V?$allocator@D@2@@std@@QEAA@QEBD@Z@4HA 0000000140000000 f   shadertoy.obj
 0003:fff88000       ?max_size@?$basic_string@DU?$char_traits@D@std@@V?$allocator@D@2@@std@@QEBA_KXZ$rtcName$0 0000000140000000     shadertoy.obj
 0000:fff56000       _volmd                     0000000140000000     shadertoy.obj
 0000:fff56000       _volmd                     0000000140000000     shadertoy.obj
 0000:fff56000       _volmd                     0000000140000000     shadertoy.obj
 0000:fff56000       _volmd                     0000000140000000     shadertoy.obj
 0000:fff56000       _volmd                     0000000140000000     shadertoy.obj
 0000:fff56000       _volmd                     0000000140000000     shadertoy.obj
 0003:fff88000       $cppxdata$??$_Deallocate@$0BA@$0A@@std@@YAXPEAX_K@Z 0000000140000000     shared-resources.obj
 0003:fff88000       $cppxdata$??$_Deallocate_plain@V?$allocator@U_Container_proxy@std@@@std@@@std@@YAXAEAV?$allocator@U_Container_proxy@std@@@0@QEAU_Container_proxy@0@@Z 0000000140000000     shared-resources.obj
 0003:fff88000       $cppxdata$??0?$basic_string@DU?$char_traits@D@std@@V?$allocator@D@2@@std@@QEAA@QEBD@Z 0000000140000000     shared-resources.obj
 0003:fff88000       $cppxdata$?_Tidy_deallocate@?$basic_string@DU?$char_traits@D@std@@V?$allocator@D@2@@std@@AEAAXXZ 0000000140000000     shared-resources.obj
 0003:fff88000       $cppxdata$?_Tidy_init@?$basic_string@DU?$char_traits@D@std@@V?$allocator@D@2@@std@@AEAAXXZ 0000000140000000     shared-resources.obj
 0003:fff88000       $ip2state$??$_Deallocate@$0BA@$0A@@std@@YAXPEAX_K@Z 0000000140000000     shared-resources.obj
 0003:fff88000       $ip2state$??$_Deallocate_plain@V?$allocator@U_Container_proxy@std@@@std@@@std@@YAXAEAV?$allocator@U_Container_proxy@std@@@0@QEAU_Container_proxy@0@@Z 0000000140000000     shared-resources.obj
 0003:fff88000       $ip2state$??0?$basic_string@DU?$char_traits@D@std@@V?$allocator@D@2@@std@@QEAA@QEBD@Z 0000000140000000     shared-resources.obj
 0003:fff88000       $ip2state$?_Tidy_deallocate@?$basic_string@DU?$char_traits@D@std@@V?$allocator@D@2@@std@@AEAAXXZ 0000000140000000     shared-resources.obj
 0003:fff88000       $ip2state$?_Tidy_init@?$basic_string@DU?$char_traits@D@std@@V?$allocator@D@2@@std@@AEAAXXZ 0000000140000000     shared-resources.obj
 0003:fff88000       $stateUnwindMap$??0?$basic_string@DU?$char_traits@D@std@@V?$allocator@D@2@@std@@QEAA@QEBD@Z 0000000140000000     shared-resources.obj
 0003:fff88000       $unwind$??$?0$$V@?$_Compressed_pair@V?$allocator@D@std@@V?$_String_val@U?$_Simple_types@D@std@@@2@$00@std@@QEAA@U_Zero_then_variadic_args_t@1@@Z 0000000140000000     shared-resources.obj
 0003:fff88000       $unwind$??$?0D@?$allocator@U_Container_proxy@std@@@std@@QEAA@AEBV?$allocator@D@1@@Z 0000000140000000     shared-resources.obj
 0003:fff88000       $unwind$??$_Allocate@$0BA@U_Default_allocate_traits@std@@$0A@@std@@YAPEAX_K@Z 0000000140000000     shared-resources.obj
 0003:fff88000       $unwind$??$_Allocate_manually_vector_aligned@U_Default_allocate_traits@std@@@std@@YAPEAX_K@Z 0000000140000000     shared-resources.obj
 0003:fff88000       $unwind$??$_Construct_in_place@PEADAEBQEAD@std@@YAXAEAPEADAEBQEAD@Z 0000000140000000     shared-resources.obj
 0003:fff88000       $unwind$??$_Construct_in_place@U_Container_proxy@std@@PEAU_Container_base12@2@@std@@YAXAEAU_Container_proxy@0@$$QEAPEAU_Container_base12@0@@Z 0000000140000000     shared-resources.obj
 0003:fff88000       $unwind$??$_Convert_size@_K@std@@YA_K_K@Z 0000000140000000     shared-resources.obj
 0003:fff88000       $unwind$??$_Deallocate@$0BA@$0A@@std@@YAXPEAX_K@Z 0000000140000000     shared-resources.obj
 0003:fff88000       $unwind$??$_Deallocate_plain@V?$allocator@U_Container_proxy@std@@@std@@@std@@YAXAEAV?$allocator@U_Container_proxy@std@@@0@QEAU_Container_proxy@0@@Z 0000000140000000     shared-resources.obj
 0003:fff88000       $unwind$??$_Delete_plain_internal@V?$allocator@U_Container_proxy@std@@@std@@@std@@YAXAEAV?$allocator@U_Container_proxy@std@@@0@QEAU_Container_proxy@0@@Z 0000000140000000     shared-resources.obj
 0003:fff88000       $unwind$??$_Destroy_in_place@PEAD@std@@YAXAEAPEAD@Z 0000000140000000     shared-resources.obj
 0003:fff88000       $unwind$??$_Get_size_of_n@$00@std@@YA_K_K@Z 0000000140000000     shared-resources.obj
 0003:fff88000       $unwind$??$_Get_size_of_n@$0BA@@std@@YA_K_K@Z 0000000140000000     shared-resources.obj
 0003:fff88000       $unwind$??$_Reallocate_for@V<lambda_1>@?1??assign@?$basic_string@DU?$char_traits@D@std@@V?$allocator@D@2@@std@@QEAAAEAV34@QEBD_K@Z@PEBD@?$basic_string@DU?$char_traits@D@std@@V?$allocator@D@2@@std@@AEAAAEAV01@_KV<lambda_1>@?1??assign@01@QEAAAEAV01@QEBD0@Z@PEBD@Z 0000000140000000     shared-resources.obj
 0003:fff88000       $unwind$??$_Unfancy@D@std@@YAPEADPEAD@Z 0000000140000000     shared-resources.obj
 0003:fff88000       $unwind$??$_Unfancy@U_Container_proxy@std@@@std@@YAPEAU_Container_proxy@0@PEAU10@@Z 0000000140000000     shared-resources.obj
 0003:fff88000       $unwind$??$_Voidify_iter@PEAD@std@@YAPEAXPEAD@Z 0000000140000000     shared-resources.obj
 0003:fff88000       $unwind$??$_Voidify_iter@PEAPEAD@std@@YAPEAXPEAPEAD@Z 0000000140000000     shared-resources.obj
 0003:fff88000       $unwind$??$_Voidify_iter@PEAU_Container_proxy@std@@@std@@YAPEAXPEAU_Container_proxy@0@@Z 0000000140000000     shared-resources.obj
 0003:fff88000       $unwind$??$addressof@PEAD@std@@YAPEAPEADAEAPEAD@Z 0000000140000000     shared-resources.obj
 0003:fff88000       $unwind$??$addressof@U_Container_base12@std@@@std@@YAPEAU_Container_base12@0@AEAU10@@Z 0000000140000000     shared-resources.obj
 0003:fff88000       $unwind$??$addressof@U_Container_proxy@std@@@std@@YAPEAU_Container_proxy@0@AEAU10@@Z 0000000140000000     shared-resources.obj
 0003:fff88000       $unwind$??$construct_at@DAEBDX@std@@YAPEADQEADAEBD@Z 0000000140000000     shared-resources.obj
 0003:fff88000       $unwind$??$construct_at@PEADAEBQEADX@std@@YAPEAPEADQEAPEADAEBQEAD@Z 0000000140000000     shared-resources.obj
 0003:fff88000       $unwind$??$construct_at@U_Container_proxy@std@@PEAU_Container_base12@2@X@std@@YAPEAU_Container_proxy@0@QEAU10@$$QEAPEAU_Container_base12@0@@Z 0000000140000000     shared-resources.obj
 0003:fff88000       $unwind$??$forward@AEBD@std@@YAAEBDAEBD@Z 0000000140000000     shared-resources.obj
 0003:fff88000       $unwind$??$forward@AEBQEAD@std@@YAAEBQEADAEBQEAD@Z 0000000140000000     shared-resources.obj
 0003:fff88000       $unwind$??$forward@PEAU_Container_base12@std@@@std@@YA$$QEAPEAU_Container_base12@0@AEAPEAU10@@Z 0000000140000000     shared-resources.obj
 0003:fff88000       $unwind$??$max@_K@std@@YAAEB_KAEB_K0@Z 0000000140000000     shared-resources.obj
 0003:fff88000       $unwind$??$min@_K@std@@YAAEB_KAEB_K0@Z 0000000140000000     shared-resources.obj
 0003:fff88000       $unwind$??0?$_Container_proxy_ptr12@V?$allocator@U_Container_proxy@std@@@std@@@std@@QEAA@AEAV?$allocator@U_Container_proxy@std@@@1@AEAU_Container_base12@1@@Z 0000000140000000     shared-resources.obj
 0003:fff88000       $unwind$??0?$_String_val@U?$_Simple_types@D@std@@@std@@QEAA@XZ 0000000140000000     shared-resources.obj
 0003:fff88000       $unwind$??0?$allocator@D@std@@QEAA@XZ 0000000140000000     shared-resources.obj
 0003:fff88000       $unwind$??0?$basic_string@DU?$char_traits@D@std@@V?$allocator@D@2@@std@@QEAA@QEBD@Z 0000000140000000     shared-resources.obj
 0003:fff88000       $unwind$??0_Basic_container_proxy_ptr12@std@@IEAA@XZ 0000000140000000     shared-resources.obj
 0003:fff88000       $unwind$??0_Bxty@?$_String_val@U?$_Simple_types@D@std@@@std@@QEAA@XZ 0000000140000000     shared-resources.obj
 0003:fff88000       $unwind$??0_Container_base12@std@@QEAA@XZ 0000000140000000     shared-resources.obj
 0003:fff88000       $unwind$??0_Container_proxy@std@@QEAA@PEAU_Container_base12@1@@Z 0000000140000000     shared-resources.obj
 0003:fff88000       $unwind$??0bad_alloc@std@@AEAA@QEBD@Z 0000000140000000     shared-resources.obj
 0003:fff88000       $unwind$??0bad_alloc@std@@QEAA@AEBV01@@Z 0000000140000000     shared-resources.obj
 0003:fff88000       $unwind$??0bad_array_new_length@std@@QEAA@AEBV01@@Z 0000000140000000     shared-resources.obj
 0003:fff88000       $unwind$??0bad_array_new_length@std@@QEAA@XZ 0000000140000000     shared-resources.obj
 0003:fff88000       $unwind$??0exception@std@@QEAA@AEBV01@@Z 0000000140000000     shared-resources.obj
 0003:fff88000       $unwind$??0exception@std@@QEAA@QEBDH@Z 0000000140000000     shared-resources.obj
 0003:fff88000       $unwind$??1?$_Compressed_pair@V?$allocator@D@std@@V?$_String_val@U?$_Simple_types@D@std@@@2@$00@std@@QEAA@XZ 0000000140000000     shared-resources.obj
 0003:fff88000       $unwind$??1?$_Container_proxy_ptr12@V?$allocator@U_Container_proxy@std@@@std@@@std@@QEAA@XZ 0000000140000000     shared-resources.obj
 0003:fff88000       $unwind$??1?$_String_val@U?$_Simple_types@D@std@@@std@@QEAA@XZ 0000000140000000     shared-resources.obj
 0003:fff88000       $unwind$??1?$basic_string@DU?$char_traits@D@std@@V?$allocator@D@2@@std@@QEAA@XZ 0000000140000000     shared-resources.obj
 0003:fff88000       $unwind$??1_Bxty@?$_String_val@U?$_Simple_types@D@std@@@std@@QEAA@XZ 0000000140000000     shared-resources.obj
 0003:fff88000       $unwind$??1bad_alloc@std@@UEAA@XZ 0000000140000000     shared-resources.obj
 0003:fff88000       $unwind$??1bad_array_new_length@std@@UEAA@XZ 0000000140000000     shared-resources.obj
 0003:fff88000       $unwind$??1exception@std@@UEAA@XZ 0000000140000000     shared-resources.obj
 0003:fff88000       $unwind$??2@YAPEAX_KPEAX@Z 0000000140000000     shared-resources.obj
 0003:fff88000       $unwind$??R<lambda_1>@?1??assign@?$basic_string@DU?$char_traits@D@std@@V?$allocator@D@2@@std@@QEAAAEAV23@QEBD_K@Z@QEBA@QEAD10@Z 0000000140000000     shared-resources.obj
 0003:fff88000       $unwind$??_Gbad_alloc@std@@UEAAPEAXI@Z 0000000140000000     shared-resources.obj
 0003:fff88000       $unwind$??_Gbad_array_new_length@std@@UEAAPEAXI@Z 0000000140000000     shared-resources.obj
 0003:fff88000       $unwind$??_Gexception@std@@UEAAPEAXI@Z 0000000140000000     shared-resources.obj
 0003:fff88000       $unwind$??_H@YAXPEAX_K1P6APEAX0@Z@Z 0000000140000000     shared-resources.obj
 0003:fff88000       $unwind$?_Adjust_manually_vector_aligned@std@@YAXAEAPEAXAEA_K@Z 0000000140000000     shared-resources.obj
 0003:fff88000       $unwind$?_Allocate@_Default_allocate_traits@std@@SAPEAX_K@Z 0000000140000000     shared-resources.obj
 0003:fff88000       $unwind$?_Calculate_growth@?$basic_string@DU?$char_traits@D@std@@V?$allocator@D@2@@std@@AEBA_K_K@Z 0000000140000000     shared-resources.obj
 0003:fff88000       $unwind$?_Calculate_growth@?$basic_string@DU?$char_traits@D@std@@V?$allocator@D@2@@std@@CA_K_K00@Z 0000000140000000     shared-resources.obj
 0003:fff88000       $unwind$?_Get_first@?$_Compressed_pair@V?$allocator@D@std@@V?$_String_val@U?$_Simple_types@D@std@@@2@$00@std@@QEAAAEAV?$allocator@D@2@XZ 0000000140000000     shared-resources.obj
 0003:fff88000       $unwind$?_Get_first@?$_Compressed_pair@V?$allocator@D@std@@V?$_String_val@U?$_Simple_types@D@std@@@2@$00@std@@QEBAAEBV?$allocator@D@2@XZ 0000000140000000     shared-resources.obj
 0003:fff88000       $unwind$?_Getal@?$basic_string@DU?$char_traits@D@std@@V?$allocator@D@2@@std@@AEAAAEAV?$allocator@D@2@XZ 0000000140000000     shared-resources.obj
 0003:fff88000       $unwind$?_Getal@?$basic_string@DU?$char_traits@D@std@@V?$allocator@D@2@@std@@AEBAAEBV?$allocator@D@2@XZ 0000000140000000     shared-resources.obj
 0003:fff88000       $unwind$?_Large_string_engaged@?$_String_val@U?$_Simple_types@D@std@@@std@@QEBA_NXZ 0000000140000000     shared-resources.obj
 0003:fff88000       $unwind$?_Myptr@?$_String_val@U?$_Simple_types@D@std@@@std@@QEAAPEADXZ 0000000140000000     shared-resources.obj
 0003:fff88000       $unwind$?_Orphan_all@_Container_base12@std@@QEAAXXZ 0000000140000000     shared-resources.obj
 0003:fff88000       $unwind$?_Orphan_all_locked_v3@_Container_base12@std@@AEAAXXZ 0000000140000000     shared-resources.obj
 0003:fff88000       $unwind$?_Orphan_all_unlocked_v3@_Container_base12@std@@AEAAXXZ 0000000140000000     shared-resources.obj
 0003:fff88000       $unwind$?_Release@_Basic_container_proxy_ptr12@std@@QEAAXXZ 0000000140000000     shared-resources.obj
 0003:fff88000       $unwind$?_Throw_bad_array_new_length@std@@YAXXZ 0000000140000000     shared-resources.obj
 0003:fff88000       $unwind$?_Tidy_deallocate@?$basic_string@DU?$char_traits@D@std@@V?$allocator@D@2@@std@@AEAAXXZ 0000000140000000     shared-resources.obj
 0003:fff88000       $unwind$?_Tidy_init@?$basic_string@DU?$char_traits@D@std@@V?$allocator@D@2@@std@@AEAAXXZ 0000000140000000     shared-resources.obj
 0003:fff88000       $unwind$?_Xlen_string@std@@YAXXZ 0000000140000000     shared-resources.obj
 0003:fff88000       $unwind$?allocate@?$allocator@D@std@@QEAAPEAD_K@Z 0000000140000000     shared-resources.obj
 0003:fff88000       $unwind$?allocate@?$allocator@U_Container_proxy@std@@@std@@QEAAPEAU_Container_proxy@2@_K@Z 0000000140000000     shared-resources.obj
 0003:fff88000       $unwind$?assign@?$_Char_traits@DH@std@@SAPEADQEAD_KD@Z 0000000140000000     shared-resources.obj
 0003:fff88000       $unwind$?assign@?$_Narrow_char_traits@DH@std@@SAPEADQEAD_KD@Z 0000000140000000     shared-resources.obj
 0003:fff88000       $unwind$?assign@?$_Narrow_char_traits@DH@std@@SAXAEADAEBD@Z 0000000140000000     shared-resources.obj
 0003:fff88000       $unwind$?assign@?$basic_string@DU?$char_traits@D@std@@V?$allocator@D@2@@std@@QEAAAEAV12@QEBD@Z 0000000140000000     shared-resources.obj
 0003:fff88000       $unwind$?assign@?$basic_string@DU?$char_traits@D@std@@V?$allocator@D@2@@std@@QEAAAEAV12@QEBD_K@Z 0000000140000000     shared-resources.obj
 0003:fff88000       $unwind$?copy@?$_Char_traits@DH@std@@SAPEADQEADQEBD_K@Z 0000000140000000     shared-resources.obj
 0003:fff88000       $unwind$?deallocate@?$_Default_allocator_traits@V?$allocator@U_Container_proxy@std@@@std@@@std@@SAXAEAV?$allocator@U_Container_proxy@std@@@2@QEAU_Container_proxy@2@_K@Z 0000000140000000     shared-resources.obj
 0003:fff88000       $unwind$?deallocate@?$allocator@D@std@@QEAAXQEAD_K@Z 0000000140000000     shared-resources.obj
 0003:fff88000       $unwind$?deallocate@?$allocator@U_Container_proxy@std@@@std@@QEAAXQEAU_Container_proxy@2@_K@Z 0000000140000000     shared-resources.obj
 0003:fff88000       $unwind$?dtor$0@?0???0?$basic_string@DU?$char_traits@D@std@@V?$allocator@D@2@@std@@QEAA@QEBD@Z@4HA 0000000140000000     shared-resources.obj
 0003:fff88000       $unwind$?dtor$1@?0???0?$basic_string@DU?$char_traits@D@std@@V?$allocator@D@2@@std@@QEAA@QEBD@Z@4HA 0000000140000000     shared-resources.obj
 0003:fff88000       $unwind$?freeAligned@@YAXPEAX@Z 0000000140000000     shared-resources.obj
 0003:fff88000       $unwind$?is_constant_evaluated@std@@YA_NXZ 0000000140000000     shared-resources.obj
 0003:fff88000       $unwind$?length@?$_Narrow_char_traits@DH@std@@SA_KQEBD@Z 0000000140000000     shared-resources.obj
 0003:fff88000       $unwind$?mallocAligned@@YAPEAX_K0@Z 0000000140000000     shared-resources.obj
 0003:fff88000       $unwind$?max@?$numeric_limits@_J@std@@SA_JXZ 0000000140000000     shared-resources.obj
 0003:fff88000       $unwind$?max_size@?$_Default_allocator_traits@V?$allocator@D@std@@@std@@SA_KAEBV?$allocator@D@2@@Z 0000000140000000     shared-resources.obj
 0003:fff88000       $unwind$?max_size@?$basic_string@DU?$char_traits@D@std@@V?$allocator@D@2@@std@@QEBA_KXZ 0000000140000000     shared-resources.obj
 0003:fff88000       $unwind$?move@?$_Char_traits@DH@std@@SAPEADQEADQEBD_K@Z 0000000140000000     shared-resources.obj
 0003:fff88000       $unwind$?what@exception@std@@UEBAPEBDXZ 0000000140000000     shared-resources.obj
 0003:fff88000       ??$_Reallocate_for@V<lambda_1>@?1??assign@?$basic_string@DU?$char_traits@D@std@@V?$allocator@D@2@@std@@QEAAAEAV34@QEBD_K@Z@PEBD@?$basic_string@DU?$char_traits@D@std@@V?$allocator@D@2@@std@@AEAAAEAV01@_KV<lambda_1>@?1??assign@01@QEAAAEAV01@QEBD0@Z@PEBD@Z$rtcName$0 0000000140000000     shared-resources.obj
 0003:fff88000       ??0?$basic_string@DU?$char_traits@D@std@@V?$allocator@D@2@@std@@QEAA@QEBD@Z$rtcName$0 0000000140000000     shared-resources.obj
 0003:fff88000       ??1?$basic_string@DU?$char_traits@D@std@@V?$allocator@D@2@@std@@QEAA@XZ$rtcName$0 0000000140000000     shared-resources.obj
 0003:fff88000       ?_Calculate_growth@?$basic_string@DU?$char_traits@D@std@@V?$allocator@D@2@@std@@CA_K_K00@Z$rtcName$0 0000000140000000     shared-resources.obj
 0003:fff88000       ?_Orphan_all_locked_v3@_Container_base12@std@@AEAAXXZ$rtcName$0 0000000140000000     shared-resources.obj
 0002:fffda000       ?dtor$0@?0???0?$basic_string@DU?$char_traits@D@std@@V?$allocator@D@2@@std@@QEAA@QEBD@Z@4HA 0000000140000000 f   shared-resources.obj
 0002:fffda000       ?dtor$1@?0???0?$basic_string@DU?$char_traits@D@std@@V?$allocator@D@2@@std@@QEAA@QEBD@Z@4HA 0000000140000000 f   shared-resources.obj
 0003:fff88000       ?max_size@?$basic_string@DU?$char_traits@D@std@@V?$allocator@D@2@@std@@QEBA_KXZ$rtcName$0 0000000140000000     shared-resources.obj
 0000:fff56000       _volmd                     0000000140000000     shared-resources.obj
 0000:fff56000       _volmd                     0000000140000000     shared-resources.obj
 0000:fff56000       _volmd                     0000000140000000     shared-resources.obj
 0000:fff56000       _volmd                     0000000140000000     shared-resources.obj
 0003:fff88000       $unwind$??_H@YAXPEAX_K1P6APEAX0@Z@Z 0000000140000000     sincos-lut.obj
 0003:fff88000       $unwind$??_H@YAXPEAX_K1P6APEAX0@Z@Z 0000000140000000     tests.obj
 0003:fff88000       $cppxdata$??$_Deallocate@$0BA@$0A@@std@@YAXPEAX_K@Z 0000000140000000     torus-twister.obj
 0003:fff88000       $cppxdata$??$_Deallocate_plain@V?$allocator@U_Container_proxy@std@@@std@@@std@@YAXAEAV?$allocator@U_Container_proxy@std@@@0@QEAU_Container_proxy@0@@Z 0000000140000000     torus-twister.obj
 0003:fff88000       $cppxdata$??0?$basic_string@DU?$char_traits@D@std@@V?$allocator@D@2@@std@@QEAA@QEBD@Z 0000000140000000     torus-twister.obj
 0003:fff88000       $cppxdata$?_Tidy_deallocate@?$basic_string@DU?$char_traits@D@std@@V?$allocator@D@2@@std@@AEAAXXZ 0000000140000000     torus-twister.obj
 0003:fff88000       $cppxdata$?_Tidy_init@?$basic_string@DU?$char_traits@D@std@@V?$allocator@D@2@@std@@AEAAXXZ 0000000140000000     torus-twister.obj
 0003:fff88000       $ip2state$??$_Deallocate@$0BA@$0A@@std@@YAXPEAX_K@Z 0000000140000000     torus-twister.obj
 0003:fff88000       $ip2state$??$_Deallocate_plain@V?$allocator@U_Container_proxy@std@@@std@@@std@@YAXAEAV?$allocator@U_Container_proxy@std@@@0@QEAU_Container_proxy@0@@Z 0000000140000000     torus-twister.obj
 0003:fff88000       $ip2state$??0?$basic_string@DU?$char_traits@D@std@@V?$allocator@D@2@@std@@QEAA@QEBD@Z 0000000140000000     torus-twister.obj
 0003:fff88000       $ip2state$?_Tidy_deallocate@?$basic_string@DU?$char_traits@D@std@@V?$allocator@D@2@@std@@AEAAXXZ 0000000140000000     torus-twister.obj
 0003:fff88000       $ip2state$?_Tidy_init@?$basic_string@DU?$char_traits@D@std@@V?$allocator@D@2@@std@@AEAAXXZ 0000000140000000     torus-twister.obj
 0003:fff88000       $stateUnwindMap$??0?$basic_string@DU?$char_traits@D@std@@V?$allocator@D@2@@std@@QEAA@QEBD@Z 0000000140000000     torus-twister.obj
 0003:fff88000       $unwind$??$?0$$V@?$_Compressed_pair@V?$allocator@D@std@@V?$_String_val@U?$_Simple_types@D@std@@@2@$00@std@@QEAA@U_Zero_then_variadic_args_t@1@@Z 0000000140000000     torus-twister.obj
 0003:fff88000       $unwind$??$?0D@?$allocator@U_Container_proxy@std@@@std@@QEAA@AEBV?$allocator@D@1@@Z 0000000140000000     torus-twister.obj
 0003:fff88000       $unwind$??$_Allocate@$0BA@U_Default_allocate_traits@std@@$0A@@std@@YAPEAX_K@Z 0000000140000000     torus-twister.obj
 0003:fff88000       $unwind$??$_Allocate_manually_vector_aligned@U_Default_allocate_traits@std@@@std@@YAPEAX_K@Z 0000000140000000     torus-twister.obj
 0003:fff88000       $unwind$??$_Construct_in_place@PEADAEBQEAD@std@@YAXAEAPEADAEBQEAD@Z 0000000140000000     torus-twister.obj
 0003:fff88000       $unwind$??$_Construct_in_place@U_Container_proxy@std@@PEAU_Container_base12@2@@std@@YAXAEAU_Container_proxy@0@$$QEAPEAU_Container_base12@0@@Z 0000000140000000     torus-twister.obj
 0003:fff88000       $unwind$??$_Convert_size@_K@std@@YA_K_K@Z 0000000140000000     torus-twister.obj
 0003:fff88000       $unwind$??$_Deallocate@$0BA@$0A@@std@@YAXPEAX_K@Z 0000000140000000     torus-twister.obj
 0003:fff88000       $unwind$??$_Deallocate_plain@V?$allocator@U_Container_proxy@std@@@std@@@std@@YAXAEAV?$allocator@U_Container_proxy@std@@@0@QEAU_Container_proxy@0@@Z 0000000140000000     torus-twister.obj
 0003:fff88000       $unwind$??$_Delete_plain_internal@V?$allocator@U_Container_proxy@std@@@std@@@std@@YAXAEAV?$allocator@U_Container_proxy@std@@@0@QEAU_Container_proxy@0@@Z 0000000140000000     torus-twister.obj
 0003:fff88000       $unwind$??$_Destroy_in_place@PEAD@std@@YAXAEAPEAD@Z 0000000140000000     torus-twister.obj
 0003:fff88000       $unwind$??$_Get_size_of_n@$00@std@@YA_K_K@Z 0000000140000000     torus-twister.obj
 0003:fff88000       $unwind$??$_Get_size_of_n@$0BA@@std@@YA_K_K@Z 0000000140000000     torus-twister.obj
 0003:fff88000       $unwind$??$_Reallocate_for@V<lambda_1>@?1??assign@?$basic_string@DU?$char_traits@D@std@@V?$allocator@D@2@@std@@QEAAAEAV34@QEBD_K@Z@PEBD@?$basic_string@DU?$char_traits@D@std@@V?$allocator@D@2@@std@@AEAAAEAV01@_KV<lambda_1>@?1??assign@01@QEAAAEAV01@QEBD0@Z@PEBD@Z 0000000140000000     torus-twister.obj
 0003:fff88000       $unwind$??$_Unfancy@D@std@@YAPEADPEAD@Z 0000000140000000     torus-twister.obj
 0003:fff88000       $unwind$??$_Unfancy@U_Container_proxy@std@@@std@@YAPEAU_Container_proxy@0@PEAU10@@Z 0000000140000000     torus-twister.obj
 0003:fff88000       $unwind$??$_Voidify_iter@PEAD@std@@YAPEAXPEAD@Z 0000000140000000     torus-twister.obj
 0003:fff88000       $unwind$??$_Voidify_iter@PEAPEAD@std@@YAPEAXPEAPEAD@Z 0000000140000000     torus-twister.obj
 0003:fff88000       $unwind$??$_Voidify_iter@PEAU_Container_proxy@std@@@std@@YAPEAXPEAU_Container_proxy@0@@Z 0000000140000000     torus-twister.obj
 0003:fff88000       $unwind$??$addressof@PEAD@std@@YAPEAPEADAEAPEAD@Z 0000000140000000     torus-twister.obj
 0003:fff88000       $unwind$??$addressof@U_Container_base12@std@@@std@@YAPEAU_Container_base12@0@AEAU10@@Z 0000000140000000     torus-twister.obj
 0003:fff88000       $unwind$??$addressof@U_Container_proxy@std@@@std@@YAPEAU_Container_proxy@0@AEAU10@@Z 0000000140000000     torus-twister.obj
 0003:fff88000       $unwind$??$construct_at@DAEBDX@std@@YAPEADQEADAEBD@Z 0000000140000000     torus-twister.obj
 0003:fff88000       $unwind$??$construct_at@PEADAEBQEADX@std@@YAPEAPEADQEAPEADAEBQEAD@Z 0000000140000000     torus-twister.obj
 0003:fff88000       $unwind$??$construct_at@U_Container_proxy@std@@PEAU_Container_base12@2@X@std@@YAPEAU_Container_proxy@0@QEAU10@$$QEAPEAU_Container_base12@0@@Z 0000000140000000     torus-twister.obj
 0003:fff88000       $unwind$??$forward@AEBD@std@@YAAEBDAEBD@Z 0000000140000000     torus-twister.obj
 0003:fff88000       $unwind$??$forward@AEBQEAD@std@@YAAEBQEADAEBQEAD@Z 0000000140000000     torus-twister.obj
 0003:fff88000       $unwind$??$forward@PEAU_Container_base12@std@@@std@@YA$$QEAPEAU_Container_base12@0@AEAPEAU10@@Z 0000000140000000     torus-twister.obj
 0003:fff88000       $unwind$??$max@_K@std@@YAAEB_KAEB_K0@Z 0000000140000000     torus-twister.obj
 0003:fff88000       $unwind$??$min@_K@std@@YAAEB_KAEB_K0@Z 0000000140000000     torus-twister.obj
 0003:fff88000       $unwind$??0?$_Container_proxy_ptr12@V?$allocator@U_Container_proxy@std@@@std@@@std@@QEAA@AEAV?$allocator@U_Container_proxy@std@@@1@AEAU_Container_base12@1@@Z 0000000140000000     torus-twister.obj
 0003:fff88000       $unwind$??0?$_String_val@U?$_Simple_types@D@std@@@std@@QEAA@XZ 0000000140000000     torus-twister.obj
 0003:fff88000       $unwind$??0?$allocator@D@std@@QEAA@XZ 0000000140000000     torus-twister.obj
 0003:fff88000       $unwind$??0?$basic_string@DU?$char_traits@D@std@@V?$allocator@D@2@@std@@QEAA@QEBD@Z 0000000140000000     torus-twister.obj
 0003:fff88000       $unwind$??0_Basic_container_proxy_ptr12@std@@IEAA@XZ 0000000140000000     torus-twister.obj
 0003:fff88000       $unwind$??0_Bxty@?$_String_val@U?$_Simple_types@D@std@@@std@@QEAA@XZ 0000000140000000     torus-twister.obj
 0003:fff88000       $unwind$??0_Container_base12@std@@QEAA@XZ 0000000140000000     torus-twister.obj
 0003:fff88000       $unwind$??0_Container_proxy@std@@QEAA@PEAU_Container_base12@1@@Z 0000000140000000     torus-twister.obj
 0003:fff88000       $unwind$??0bad_alloc@std@@AEAA@QEBD@Z 0000000140000000     torus-twister.obj
 0003:fff88000       $unwind$??0bad_alloc@std@@QEAA@AEBV01@@Z 0000000140000000     torus-twister.obj
 0003:fff88000       $unwind$??0bad_array_new_length@std@@QEAA@AEBV01@@Z 0000000140000000     torus-twister.obj
 0003:fff88000       $unwind$??0bad_array_new_length@std@@QEAA@XZ 0000000140000000     torus-twister.obj
 0003:fff88000       $unwind$??0exception@std@@QEAA@AEBV01@@Z 0000000140000000     torus-twister.obj
 0003:fff88000       $unwind$??0exception@std@@QEAA@QEBDH@Z 0000000140000000     torus-twister.obj
 0003:fff88000       $unwind$??1?$_Compressed_pair@V?$allocator@D@std@@V?$_String_val@U?$_Simple_types@D@std@@@2@$00@std@@QEAA@XZ 0000000140000000     torus-twister.obj
 0003:fff88000       $unwind$??1?$_Container_proxy_ptr12@V?$allocator@U_Container_proxy@std@@@std@@@std@@QEAA@XZ 0000000140000000     torus-twister.obj
 0003:fff88000       $unwind$??1?$_String_val@U?$_Simple_types@D@std@@@std@@QEAA@XZ 0000000140000000     torus-twister.obj
 0003:fff88000       $unwind$??1?$basic_string@DU?$char_traits@D@std@@V?$allocator@D@2@@std@@QEAA@XZ 0000000140000000     torus-twister.obj
 0003:fff88000       $unwind$??1_Bxty@?$_String_val@U?$_Simple_types@D@std@@@std@@QEAA@XZ 0000000140000000     torus-twister.obj
 0003:fff88000       $unwind$??1bad_alloc@std@@UEAA@XZ 0000000140000000     torus-twister.obj
 0003:fff88000       $unwind$??1bad_array_new_length@std@@UEAA@XZ 0000000140000000     torus-twister.obj
 0003:fff88000       $unwind$??1exception@std@@UEAA@XZ 0000000140000000     torus-twister.obj
 0003:fff88000       $unwind$??2@YAPEAX_KPEAX@Z 0000000140000000     torus-twister.obj
 0003:fff88000       $unwind$??R<lambda_1>@?1??assign@?$basic_string@DU?$char_traits@D@std@@V?$allocator@D@2@@std@@QEAAAEAV23@QEBD_K@Z@QEBA@QEAD10@Z 0000000140000000     torus-twister.obj
 0003:fff88000       $unwind$??_Gbad_alloc@std@@UEAAPEAXI@Z 0000000140000000     torus-twister.obj
 0003:fff88000       $unwind$??_Gbad_array_new_length@std@@UEAAPEAXI@Z 0000000140000000     torus-twister.obj
 0003:fff88000       $unwind$??_Gexception@std@@UEAAPEAXI@Z 0000000140000000     torus-twister.obj
 0003:fff88000       $unwind$??_H@YAXPEAX_K1P6APEAX0@Z@Z 0000000140000000     torus-twister.obj
 0003:fff88000       $unwind$?_Adjust_manually_vector_aligned@std@@YAXAEAPEAXAEA_K@Z 0000000140000000     torus-twister.obj
 0003:fff88000       $unwind$?_Allocate@_Default_allocate_traits@std@@SAPEAX_K@Z 0000000140000000     torus-twister.obj
 0003:fff88000       $unwind$?_Calculate_growth@?$basic_string@DU?$char_traits@D@std@@V?$allocator@D@2@@std@@AEBA_K_K@Z 0000000140000000     torus-twister.obj
 0003:fff88000       $unwind$?_Calculate_growth@?$basic_string@DU?$char_traits@D@std@@V?$allocator@D@2@@std@@CA_K_K00@Z 0000000140000000     torus-twister.obj
 0003:fff88000       $unwind$?_Get_first@?$_Compressed_pair@V?$allocator@D@std@@V?$_String_val@U?$_Simple_types@D@std@@@2@$00@std@@QEAAAEAV?$allocator@D@2@XZ 0000000140000000     torus-twister.obj
 0003:fff88000       $unwind$?_Get_first@?$_Compressed_pair@V?$allocator@D@std@@V?$_String_val@U?$_Simple_types@D@std@@@2@$00@std@@QEBAAEBV?$allocator@D@2@XZ 0000000140000000     torus-twister.obj
 0003:fff88000       $unwind$?_Getal@?$basic_string@DU?$char_traits@D@std@@V?$allocator@D@2@@std@@AEAAAEAV?$allocator@D@2@XZ 0000000140000000     torus-twister.obj
 0003:fff88000       $unwind$?_Getal@?$basic_string@DU?$char_traits@D@std@@V?$allocator@D@2@@std@@AEBAAEBV?$allocator@D@2@XZ 0000000140000000     torus-twister.obj
 0003:fff88000       $unwind$?_Large_string_engaged@?$_String_val@U?$_Simple_types@D@std@@@std@@QEBA_NXZ 0000000140000000     torus-twister.obj
 0003:fff88000       $unwind$?_Myptr@?$_String_val@U?$_Simple_types@D@std@@@std@@QEAAPEADXZ 0000000140000000     torus-twister.obj
 0003:fff88000       $unwind$?_Orphan_all@_Container_base12@std@@QEAAXXZ 0000000140000000     torus-twister.obj
 0003:fff88000       $unwind$?_Orphan_all_locked_v3@_Container_base12@std@@AEAAXXZ 0000000140000000     torus-twister.obj
 0003:fff88000       $unwind$?_Orphan_all_unlocked_v3@_Container_base12@std@@AEAAXXZ 0000000140000000     torus-twister.obj
 0003:fff88000       $unwind$?_Release@_Basic_container_proxy_ptr12@std@@QEAAXXZ 0000000140000000     torus-twister.obj
 0003:fff88000       $unwind$?_Throw_bad_array_new_length@std@@YAXXZ 0000000140000000     torus-twister.obj
 0003:fff88000       $unwind$?_Tidy_deallocate@?$basic_string@DU?$char_traits@D@std@@V?$allocator@D@2@@std@@AEAAXXZ 0000000140000000     torus-twister.obj
 0003:fff88000       $unwind$?_Tidy_init@?$basic_string@DU?$char_traits@D@std@@V?$allocator@D@2@@std@@AEAAXXZ 0000000140000000     torus-twister.obj
 0003:fff88000       $unwind$?_Xlen_string@std@@YAXXZ 0000000140000000     torus-twister.obj
 0003:fff88000       $unwind$?allocate@?$allocator@D@std@@QEAAPEAD_K@Z 0000000140000000     torus-twister.obj
 0003:fff88000       $unwind$?allocate@?$allocator@U_Container_proxy@std@@@std@@QEAAPEAU_Container_proxy@2@_K@Z 0000000140000000     torus-twister.obj
 0003:fff88000       $unwind$?assign@?$_Char_traits@DH@std@@SAPEADQEAD_KD@Z 0000000140000000     torus-twister.obj
 0003:fff88000       $unwind$?assign@?$_Narrow_char_traits@DH@std@@SAPEADQEAD_KD@Z 0000000140000000     torus-twister.obj
 0003:fff88000       $unwind$?assign@?$_Narrow_char_traits@DH@std@@SAXAEADAEBD@Z 0000000140000000     torus-twister.obj
 0003:fff88000       $unwind$?assign@?$basic_string@DU?$char_traits@D@std@@V?$allocator@D@2@@std@@QEAAAEAV12@QEBD@Z 0000000140000000     torus-twister.obj
 0003:fff88000       $unwind$?assign@?$basic_string@DU?$char_traits@D@std@@V?$allocator@D@2@@std@@QEAAAEAV12@QEBD_K@Z 0000000140000000     torus-twister.obj
 0003:fff88000       $unwind$?copy@?$_Char_traits@DH@std@@SAPEADQEADQEBD_K@Z 0000000140000000     torus-twister.obj
 0003:fff88000       $unwind$?deallocate@?$_Default_allocator_traits@V?$allocator@U_Container_proxy@std@@@std@@@std@@SAXAEAV?$allocator@U_Container_proxy@std@@@2@QEAU_Container_proxy@2@_K@Z 0000000140000000     torus-twister.obj
 0003:fff88000       $unwind$?deallocate@?$allocator@D@std@@QEAAXQEAD_K@Z 0000000140000000     torus-twister.obj
 0003:fff88000       $unwind$?deallocate@?$allocator@U_Container_proxy@std@@@std@@QEAAXQEAU_Container_proxy@2@_K@Z 0000000140000000     torus-twister.obj
 0003:fff88000       $unwind$?dtor$0@?0???0?$basic_string@DU?$char_traits@D@std@@V?$allocator@D@2@@std@@QEAA@QEBD@Z@4HA 0000000140000000     torus-twister.obj
 0003:fff88000       $unwind$?dtor$1@?0???0?$basic_string@DU?$char_traits@D@std@@V?$allocator@D@2@@std@@QEAA@QEBD@Z@4HA 0000000140000000     torus-twister.obj
 0003:fff88000       $unwind$?is_constant_evaluated@std@@YA_NXZ 0000000140000000     torus-twister.obj
 0003:fff88000       $unwind$?length@?$_Narrow_char_traits@DH@std@@SA_KQEBD@Z 0000000140000000     torus-twister.obj
 0003:fff88000       $unwind$?max@?$numeric_limits@_J@std@@SA_JXZ 0000000140000000     torus-twister.obj
 0003:fff88000       $unwind$?max_size@?$_Default_allocator_traits@V?$allocator@D@std@@@std@@SA_KAEBV?$allocator@D@2@@Z 0000000140000000     torus-twister.obj
 0003:fff88000       $unwind$?max_size@?$basic_string@DU?$char_traits@D@std@@V?$allocator@D@2@@std@@QEBA_KXZ 0000000140000000     torus-twister.obj
 0003:fff88000       $unwind$?move@?$_Char_traits@DH@std@@SAPEADQEADQEBD_K@Z 0000000140000000     torus-twister.obj
 0003:fff88000       $unwind$?what@exception@std@@UEBAPEBDXZ 0000000140000000     torus-twister.obj
 0003:fff88000       ??$_Reallocate_for@V<lambda_1>@?1??assign@?$basic_string@DU?$char_traits@D@std@@V?$allocator@D@2@@std@@QEAAAEAV34@QEBD_K@Z@PEBD@?$basic_string@DU?$char_traits@D@std@@V?$allocator@D@2@@std@@AEAAAEAV01@_KV<lambda_1>@?1??assign@01@QEAAAEAV01@QEBD0@Z@PEBD@Z$rtcName$0 0000000140000000     torus-twister.obj
 0003:fff88000       ??0?$basic_string@DU?$char_traits@D@std@@V?$allocator@D@2@@std@@QEAA@QEBD@Z$rtcName$0 0000000140000000     torus-twister.obj
 0003:fff88000       ??1?$basic_string@DU?$char_traits@D@std@@V?$allocator@D@2@@std@@QEAA@XZ$rtcName$0 0000000140000000     torus-twister.obj
 0003:fff88000       ?_Calculate_growth@?$basic_string@DU?$char_traits@D@std@@V?$allocator@D@2@@std@@CA_K_K00@Z$rtcName$0 0000000140000000     torus-twister.obj
 0003:fff88000       ?_Orphan_all_locked_v3@_Container_base12@std@@AEAAXXZ$rtcName$0 0000000140000000     torus-twister.obj
 0002:fffda000       ?dtor$0@?0???0?$basic_string@DU?$char_traits@D@std@@V?$allocator@D@2@@std@@QEAA@QEBD@Z@4HA 0000000140000000 f   torus-twister.obj
 0002:fffda000       ?dtor$1@?0???0?$basic_string@DU?$char_traits@D@std@@V?$allocator@D@2@@std@@QEAA@QEBD@Z@4HA 0000000140000000 f   torus-twister.obj
 0003:fff88000       ?max_size@?$basic_string@DU?$char_traits@D@std@@V?$allocator@D@2@@std@@QEBA_KXZ$rtcName$0 0000000140000000     torus-twister.obj
 0000:fff56000       _volmd                     0000000140000000     torus-twister.obj
 0000:fff56000       _volmd                     0000000140000000     torus-twister.obj
 0000:fff56000       _volmd                     0000000140000000     torus-twister.obj
 0000:fff56000       _volmd                     0000000140000000     torus-twister.obj
 0000:fff56000       _volmd                     0000000140000000     torus-twister.obj
 0003:fff88000       $cppxdata$??$_Deallocate@$0BA@$0A@@std@@YAXPEAX_K@Z 0000000140000000     tunnelscape.obj
 0003:fff88000       $cppxdata$??$_Deallocate_plain@V?$allocator@U_Container_proxy@std@@@std@@@std@@YAXAEAV?$allocator@U_Container_proxy@std@@@0@QEAU_Container_proxy@0@@Z 0000000140000000     tunnelscape.obj
 0003:fff88000       $cppxdata$??0?$basic_string@DU?$char_traits@D@std@@V?$allocator@D@2@@std@@QEAA@QEBD@Z 0000000140000000     tunnelscape.obj
 0003:fff88000       $cppxdata$?_Tidy_deallocate@?$basic_string@DU?$char_traits@D@std@@V?$allocator@D@2@@std@@AEAAXXZ 0000000140000000     tunnelscape.obj
 0003:fff88000       $cppxdata$?_Tidy_init@?$basic_string@DU?$char_traits@D@std@@V?$allocator@D@2@@std@@AEAAXXZ 0000000140000000     tunnelscape.obj
 0003:fff88000       $ip2state$??$_Deallocate@$0BA@$0A@@std@@YAXPEAX_K@Z 0000000140000000     tunnelscape.obj
 0003:fff88000       $ip2state$??$_Deallocate_plain@V?$allocator@U_Container_proxy@std@@@std@@@std@@YAXAEAV?$allocator@U_Container_proxy@std@@@0@QEAU_Container_proxy@0@@Z 0000000140000000     tunnelscape.obj
 0003:fff88000       $ip2state$??0?$basic_string@DU?$char_traits@D@std@@V?$allocator@D@2@@std@@QEAA@QEBD@Z 0000000140000000     tunnelscape.obj
 0003:fff88000       $ip2state$?_Tidy_deallocate@?$basic_string@DU?$char_traits@D@std@@V?$allocator@D@2@@std@@AEAAXXZ 0000000140000000     tunnelscape.obj
 0003:fff88000       $ip2state$?_Tidy_init@?$basic_string@DU?$char_traits@D@std@@V?$allocator@D@2@@std@@AEAAXXZ 0000000140000000     tunnelscape.obj
 0003:fff88000       $stateUnwindMap$??0?$basic_string@DU?$char_traits@D@std@@V?$allocator@D@2@@std@@QEAA@QEBD@Z 0000000140000000     tunnelscape.obj
 0003:fff88000       $unwind$??$?0$$V@?$_Compressed_pair@V?$allocator@D@std@@V?$_String_val@U?$_Simple_types@D@std@@@2@$00@std@@QEAA@U_Zero_then_variadic_args_t@1@@Z 0000000140000000     tunnelscape.obj
 0003:fff88000       $unwind$??$?0D@?$allocator@U_Container_proxy@std@@@std@@QEAA@AEBV?$allocator@D@1@@Z 0000000140000000     tunnelscape.obj
 0003:fff88000       $unwind$??$_Allocate@$0BA@U_Default_allocate_traits@std@@$0A@@std@@YAPEAX_K@Z 0000000140000000     tunnelscape.obj
 0003:fff88000       $unwind$??$_Allocate_manually_vector_aligned@U_Default_allocate_traits@std@@@std@@YAPEAX_K@Z 0000000140000000     tunnelscape.obj
 0003:fff88000       $unwind$??$_Construct_in_place@PEADAEBQEAD@std@@YAXAEAPEADAEBQEAD@Z 0000000140000000     tunnelscape.obj
 0003:fff88000       $unwind$??$_Construct_in_place@U_Container_proxy@std@@PEAU_Container_base12@2@@std@@YAXAEAU_Container_proxy@0@$$QEAPEAU_Container_base12@0@@Z 0000000140000000     tunnelscape.obj
 0003:fff88000       $unwind$??$_Convert_size@_K@std@@YA_K_K@Z 0000000140000000     tunnelscape.obj
 0003:fff88000       $unwind$??$_Deallocate@$0BA@$0A@@std@@YAXPEAX_K@Z 0000000140000000     tunnelscape.obj
 0003:fff88000       $unwind$??$_Deallocate_plain@V?$allocator@U_Container_proxy@std@@@std@@@std@@YAXAEAV?$allocator@U_Container_proxy@std@@@0@QEAU_Container_proxy@0@@Z 0000000140000000     tunnelscape.obj
 0003:fff88000       $unwind$??$_Delete_plain_internal@V?$allocator@U_Container_proxy@std@@@std@@@std@@YAXAEAV?$allocator@U_Container_proxy@std@@@0@QEAU_Container_proxy@0@@Z 0000000140000000     tunnelscape.obj
 0003:fff88000       $unwind$??$_Destroy_in_place@PEAD@std@@YAXAEAPEAD@Z 0000000140000000     tunnelscape.obj
 0003:fff88000       $unwind$??$_Get_size_of_n@$00@std@@YA_K_K@Z 0000000140000000     tunnelscape.obj
 0003:fff88000       $unwind$??$_Get_size_of_n@$0BA@@std@@YA_K_K@Z 0000000140000000     tunnelscape.obj
 0003:fff88000       $unwind$??$_Reallocate_for@V<lambda_1>@?1??assign@?$basic_string@DU?$char_traits@D@std@@V?$allocator@D@2@@std@@QEAAAEAV34@QEBD_K@Z@PEBD@?$basic_string@DU?$char_traits@D@std@@V?$allocator@D@2@@std@@AEAAAEAV01@_KV<lambda_1>@?1??assign@01@QEAAAEAV01@QEBD0@Z@PEBD@Z 0000000140000000     tunnelscape.obj
 0003:fff88000       $unwind$??$_Unfancy@D@std@@YAPEADPEAD@Z 0000000140000000     tunnelscape.obj
 0003:fff88000       $unwind$??$_Unfancy@U_Container_proxy@std@@@std@@YAPEAU_Container_proxy@0@PEAU10@@Z 0000000140000000     tunnelscape.obj
 0003:fff88000       $unwind$??$_Voidify_iter@PEAD@std@@YAPEAXPEAD@Z 0000000140000000     tunnelscape.obj
 0003:fff88000       $unwind$??$_Voidify_iter@PEAPEAD@std@@YAPEAXPEAPEAD@Z 0000000140000000     tunnelscape.obj
 0003:fff88000       $unwind$??$_Voidify_iter@PEAU_Container_proxy@std@@@std@@YAPEAXPEAU_Container_proxy@0@@Z 0000000140000000     tunnelscape.obj
 0003:fff88000       $unwind$??$addressof@PEAD@std@@YAPEAPEADAEAPEAD@Z 0000000140000000     tunnelscape.obj
 0003:fff88000       $unwind$??$addressof@U_Container_base12@std@@@std@@YAPEAU_Container_base12@0@AEAU10@@Z 0000000140000000     tunnelscape.obj
 0003:fff88000       $unwind$??$addressof@U_Container_proxy@std@@@std@@YAPEAU_Container_proxy@0@AEAU10@@Z 0000000140000000     tunnelscape.obj
 0003:fff88000       $unwind$??$construct_at@DAEBDX@std@@YAPEADQEADAEBD@Z 0000000140000000     tunnelscape.obj
 0003:fff88000       $unwind$??$construct_at@PEADAEBQEADX@std@@YAPEAPEADQEAPEADAEBQEAD@Z 0000000140000000     tunnelscape.obj
 0003:fff88000       $unwind$??$construct_at@U_Container_proxy@std@@PEAU_Container_base12@2@X@std@@YAPEAU_Container_proxy@0@QEAU10@$$QEAPEAU_Container_base12@0@@Z 0000000140000000     tunnelscape.obj
 0003:fff88000       $unwind$??$forward@AEBD@std@@YAAEBDAEBD@Z 0000000140000000     tunnelscape.obj
 0003:fff88000       $unwind$??$forward@AEBQEAD@std@@YAAEBQEADAEBQEAD@Z 0000000140000000     tunnelscape.obj
 0003:fff88000       $unwind$??$forward@PEAU_Container_base12@std@@@std@@YA$$QEAPEAU_Container_base12@0@AEAPEAU10@@Z 0000000140000000     tunnelscape.obj
 0003:fff88000       $unwind$??$max@_K@std@@YAAEB_KAEB_K0@Z 0000000140000000     tunnelscape.obj
 0003:fff88000       $unwind$??$min@_K@std@@YAAEB_KAEB_K0@Z 0000000140000000     tunnelscape.obj
 0003:fff88000       $unwind$??0?$_Container_proxy_ptr12@V?$allocator@U_Container_proxy@std@@@std@@@std@@QEAA@AEAV?$allocator@U_Container_proxy@std@@@1@AEAU_Container_base12@1@@Z 0000000140000000     tunnelscape.obj
 0003:fff88000       $unwind$??0?$_String_val@U?$_Simple_types@D@std@@@std@@QEAA@XZ 0000000140000000     tunnelscape.obj
 0003:fff88000       $unwind$??0?$allocator@D@std@@QEAA@XZ 0000000140000000     tunnelscape.obj
 0003:fff88000       $unwind$??0?$basic_string@DU?$char_traits@D@std@@V?$allocator@D@2@@std@@QEAA@QEBD@Z 0000000140000000     tunnelscape.obj
 0003:fff88000       $unwind$??0_Basic_container_proxy_ptr12@std@@IEAA@XZ 0000000140000000     tunnelscape.obj
 0003:fff88000       $unwind$??0_Bxty@?$_String_val@U?$_Simple_types@D@std@@@std@@QEAA@XZ 0000000140000000     tunnelscape.obj
 0003:fff88000       $unwind$??0_Container_base12@std@@QEAA@XZ 0000000140000000     tunnelscape.obj
 0003:fff88000       $unwind$??0_Container_proxy@std@@QEAA@PEAU_Container_base12@1@@Z 0000000140000000     tunnelscape.obj
 0003:fff88000       $unwind$??0bad_alloc@std@@AEAA@QEBD@Z 0000000140000000     tunnelscape.obj
 0003:fff88000       $unwind$??0bad_alloc@std@@QEAA@AEBV01@@Z 0000000140000000     tunnelscape.obj
 0003:fff88000       $unwind$??0bad_array_new_length@std@@QEAA@AEBV01@@Z 0000000140000000     tunnelscape.obj
 0003:fff88000       $unwind$??0bad_array_new_length@std@@QEAA@XZ 0000000140000000     tunnelscape.obj
 0003:fff88000       $unwind$??0exception@std@@QEAA@AEBV01@@Z 0000000140000000     tunnelscape.obj
 0003:fff88000       $unwind$??0exception@std@@QEAA@QEBDH@Z 0000000140000000     tunnelscape.obj
 0003:fff88000       $unwind$??1?$_Compressed_pair@V?$allocator@D@std@@V?$_String_val@U?$_Simple_types@D@std@@@2@$00@std@@QEAA@XZ 0000000140000000     tunnelscape.obj
 0003:fff88000       $unwind$??1?$_Container_proxy_ptr12@V?$allocator@U_Container_proxy@std@@@std@@@std@@QEAA@XZ 0000000140000000     tunnelscape.obj
 0003:fff88000       $unwind$??1?$_String_val@U?$_Simple_types@D@std@@@std@@QEAA@XZ 0000000140000000     tunnelscape.obj
 0003:fff88000       $unwind$??1?$basic_string@DU?$char_traits@D@std@@V?$allocator@D@2@@std@@QEAA@XZ 0000000140000000     tunnelscape.obj
 0003:fff88000       $unwind$??1_Bxty@?$_String_val@U?$_Simple_types@D@std@@@std@@QEAA@XZ 0000000140000000     tunnelscape.obj
 0003:fff88000       $unwind$??1bad_alloc@std@@UEAA@XZ 0000000140000000     tunnelscape.obj
 0003:fff88000       $unwind$??1bad_array_new_length@std@@UEAA@XZ 0000000140000000     tunnelscape.obj
 0003:fff88000       $unwind$??1exception@std@@UEAA@XZ 0000000140000000     tunnelscape.obj
 0003:fff88000       $unwind$??2@YAPEAX_KPEAX@Z 0000000140000000     tunnelscape.obj
 0003:fff88000       $unwind$??R<lambda_1>@?1??assign@?$basic_string@DU?$char_traits@D@std@@V?$allocator@D@2@@std@@QEAAAEAV23@QEBD_K@Z@QEBA@QEAD10@Z 0000000140000000     tunnelscape.obj
 0003:fff88000       $unwind$??_Gbad_alloc@std@@UEAAPEAXI@Z 0000000140000000     tunnelscape.obj
 0003:fff88000       $unwind$??_Gbad_array_new_length@std@@UEAAPEAXI@Z 0000000140000000     tunnelscape.obj
 0003:fff88000       $unwind$??_Gexception@std@@UEAAPEAXI@Z 0000000140000000     tunnelscape.obj
 0003:fff88000       $unwind$??_H@YAXPEAX_K1P6APEAX0@Z@Z 0000000140000000     tunnelscape.obj
 0003:fff88000       $unwind$?_Adjust_manually_vector_aligned@std@@YAXAEAPEAXAEA_K@Z 0000000140000000     tunnelscape.obj
 0003:fff88000       $unwind$?_Allocate@_Default_allocate_traits@std@@SAPEAX_K@Z 0000000140000000     tunnelscape.obj
 0003:fff88000       $unwind$?_Calculate_growth@?$basic_string@DU?$char_traits@D@std@@V?$allocator@D@2@@std@@AEBA_K_K@Z 0000000140000000     tunnelscape.obj
 0003:fff88000       $unwind$?_Calculate_growth@?$basic_string@DU?$char_traits@D@std@@V?$allocator@D@2@@std@@CA_K_K00@Z 0000000140000000     tunnelscape.obj
 0003:fff88000       $unwind$?_Get_first@?$_Compressed_pair@V?$allocator@D@std@@V?$_String_val@U?$_Simple_types@D@std@@@2@$00@std@@QEAAAEAV?$allocator@D@2@XZ 0000000140000000     tunnelscape.obj
 0003:fff88000       $unwind$?_Get_first@?$_Compressed_pair@V?$allocator@D@std@@V?$_String_val@U?$_Simple_types@D@std@@@2@$00@std@@QEBAAEBV?$allocator@D@2@XZ 0000000140000000     tunnelscape.obj
 0003:fff88000       $unwind$?_Getal@?$basic_string@DU?$char_traits@D@std@@V?$allocator@D@2@@std@@AEAAAEAV?$allocator@D@2@XZ 0000000140000000     tunnelscape.obj
 0003:fff88000       $unwind$?_Getal@?$basic_string@DU?$char_traits@D@std@@V?$allocator@D@2@@std@@AEBAAEBV?$allocator@D@2@XZ 0000000140000000     tunnelscape.obj
 0003:fff88000       $unwind$?_Large_string_engaged@?$_String_val@U?$_Simple_types@D@std@@@std@@QEBA_NXZ 0000000140000000     tunnelscape.obj
 0003:fff88000       $unwind$?_Myptr@?$_String_val@U?$_Simple_types@D@std@@@std@@QEAAPEADXZ 0000000140000000     tunnelscape.obj
 0003:fff88000       $unwind$?_Orphan_all@_Container_base12@std@@QEAAXXZ 0000000140000000     tunnelscape.obj
 0003:fff88000       $unwind$?_Orphan_all_locked_v3@_Container_base12@std@@AEAAXXZ 0000000140000000     tunnelscape.obj
 0003:fff88000       $unwind$?_Orphan_all_unlocked_v3@_Container_base12@std@@AEAAXXZ 0000000140000000     tunnelscape.obj
 0003:fff88000       $unwind$?_Release@_Basic_container_proxy_ptr12@std@@QEAAXXZ 0000000140000000     tunnelscape.obj
 0003:fff88000       $unwind$?_Throw_bad_array_new_length@std@@YAXXZ 0000000140000000     tunnelscape.obj
 0003:fff88000       $unwind$?_Tidy_deallocate@?$basic_string@DU?$char_traits@D@std@@V?$allocator@D@2@@std@@AEAAXXZ 0000000140000000     tunnelscape.obj
 0003:fff88000       $unwind$?_Tidy_init@?$basic_string@DU?$char_traits@D@std@@V?$allocator@D@2@@std@@AEAAXXZ 0000000140000000     tunnelscape.obj
 0003:fff88000       $unwind$?_Xlen_string@std@@YAXXZ 0000000140000000     tunnelscape.obj
 0003:fff88000       $unwind$?allocate@?$allocator@D@std@@QEAAPEAD_K@Z 0000000140000000     tunnelscape.obj
 0003:fff88000       $unwind$?allocate@?$allocator@U_Container_proxy@std@@@std@@QEAAPEAU_Container_proxy@2@_K@Z 0000000140000000     tunnelscape.obj
 0003:fff88000       $unwind$?assign@?$_Char_traits@DH@std@@SAPEADQEAD_KD@Z 0000000140000000     tunnelscape.obj
 0003:fff88000       $unwind$?assign@?$_Narrow_char_traits@DH@std@@SAPEADQEAD_KD@Z 0000000140000000     tunnelscape.obj
 0003:fff88000       $unwind$?assign@?$_Narrow_char_traits@DH@std@@SAXAEADAEBD@Z 0000000140000000     tunnelscape.obj
 0003:fff88000       $unwind$?assign@?$basic_string@DU?$char_traits@D@std@@V?$allocator@D@2@@std@@QEAAAEAV12@QEBD@Z 0000000140000000     tunnelscape.obj
 0003:fff88000       $unwind$?assign@?$basic_string@DU?$char_traits@D@std@@V?$allocator@D@2@@std@@QEAAAEAV12@QEBD_K@Z 0000000140000000     tunnelscape.obj
 0003:fff88000       $unwind$?copy@?$_Char_traits@DH@std@@SAPEADQEADQEBD_K@Z 0000000140000000     tunnelscape.obj
 0003:fff88000       $unwind$?deallocate@?$_Default_allocator_traits@V?$allocator@U_Container_proxy@std@@@std@@@std@@SAXAEAV?$allocator@U_Container_proxy@std@@@2@QEAU_Container_proxy@2@_K@Z 0000000140000000     tunnelscape.obj
 0003:fff88000       $unwind$?deallocate@?$allocator@D@std@@QEAAXQEAD_K@Z 0000000140000000     tunnelscape.obj
 0003:fff88000       $unwind$?deallocate@?$allocator@U_Container_proxy@std@@@std@@QEAAXQEAU_Container_proxy@2@_K@Z 0000000140000000     tunnelscape.obj
 0003:fff88000       $unwind$?dtor$0@?0???0?$basic_string@DU?$char_traits@D@std@@V?$allocator@D@2@@std@@QEAA@QEBD@Z@4HA 0000000140000000     tunnelscape.obj
 0003:fff88000       $unwind$?dtor$1@?0???0?$basic_string@DU?$char_traits@D@std@@V?$allocator@D@2@@std@@QEAA@QEBD@Z@4HA 0000000140000000     tunnelscape.obj
 0003:fff88000       $unwind$?is_constant_evaluated@std@@YA_NXZ 0000000140000000     tunnelscape.obj
 0003:fff88000       $unwind$?length@?$_Narrow_char_traits@DH@std@@SA_KQEBD@Z 0000000140000000     tunnelscape.obj
 0003:fff88000       $unwind$?max@?$numeric_limits@_J@std@@SA_JXZ 0000000140000000     tunnelscape.obj
 0003:fff88000       $unwind$?max_size@?$_Default_allocator_traits@V?$allocator@D@std@@@std@@SA_KAEBV?$allocator@D@2@@Z 0000000140000000     tunnelscape.obj
 0003:fff88000       $unwind$?max_size@?$basic_string@DU?$char_traits@D@std@@V?$allocator@D@2@@std@@QEBA_KXZ 0000000140000000     tunnelscape.obj
 0003:fff88000       $unwind$?move@?$_Char_traits@DH@std@@SAPEADQEADQEBD_K@Z 0000000140000000     tunnelscape.obj
 0003:fff88000       $unwind$?what@exception@std@@UEBAPEBDXZ 0000000140000000     tunnelscape.obj
 0003:fff88000       ??$_Reallocate_for@V<lambda_1>@?1??assign@?$basic_string@DU?$char_traits@D@std@@V?$allocator@D@2@@std@@QEAAAEAV34@QEBD_K@Z@PEBD@?$basic_string@DU?$char_traits@D@std@@V?$allocator@D@2@@std@@AEAAAEAV01@_KV<lambda_1>@?1??assign@01@QEAAAEAV01@QEBD0@Z@PEBD@Z$rtcName$0 0000000140000000     tunnelscape.obj
 0003:fff88000       ??0?$basic_string@DU?$char_traits@D@std@@V?$allocator@D@2@@std@@QEAA@QEBD@Z$rtcName$0 0000000140000000     tunnelscape.obj
 0003:fff88000       ??1?$basic_string@DU?$char_traits@D@std@@V?$allocator@D@2@@std@@QEAA@XZ$rtcName$0 0000000140000000     tunnelscape.obj
 0003:fff88000       ?_Calculate_growth@?$basic_string@DU?$char_traits@D@std@@V?$allocator@D@2@@std@@CA_K_K00@Z$rtcName$0 0000000140000000     tunnelscape.obj
 0003:fff88000       ?_Orphan_all_locked_v3@_Container_base12@std@@AEAAXXZ$rtcName$0 0000000140000000     tunnelscape.obj
 0002:fffda000       ?dtor$0@?0???0?$basic_string@DU?$char_traits@D@std@@V?$allocator@D@2@@std@@QEAA@QEBD@Z@4HA 0000000140000000 f   tunnelscape.obj
 0002:fffda000       ?dtor$1@?0???0?$basic_string@DU?$char_traits@D@std@@V?$allocator@D@2@@std@@QEAA@QEBD@Z@4HA 0000000140000000 f   tunnelscape.obj
 0003:fff88000       ?max_size@?$basic_string@DU?$char_traits@D@std@@V?$allocator@D@2@@std@@QEBA_KXZ$rtcName$0 0000000140000000     tunnelscape.obj
 0000:fff56000       _volmd                     0000000140000000     tunnelscape.obj
 0000:fff56000       _volmd                     0000000140000000     tunnelscape.obj
 0000:fff56000       _volmd                     0000000140000000     tunnelscape.obj
 0000:fff56000       _volmd                     0000000140000000     tunnelscape.obj
 0000:fff56000       _volmd                     0000000140000000     tunnelscape.obj
 0003:fff88000       $unwind$??$max@M@std@@YAAEBMAEBM0@Z 0000000140000000     util.obj
 0003:fff88000       $unwind$??$min@I@std@@YAAEBIAEBI0@Z 0000000140000000     util.obj
 0003:fff88000       $unwind$??$min@M@std@@YAAEBMAEBM0@Z 0000000140000000     util.obj
 0003:fff88000       $unwind$??_H@YAXPEAX_K1P6APEAX0@Z@Z 0000000140000000     util.obj
 0000:fff53000       .debug$S                   0000000140000000     DevIL:DevIL.dll
 0000:fff53000       .debug$S                   0000000140000000     DevIL:DevIL.dll
 0000:fff53000       .debug$S                   0000000140000000     DevIL:DevIL.dll
 0000:fff53000       .debug$S                   0000000140000000     DevIL:DevIL.dll
 0000:fff53000       .debug$S                   0000000140000000     DevIL:DevIL.dll
 0000:fff53000       .debug$S                   0000000140000000     DevIL:DevIL.dll
 0000:fff53000       .debug$S                   0000000140000000     DevIL:DevIL.dll
 0000:fff53000       .debug$S                   0000000140000000     DevIL:DevIL.dll
 0000:fff53000       .debug$S                   0000000140000000     DevIL:DevIL.dll
 0000:fff53000       .debug$S                   0000000140000000     DevIL:DevIL.dll
 0000:fff53000       .debug$S                   0000000140000000     DevIL:DevIL.dll
 0000:fff53000       .debug$S                   0000000140000000     SDL2:SDL2.dll
 0000:fff53000       .debug$S                   0000000140000000     SDL2:SDL2.dll
 0000:fff53000       .debug$S                   0000000140000000     SDL2:SDL2.dll
 0000:fff53000       .debug$S                   0000000140000000     SDL2:SDL2.dll
 0000:fff53000       .debug$S                   0000000140000000     SDL2:SDL2.dll
 0000:fff53000       .debug$S                   0000000140000000     SDL2:SDL2.dll
 0000:fff53000       .debug$S                   0000000140000000     SDL2:SDL2.dll
 0000:fff53000       .debug$S                   0000000140000000     SDL2:SDL2.dll
 0000:fff53000       .debug$S                   0000000140000000     SDL2:SDL2.dll
 0000:fff53000       .debug$S                   0000000140000000     SDL2:SDL2.dll
 0000:fff53000       .debug$S                   0000000140000000     SDL2:SDL2.dll
 0000:fff53000       .debug$S                   0000000140000000     SDL2:SDL2.dll
 0000:fff53000       .debug$S                   0000000140000000     SDL2:SDL2.dll
 0000:fff53000       .debug$S                   0000000140000000     SDL2:SDL2.dll
 0000:fff53000       .debug$S                   0000000140000000     SDL2:SDL2.dll
 0000:fff53000       .debug$S                   0000000140000000     SDL2:SDL2.dll
 0000:fff53000       .debug$S                   0000000140000000     SDL2:SDL2.dll
 0000:fff53000       .debug$S                   0000000140000000     SDL2:SDL2.dll
 0000:fff53000       .debug$S                   0000000140000000     SDL2:SDL2.dll
 0000:fff53000       .debug$S                   0000000140000000     SDL2:SDL2.dll
 0000:fff53000       .debug$S                   0000000140000000     SDL2:SDL2.dll
 0000:fff53000       .debug$S                   0000000140000000     SDL2:SDL2.dll
 0000:fff53000       .debug$S                   0000000140000000     SDL2:SDL2.dll
 0000:fff53000       .debug$S                   0000000140000000     SDL2:SDL2.dll
 0000:fff53000       .debug$S                   0000000140000000     SDL2:SDL2.dll
 0000:fff53000       .debug$S                   0000000140000000     SDL2:SDL2.dll
 0000:fff53000       .debug$S                   0000000140000000     SDL2:SDL2.dll
 0000:fff53000       .debug$S                   0000000140000000     SDL2:SDL2.dll
 0000:fff53000       .debug$S                   0000000140000000     SDL2:SDL2.dll
 0000:fff53000       .debug$S                   0000000140000000     SDL2:SDL2.dll
 0000:fff53000       .debug$S                   0000000140000000     bass:BASS.dll
 0000:fff53000       .debug$S                   0000000140000000     bass:BASS.dll
 0000:fff53000       .debug$S                   0000000140000000     bass:BASS.dll
 0000:fff53000       .debug$S                   0000000140000000     bass:BASS.dll
 0000:fff53000       .debug$S                   0000000140000000     bass:BASS.dll
 0000:fff53000       .debug$S                   0000000140000000     bass:BASS.dll
 0000:fff53000       .debug$S                   0000000140000000     bass:BASS.dll
 0000:fff53000       .debug$S                   0000000140000000     bass:BASS.dll
 0000:fff53000       .debug$S                   0000000140000000     bass:BASS.dll
 0000:fff53000       .debug$S                   0000000140000000     bass:BASS.dll
 0000:fff53000       .debug$S                   0000000140000000     bass:BASS.dll
 0000:fff53000       .debug$S                   0000000140000000     bass:BASS.dll
 0000:fff53000       .debug$S                   0000000140000000     bass:BASS.dll
 0000:fff56000       _volmd                     0000000140000000     MSVCRTD:cpu_disp.obj
 0000:fff57000       __guard_ehcont_?notify_debugger@@YAXAEBUtagEXCEPTION_VISUALCPP_DEBUG_INFO@@@Z 0000000140000000     MSVCRTD:error.obj
 0003:fff88000       $unwind$?configure_argv@__scrt_narrow_argv_policy@@SAHXZ 0000000140000000     MSVCRTD:exe_winmain.obj
 0003:fff88000       $unwind$?initialize_environment@__scrt_narrow_environment_policy@@SAHXZ 0000000140000000     MSVCRTD:exe_winmain.obj
 0000:fff57000       __guard_ehcont_?__scrt_common_main_seh@@YAHXZ 0000000140000000     MSVCRTD:exe_winmain.obj
 0000:fff57000       __guard_fids_?pre_c_initialization@@YAHXZ 0000000140000000     MSVCRTD:exe_winmain.obj
 0000:fff57000       __guard_fids__             0000000140000000     MSVCRTD:exe_winmain.obj
 0000:fff56000       _volmd                     0000000140000000     MSVCRTD:gs_report.obj
 0000:fff56000       _volmd                     0000000140000000     MSVCRTD:gs_report.obj
 0000:fff56000       _volmd                     0000000140000000     MSVCRTD:gs_report.obj
 0000:fff57000       __guard_fids__             0000000140000000     MSVCRTD:guard_support.obj
 0000:fff57000       __guard_fids__             0000000140000000     MSVCRTD:guard_support.obj
 0000:fff57000       __guard_fids__guard_icall_checks_enforced 0000000140000000     MSVCRTD:guard_support.obj
 0000:fff56000       _volmd                     0000000140000000     MSVCRTD:guard_support.obj
 0000:fff56000       _volmd                     0000000140000000     MSVCRTD:guard_support.obj
 0000:fff56000       _volmd                     0000000140000000     MSVCRTD:guard_support.obj
 0000:fff57000       __guard_fids__CRT_RTC_INIT 0000000140000000     MSVCRTD:init.obj
 0000:fff57000       __guard_fids__CRT_RTC_INITW 0000000140000000     MSVCRTD:init.obj
 0000:fff57000       __guard_fids__             0000000140000000     MSVCRTD:std_type_info_static.obj
 0003:fff88000       $unwind$??0bad_alloc@std@@AEAA@QEBD@Z 0000000140000000     MSVCRTD:throw_bad_alloc.obj
 0003:fff88000       $unwind$??0bad_alloc@std@@QEAA@AEBV01@@Z 0000000140000000     MSVCRTD:throw_bad_alloc.obj
 0003:fff88000       $unwind$??0bad_array_new_length@std@@QEAA@AEBV01@@Z 0000000140000000     MSVCRTD:throw_bad_alloc.obj
 0003:fff88000       $unwind$??0bad_array_new_length@std@@QEAA@XZ 0000000140000000     MSVCRTD:throw_bad_alloc.obj
 0003:fff88000       $unwind$??0exception@std@@QEAA@AEBV01@@Z 0000000140000000     MSVCRTD:throw_bad_alloc.obj
 0003:fff88000       $unwind$??0exception@std@@QEAA@QEBDH@Z 0000000140000000     MSVCRTD:throw_bad_alloc.obj
 0003:fff88000       $unwind$??1bad_alloc@std@@UEAA@XZ 0000000140000000     MSVCRTD:throw_bad_alloc.obj
 0003:fff88000       $unwind$??1bad_array_new_length@std@@UEAA@XZ 0000000140000000     MSVCRTD:throw_bad_alloc.obj
 0003:fff88000       $unwind$??1exception@std@@UEAA@XZ 0000000140000000     MSVCRTD:throw_bad_alloc.obj
 0003:fff88000       $unwind$??_Gbad_alloc@std@@UEAAPEAXI@Z 0000000140000000     MSVCRTD:throw_bad_alloc.obj
 0003:fff88000       $unwind$??_Gbad_array_new_length@std@@UEAAPEAXI@Z 0000000140000000     MSVCRTD:throw_bad_alloc.obj
 0003:fff88000       $unwind$??_Gexception@std@@UEAAPEAXI@Z 0000000140000000     MSVCRTD:throw_bad_alloc.obj
 0003:fff88000       $unwind$?what@exception@std@@UEBAPEBDXZ 0000000140000000     MSVCRTD:throw_bad_alloc.obj
 0000:fff57000       __guard_fids__             0000000140000000     MSVCRTD:throw_bad_alloc.obj
 0000:fff57000       __guard_fids__             0000000140000000     MSVCRTD:throw_bad_alloc.obj
 0000:fff57000       __guard_fids__             0000000140000000     MSVCRTD:throw_bad_alloc.obj
 0000:fff57000       __guard_ehcont___scrt_is_nonwritable_in_current_image 0000000140000000     MSVCRTD:utility.obj
 0000:fff56000       _volmd                     0000000140000000     MSVCRTD:utility.obj
 0000:fff56000       _volmd                     0000000140000000     MSVCRTD:utility.obj
 0000:fff56000       _volmd                     0000000140000000     MSVCRTD:utility.obj
 0000:fff57000       __guard_fids___scrt_set_unhandled_exception_filter 0000000140000000     MSVCRTD:utility_desktop.obj
 0000:fff56000       _volmd                     0000000140000000     MSVCRTD:utility_desktop.obj
 0000:fff53000       .debug$S                   0000000140000000     VCOMPD:VCOMP140D.DLL
 0000:fff53000       .debug$S                   0000000140000000     VCOMPD:VCOMP140D.DLL
 0000:fff53000       .debug$S                   0000000140000000     VCOMPD:VCOMP140D.DLL
 0000:fff53000       .debug$S                   0000000140000000     VCOMPD:VCOMP140D.DLL
 0000:fff53000       .debug$S                   0000000140000000     VCOMPD:VCOMP140D.DLL
 0000:fff56000       _volmd                     0000000140000000     msvcprtd:filesystem.obj
 0000:fff56000       _volmd                     0000000140000000     msvcprtd:filesystem.obj
 0000:fff56000       _volmd                     0000000140000000     msvcprtd:filesystem.obj
 0000:fff56000       _volmd                     0000000140000000     msvcprtd:filesystem.obj
 0000:fff56000       _volmd                     0000000140000000     msvcprtd:filesystem.obj
 0000:fff56000       _volmd                     0000000140000000     msvcprtd:filesystem.obj
 0000:fff53000       .debug$S                   0000000140000000     msvcprtd:MSVCP140D.dll
 0000:fff53000       .debug$S                   0000000140000000     msvcprtd:MSVCP140D.dll
 0000:fff53000       .debug$S                   0000000140000000     msvcprtd:MSVCP140D.dll
 0000:fff53000       .debug$S                   0000000140000000     msvcprtd:MSVCP140D.dll
 0000:fff53000       .debug$S                   0000000140000000     msvcprtd:MSVCP140D.dll
 0000:fff53000       .debug$S                   0000000140000000     msvcprtd:MSVCP140D.dll
 0000:fff53000       .debug$S                   0000000140000000     msvcprtd:MSVCP140D.dll
 0000:fff53000       .debug$S                   0000000140000000     msvcprtd:MSVCP140D.dll
 0000:fff53000       .debug$S                   0000000140000000     msvcprtd:MSVCP140D.dll
 0000:fff53000       .debug$S                   0000000140000000     msvcprtd:MSVCP140D.dll
 0000:fff53000       .debug$S                   0000000140000000     msvcprtd:MSVCP140D.dll
 0000:fff53000       .debug$S                   0000000140000000     msvcprtd:MSVCP140D.dll
 0000:fff53000       .debug$S                   0000000140000000     vcruntimed:VCRUNTIME140D.dll
 0000:fff53000       .debug$S                   0000000140000000     vcruntimed:VCRUNTIME140D.dll
 0000:fff53000       .debug$S                   0000000140000000     vcruntimed:VCRUNTIME140D.dll
 0000:fff53000       .debug$S                   0000000140000000     vcruntimed:VCRUNTIME140D.dll
 0000:fff53000       .debug$S                   0000000140000000     vcruntimed:VCRUNTIME140D.dll
 0000:fff53000       .debug$S                   0000000140000000     vcruntimed:VCRUNTIME140D.dll
 0000:fff53000       .debug$S                   0000000140000000     vcruntimed:VCRUNTIME140D.dll
 0000:fff53000       .debug$S                   0000000140000000     vcruntimed:VCRUNTIME140D.dll
 0000:fff53000       .debug$S                   0000000140000000     vcruntimed:VCRUNTIME140D.dll
 0000:fff53000       .debug$S                   0000000140000000     vcruntimed:VCRUNTIME140D.dll
 0000:fff53000       .debug$S                   0000000140000000     vcruntimed:VCRUNTIME140D.dll
 0000:fff53000       .debug$S                   0000000140000000     vcruntimed:VCRUNTIME140D.dll
 0000:fff53000       .debug$S                   0000000140000000     vcruntimed:VCRUNTIME140D.dll
 0000:fff53000       .debug$S                   0000000140000000     vcruntimed:VCRUNTIME140D.dll
 0000:fff53000       .debug$S                   0000000140000000     vcruntimed:VCRUNTIME140D.dll
 0000:fff53000       .debug$S                   0000000140000000     vcruntimed:VCRUNTIME140_1D.dll
 0000:fff53000       .debug$S                   0000000140000000     ucrtd:ucrtbased.dll
 0000:fff53000       .debug$S                   0000000140000000     ucrtd:ucrtbased.dll
 0000:fff53000       .debug$S                   0000000140000000     ucrtd:ucrtbased.dll
 0000:fff53000       .debug$S                   0000000140000000     ucrtd:ucrtbased.dll
 0000:fff53000       .debug$S                   0000000140000000     ucrtd:ucrtbased.dll
 0000:fff53000       .debug$S                   0000000140000000     ucrtd:ucrtbased.dll
 0000:fff53000       .debug$S                   0000000140000000     ucrtd:ucrtbased.dll
 0000:fff53000       .debug$S                   0000000140000000     ucrtd:ucrtbased.dll
 0000:fff53000       .debug$S                   0000000140000000     ucrtd:ucrtbased.dll
 0000:fff53000       .debug$S                   0000000140000000     ucrtd:ucrtbased.dll
 0000:fff53000       .debug$S                   0000000140000000     ucrtd:ucrtbased.dll
 0000:fff53000       .debug$S                   0000000140000000     ucrtd:ucrtbased.dll
 0000:fff53000       .debug$S                   0000000140000000     ucrtd:ucrtbased.dll
 0000:fff53000       .debug$S                   0000000140000000     ucrtd:ucrtbased.dll
 0000:fff53000       .debug$S                   0000000140000000     ucrtd:ucrtbased.dll
 0000:fff53000       .debug$S                   0000000140000000     ucrtd:ucrtbased.dll
 0000:fff53000       .debug$S                   0000000140000000     ucrtd:ucrtbased.dll
 0000:fff53000       .debug$S                   0000000140000000     ucrtd:ucrtbased.dll
 0000:fff53000       .debug$S                   0000000140000000     ucrtd:ucrtbased.dll
 0000:fff53000       .debug$S                   0000000140000000     ucrtd:ucrtbased.dll
 0000:fff53000       .debug$S                   0000000140000000     ucrtd:ucrtbased.dll
 0000:fff53000       .debug$S                   0000000140000000     ucrtd:ucrtbased.dll
 0000:fff53000       .debug$S                   0000000140000000     ucrtd:ucrtbased.dll
 0000:fff53000       .debug$S                   0000000140000000     ucrtd:ucrtbased.dll
 0000:fff53000       .debug$S                   0000000140000000     ucrtd:ucrtbased.dll
 0000:fff53000       .debug$S                   0000000140000000     ucrtd:ucrtbased.dll
 0000:fff53000       .debug$S                   0000000140000000     ucrtd:ucrtbased.dll
 0000:fff53000       .debug$S                   0000000140000000     ucrtd:ucrtbased.dll
 0000:fff53000       .debug$S                   0000000140000000     ucrtd:ucrtbased.dll
 0000:fff53000       .debug$S                   0000000140000000     ucrtd:ucrtbased.dll
 0000:fff53000       .debug$S                   0000000140000000     ucrtd:ucrtbased.dll
 0000:fff53000       .debug$S                   0000000140000000     ucrtd:ucrtbased.dll
 0000:fff53000       .debug$S                   0000000140000000     ucrtd:ucrtbased.dll
 0000:fff53000       .debug$S                   0000000140000000     ucrtd:ucrtbased.dll
 0000:fff53000       .debug$S                   0000000140000000     ucrtd:ucrtbased.dll
 0000:fff53000       .debug$S                   0000000140000000     ucrtd:ucrtbased.dll
 0000:fff53000       .debug$S                   0000000140000000     ucrtd:ucrtbased.dll
 0000:fff53000       .debug$S                   0000000140000000     ucrtd:ucrtbased.dll
 0000:fff53000       .debug$S                   0000000140000000     ucrtd:ucrtbased.dll
 0000:fff53000       .debug$S                   0000000140000000     ucrtd:ucrtbased.dll
 0000:fff53000       .debug$S                   0000000140000000     ucrtd:ucrtbased.dll
 0000:fff53000       .debug$S                   0000000140000000     ucrtd:ucrtbased.dll
 0000:fff53000       .debug$S                   0000000140000000     ucrtd:ucrtbased.dll
 0000:fff53000       .debug$S                   0000000140000000     ucrtd:ucrtbased.dll
 0000:fff53000       .debug$S                   0000000140000000     ucrtd:ucrtbased.dll
 0000:fff53000       .debug$S                   0000000140000000     ucrtd:ucrtbased.dll
 0000:fff53000       .debug$S                   0000000140000000     ucrtd:ucrtbased.dll
 0000:fff53000       .debug$S                   0000000140000000     ucrtd:ucrtbased.dll
 0000:fff53000       .debug$S                   0000000140000000     ucrtd:ucrtbased.dll
 0000:fff53000       .debug$S                   0000000140000000     ucrtd:ucrtbased.dll
 0000:fff53000       .debug$S                   0000000140000000     ucrtd:ucrtbased.dll
 0000:fff53000       .debug$S                   0000000140000000     ucrtd:ucrtbased.dll
 0000:fff53000       .debug$S                   0000000140000000     ucrtd:ucrtbased.dll
 0000:fff53000       .debug$S                   0000000140000000     ucrtd:ucrtbased.dll
 0000:fff53000       .debug$S                   0000000140000000     ucrtd:ucrtbased.dll
 0000:fff53000       .debug$S                   0000000140000000     ucrtd:ucrtbased.dll
 0000:fff53000       .debug$S                   0000000140000000     ucrtd:ucrtbased.dll
 0000:fff53000       .debug$S                   0000000140000000     ucrtd:ucrtbased.dll
 0000:fff53000       .debug$S                   0000000140000000     ucrtd:ucrtbased.dll
 0000:fff53000       .debug$S                   0000000140000000     ucrtd:ucrtbased.dll
 0000:fff53000       .debug$S                   0000000140000000     ucrtd:ucrtbased.dll
 0000:fff53000       .debug$S                   0000000140000000     ucrtd:ucrtbased.dll
 0000:fff53000       .debug$S                   0000000140000000     ucrtd:ucrtbased.dll
 0000:fff53000       .debug$S                   0000000140000000     ucrtd:ucrtbased.dll
 0000:fff53000       .debug$S                   0000000140000000     ucrtd:ucrtbased.dll
 0000:fff53000       .debug$S                   0000000140000000     ucrtd:ucrtbased.dll
 0000:fff53000       .debug$S                   0000000140000000     ucrtd:ucrtbased.dll
 0000:fff53000       .debug$S                   0000000140000000     ucrtd:ucrtbased.dll
 0000:fff53000       .debug$S                   0000000140000000     ucrtd:ucrtbased.dll
 0000:fff53000       .debug$S                   0000000140000000     ucrtd:ucrtbased.dll
 0000:fff53000       .debug$S                   0000000140000000     ucrtd:ucrtbased.dll
 0000:fff53000       .debug$S                   0000000140000000     ucrtd:ucrtbased.dll
 0000:fff53000       .debug$S                   0000000140000000     ucrtd:ucrtbased.dll
 0000:fff53000       .debug$S                   0000000140000000     ucrtd:ucrtbased.dll
 0000:fff53000       .debug$S                   0000000140000000     ucrtd:ucrtbased.dll
 0000:fff53000       .debug$S                   0000000140000000     ucrtd:ucrtbased.dll
 0000:fff53000       .debug$S                   0000000140000000     ucrtd:ucrtbased.dll
 0000:fff53000       .debug$S                   0000000140000000     ucrtd:ucrtbased.dll
 0000:fff53000       .debug$S                   0000000140000000     ucrtd:ucrtbased.dll
 0000:fff53000       .debug$S                   0000000140000000     ucrtd:ucrtbased.dll
 0000:fff53000       .debug$S                   0000000140000000     ucrtd:ucrtbased.dll
 0000:fff53000       .debug$S                   0000000140000000     kernel32:KERNEL32.dll
 0000:fff53000       .debug$S                   0000000140000000     kernel32:KERNEL32.dll
 0000:fff53000       .debug$S                   0000000140000000     kernel32:KERNEL32.dll
 0000:fff53000       .debug$S                   0000000140000000     kernel32:KERNEL32.dll
 0000:fff53000       .debug$S                   0000000140000000     kernel32:KERNEL32.dll
 0000:fff53000       .debug$S                   0000000140000000     kernel32:KERNEL32.dll
 0000:fff53000       .debug$S                   0000000140000000     kernel32:KERNEL32.dll
 0000:fff53000       .debug$S                   0000000140000000     kernel32:KERNEL32.dll
 0000:fff53000       .debug$S                   0000000140000000     kernel32:KERNEL32.dll
 0000:fff53000       .debug$S                   0000000140000000     kernel32:KERNEL32.dll
 0000:fff53000       .debug$S                   0000000140000000     kernel32:KERNEL32.dll
 0000:fff53000       .debug$S                   0000000140000000     kernel32:KERNEL32.dll
 0000:fff53000       .debug$S                   0000000140000000     kernel32:KERNEL32.dll
 0000:fff53000       .debug$S                   0000000140000000     kernel32:KERNEL32.dll
 0000:fff53000       .debug$S                   0000000140000000     kernel32:KERNEL32.dll
 0000:fff53000       .debug$S                   0000000140000000     kernel32:KERNEL32.dll
 0000:fff53000       .debug$S                   0000000140000000     kernel32:KERNEL32.dll
 0000:fff53000       .debug$S                   0000000140000000     kernel32:KERNEL32.dll
 0000:fff53000       .debug$S                   0000000140000000     kernel32:KERNEL32.dll
 0000:fff53000       .debug$S                   0000000140000000     kernel32:KERNEL32.dll
 0000:fff53000       .debug$S                   0000000140000000     kernel32:KERNEL32.dll
 0000:fff53000       .debug$S                   0000000140000000     kernel32:KERNEL32.dll
 0000:fff53000       .debug$S                   0000000140000000     kernel32:KERNEL32.dll
 0000:fff53000       .debug$S                   0000000140000000     kernel32:KERNEL32.dll
 0000:fff53000       .debug$S                   0000000140000000     kernel32:KERNEL32.dll
 0000:fff53000       .debug$S                   0000000140000000     kernel32:KERNEL32.dll
 0000:fff53000       .debug$S                   0000000140000000     kernel32:KERNEL32.dll
 0000:fff53000       .debug$S                   0000000140000000     kernel32:KERNEL32.dll
 0000:fff53000       .debug$S                   0000000140000000     kernel32:KERNEL32.dll
 0000:fff53000       .debug$S                   0000000140000000     kernel32:KERNEL32.dll
 0000:fff53000       .debug$S                   0000000140000000     kernel32:KERNEL32.dll
 0000:fff53000       .debug$S                   0000000140000000     kernel32:KERNEL32.dll
 0000:fff53000       .debug$S                   0000000140000000     kernel32:KERNEL32.dll
 0000:fff53000       .debug$S                   0000000140000000     kernel32:KERNEL32.dll
 0000:fff53000       .debug$S                   0000000140000000     kernel32:KERNEL32.dll
 0000:fff53000       .debug$S                   0000000140000000     kernel32:KERNEL32.dll
 0000:fff53000       .debug$S                   0000000140000000     kernel32:KERNEL32.dll
 0000:fff53000       .debug$S                   0000000140000000     kernel32:KERNEL32.dll
 0000:fff53000       .debug$S                   0000000140000000     kernel32:KERNEL32.dll
 0000:fff53000       .debug$S                   0000000140000000     kernel32:KERNEL32.dll
 0000:fff53000       .debug$S                   0000000140000000     kernel32:KERNEL32.dll
 0000:fff53000       .debug$S                   0000000140000000     kernel32:KERNEL32.dll
 0000:fff53000       .debug$S                   0000000140000000     kernel32:KERNEL32.dll
 0000:fff53000       .debug$S                   0000000140000000     kernel32:KERNEL32.dll
 0000:fff53000       .debug$S                   0000000140000000     kernel32:KERNEL32.dll
 0000:fff53000       .debug$S                   0000000140000000     kernel32:KERNEL32.dll
 0000:fff53000       .debug$S                   0000000140000000     kernel32:KERNEL32.dll
 0000:fff53000       .debug$S                   0000000140000000     kernel32:KERNEL32.dll
 0000:fff53000       .debug$S                   0000000140000000     kernel32:KERNEL32.dll
 0000:fff53000       .debug$S                   0000000140000000     kernel32:KERNEL32.dll
 0000:fff53000       .debug$S                   0000000140000000     kernel32:KERNEL32.dll
 0000:fff53000       .debug$S                   0000000140000000     kernel32:KERNEL32.dll
 0000:fff53000       .debug$S                   0000000140000000     kernel32:KERNEL32.dll
 0000:fff53000       .debug$S                   0000000140000000     kernel32:KERNEL32.dll
 0000:fff53000       .debug$S                   0000000140000000     kernel32:KERNEL32.dll
 0000:fff53000       .debug$S                   0000000140000000     kernel32:KERNEL32.dll
 0000:fff53000       .debug$S                   0000000140000000     kernel32:KERNEL32.dll
 0000:fff53000       .debug$S                   0000000140000000     user32:USER32.dll
 0000:fff53000       .debug$S                   0000000140000000     user32:USER32.dll
 0000:fff53000       .debug$S                   0000000140000000     ws2_32:WS2_32.dll
 0000:fff53000       .debug$S                   0000000140000000     ws2_32:WS2_32.dll
 0000:fff53000       .debug$S                   0000000140000000     ws2_32:WS2_32.dll
 0000:fff53000       .debug$S                   0000000140000000     ws2_32:WS2_32.dll
 0000:fff53000       .debug$S                   0000000140000000     ws2_32:WS2_32.dll
 0000:fff53000       .debug$S                   0000000140000000     ws2_32:WS2_32.dll
 0000:fff53000       .debug$S                   0000000140000000     ws2_32:WS2_32.dll
 0000:fff53000       .debug$S                   0000000140000000     ws2_32:WS2_32.dll
 0000:fff53000       .debug$S                   0000000140000000     ws2_32:WS2_32.dll
 0000:fff53000       .debug$S                   0000000140000000     ws2_32:WS2_32.dll
 0000:fff53000       .debug$S                   0000000140000000     ws2_32:WS2_32.dll
 0000:fff57004       __guard_fids__             0000000140000004     MSVCRTD:exe_winmain.obj
 0003:fff88008       ??0?$basic_string@DU?$char_traits@D@std@@V?$allocator@D@2@@std@@QEAA@QEBD@Z$rtcName$1 0000000140000008     ball.obj
 0003:fff88008       ??0?$basic_string@DU?$char_traits@D@std@@V?$allocator@D@2@@std@@QEAA@QEBD@Z$rtcName$1 0000000140000008     demo.obj
 0003:fff88008       ??0?$basic_string@DU?$char_traits@D@std@@V?$allocator@D@2@@std@@QEAA@QEBD@Z$rtcName$1 0000000140000008     display.obj
 0003:fff88008       ??0?$basic_string@DU?$char_traits@D@std@@V?$allocator@D@2@@std@@QEAA@QEBD@Z$rtcName$1 0000000140000008     landscape.obj
 0003:fff88008       ??0?$basic_string@DU?$char_traits@D@std@@V?$allocator@D@2@@std@@QEAA@QEBD@Z$rtcName$1 0000000140000008     main.obj
 0003:fff88008       ??0?$basic_string@DU?$char_traits@D@std@@V?$allocator@D@2@@std@@QEAA@QEBD@Z$rtcName$1 0000000140000008     rocket.obj
 0003:fff88008       ??0?$basic_string@DU?$char_traits@D@std@@V?$allocator@D@2@@std@@QEAA@QEBD@Z$rtcName$1 0000000140000008     shadertoy.obj
 0003:fff88008       ??0?$basic_string@DU?$char_traits@D@std@@V?$allocator@D@2@@std@@QEAA@QEBD@Z$rtcName$1 0000000140000008     shared-resources.obj
 0003:fff88008       ??0?$basic_string@DU?$char_traits@D@std@@V?$allocator@D@2@@std@@QEAA@QEBD@Z$rtcName$1 0000000140000008     torus-twister.obj
 0003:fff88008       ??0?$basic_string@DU?$char_traits@D@std@@V?$allocator@D@2@@std@@QEAA@QEBD@Z$rtcName$1 0000000140000008     tunnelscape.obj
 0000:fff57008       __guard_fids__             0000000140000008     MSVCRTD:exe_winmain.obj
 0003:fff8800c       ??0?$basic_string@DU?$char_traits@D@std@@V?$allocator@D@2@@std@@QEAA@U_String_constructor_concat_tag@1@AEBV01@QEBD_K23@Z$rtcName$1 000000014000000c     display.obj
 0003:fff8800c       ??0?$basic_string@DU?$char_traits@D@std@@V?$allocator@D@2@@std@@QEAA@U_String_constructor_concat_tag@1@AEBV01@QEBD_K23@Z$rtcName$1 000000014000000c     image.obj
 0003:fff88010       ?Normalized@Vector3@@QEBA?BV1@XZ$rtcVarDesc 0000000140000010     Quaternion.obj
 0003:fff88010       ?Normalized@Vector4@@QEBA?BV1@XZ$rtcVarDesc 0000000140000010     Quaternion.obj
 0003:fff88010       ??$_Reallocate_for@V<lambda_1>@?1??assign@?$basic_string@DU?$char_traits@D@std@@V?$allocator@D@2@@std@@QEAAAEAV34@QEBD_K@Z@PEBD@?$basic_string@DU?$char_traits@D@std@@V?$allocator@D@2@@std@@AEAAAEAV01@_KV<lambda_1>@?1??assign@01@QEAAAEAV01@QEBD0@Z@PEBD@Z$rtcVarDesc 0000000140000010     ball.obj
 0003:fff88010       ??0?$basic_string@DU?$char_traits@D@std@@V?$allocator@D@2@@std@@QEAA@QEBD@Z$rtcVarDesc 0000000140000010     ball.obj
 0003:fff88010       ??1?$basic_string@DU?$char_traits@D@std@@V?$allocator@D@2@@std@@QEAA@XZ$rtcVarDesc 0000000140000010     ball.obj
 0003:fff88010       ?_Calculate_growth@?$basic_string@DU?$char_traits@D@std@@V?$allocator@D@2@@std@@CA_K_K00@Z$rtcVarDesc 0000000140000010     ball.obj
 0003:fff88010       ?_Orphan_all_locked_v3@_Container_base12@std@@AEAAXXZ$rtcVarDesc 0000000140000010     ball.obj
 0003:fff88010       ?max_size@?$basic_string@DU?$char_traits@D@std@@V?$allocator@D@2@@std@@QEBA_KXZ$rtcVarDesc 0000000140000010     ball.obj
 0003:fff88010       ??$_Reallocate_for@V<lambda_1>@?1??assign@?$basic_string@DU?$char_traits@D@std@@V?$allocator@D@2@@std@@QEAAAEAV34@QEBD_K@Z@PEBD@?$basic_string@DU?$char_traits@D@std@@V?$allocator@D@2@@std@@AEAAAEAV01@_KV<lambda_1>@?1??assign@01@QEAAAEAV01@QEBD0@Z@PEBD@Z$rtcVarDesc 0000000140000010     demo.obj
 0003:fff88010       ??0?$basic_string@DU?$char_traits@D@std@@V?$allocator@D@2@@std@@QEAA@QEBD@Z$rtcVarDesc 0000000140000010     demo.obj
 0003:fff88010       ??1?$basic_string@DU?$char_traits@D@std@@V?$allocator@D@2@@std@@QEAA@XZ$rtcVarDesc 0000000140000010     demo.obj
 0003:fff88010       ?_Calculate_growth@?$basic_string@DU?$char_traits@D@std@@V?$allocator@D@2@@std@@CA_K_K00@Z$rtcVarDesc 0000000140000010     demo.obj
 0003:fff88010       ?_Orphan_all_locked_v3@_Container_base12@std@@AEAAXXZ$rtcVarDesc 0000000140000010     demo.obj
 0003:fff88010       ?max_size@?$basic_string@DU?$char_traits@D@std@@V?$allocator@D@2@@std@@QEBA_KXZ$rtcVarDesc 0000000140000010     demo.obj
 0003:fff88010       ??$_Reallocate_for@V<lambda_1>@?1??assign@?$basic_string@DU?$char_traits@D@std@@V?$allocator@D@2@@std@@QEAAAEAV34@QEBD_K@Z@PEBD@?$basic_string@DU?$char_traits@D@std@@V?$allocator@D@2@@std@@AEAAAEAV01@_KV<lambda_1>@?1??assign@01@QEAAAEAV01@QEBD0@Z@PEBD@Z$rtcVarDesc 0000000140000010     display.obj
 0003:fff88010       ??0?$basic_string@DU?$char_traits@D@std@@V?$allocator@D@2@@std@@QEAA@QEBD@Z$rtcVarDesc 0000000140000010     display.obj
 0003:fff88010       ??1?$basic_string@DU?$char_traits@D@std@@V?$allocator@D@2@@std@@QEAA@XZ$rtcVarDesc 0000000140000010     display.obj
 0003:fff88010       ?_Calculate_growth@?$basic_string@DU?$char_traits@D@std@@V?$allocator@D@2@@std@@CA_K_K00@Z$rtcVarDesc 0000000140000010     display.obj
 0003:fff88010       ?_Orphan_all_locked_v3@_Container_base12@std@@AEAAXXZ$rtcVarDesc 0000000140000010     display.obj
 0003:fff88010       ?max_size@?$basic_string@DU?$char_traits@D@std@@V?$allocator@D@2@@std@@QEBA_KXZ$rtcVarDesc 0000000140000010     display.obj
 0003:fff88010       ??1?$basic_string@DU?$char_traits@D@std@@V?$allocator@D@2@@std@@QEAA@XZ$rtcVarDesc 0000000140000010     image.obj
 0003:fff88010       ?_Calculate_growth@?$basic_string@DU?$char_traits@D@std@@V?$allocator@D@2@@std@@CA_K_K00@Z$rtcVarDesc 0000000140000010     image.obj
 0003:fff88010       ?_Orphan_all_locked_v3@_Container_base12@std@@AEAAXXZ$rtcVarDesc 0000000140000010     image.obj
 0003:fff88010       ?max_size@?$basic_string@DU?$char_traits@D@std@@V?$allocator@D@2@@std@@QEBA_KXZ$rtcVarDesc 0000000140000010     image.obj
 0003:fff88010       ??$_Reallocate_for@V<lambda_1>@?1??assign@?$basic_string@DU?$char_traits@D@std@@V?$allocator@D@2@@std@@QEAAAEAV34@QEBD_K@Z@PEBD@?$basic_string@DU?$char_traits@D@std@@V?$allocator@D@2@@std@@AEAAAEAV01@_KV<lambda_1>@?1??assign@01@QEAAAEAV01@QEBD0@Z@PEBD@Z$rtcVarDesc 0000000140000010     landscape.obj
 0003:fff88010       ??0?$basic_string@DU?$char_traits@D@std@@V?$allocator@D@2@@std@@QEAA@QEBD@Z$rtcVarDesc 0000000140000010     landscape.obj
 0003:fff88010       ??1?$basic_string@DU?$char_traits@D@std@@V?$allocator@D@2@@std@@QEAA@XZ$rtcVarDesc 0000000140000010     landscape.obj
 0003:fff88010       ?_Calculate_growth@?$basic_string@DU?$char_traits@D@std@@V?$allocator@D@2@@std@@CA_K_K00@Z$rtcVarDesc 0000000140000010     landscape.obj
 0003:fff88010       ?_Orphan_all_locked_v3@_Container_base12@std@@AEAAXXZ$rtcVarDesc 0000000140000010     landscape.obj
 0003:fff88010       ?max_size@?$basic_string@DU?$char_traits@D@std@@V?$allocator@D@2@@std@@QEBA_KXZ$rtcVarDesc 0000000140000010     landscape.obj
 0003:fff88010       ??$_Reallocate_for@V<lambda_1>@?1??assign@?$basic_string@DU?$char_traits@D@std@@V?$allocator@D@2@@std@@QEAAAEAV34@QEBD_K@Z@PEBD@?$basic_string@DU?$char_traits@D@std@@V?$allocator@D@2@@std@@AEAAAEAV01@_KV<lambda_1>@?1??assign@01@QEAAAEAV01@QEBD0@Z@PEBD@Z$rtcVarDesc 0000000140000010     main.obj
 0003:fff88010       ??0?$basic_string@DU?$char_traits@D@std@@V?$allocator@D@2@@std@@QEAA@QEBD@Z$rtcVarDesc 0000000140000010     main.obj
 0003:fff88010       ??1?$basic_string@DU?$char_traits@D@std@@V?$allocator@D@2@@std@@QEAA@XZ$rtcVarDesc 0000000140000010     main.obj
 0003:fff88010       ?_Calculate_growth@?$basic_string@DU?$char_traits@D@std@@V?$allocator@D@2@@std@@CA_K_K00@Z$rtcVarDesc 0000000140000010     main.obj
 0003:fff88010       ?_Orphan_all_locked_v3@_Container_base12@std@@AEAAXXZ$rtcVarDesc 0000000140000010     main.obj
 0003:fff88010       ?max_size@?$basic_string@DU?$char_traits@D@std@@V?$allocator@D@2@@std@@QEBA_KXZ$rtcVarDesc 0000000140000010     main.obj
 0003:fff88010       snprintf$rtcVarDesc        0000000140000010     main.obj
 0003:fff88010       ??$_Reallocate_for@V<lambda_1>@?1??assign@?$basic_string@DU?$char_traits@D@std@@V?$allocator@D@2@@std@@QEAAAEAV34@QEBD_K@Z@PEBD@?$basic_string@DU?$char_traits@D@std@@V?$allocator@D@2@@std@@AEAAAEAV01@_KV<lambda_1>@?1??assign@01@QEAAAEAV01@QEBD0@Z@PEBD@Z$rtcVarDesc 0000000140000010     rocket.obj
 0003:fff88010       ??0?$basic_string@DU?$char_traits@D@std@@V?$allocator@D@2@@std@@QEAA@QEBD@Z$rtcVarDesc 0000000140000010     rocket.obj
 0003:fff88010       ??1?$basic_string@DU?$char_traits@D@std@@V?$allocator@D@2@@std@@QEAA@XZ$rtcVarDesc 0000000140000010     rocket.obj
 0003:fff88010       ?_Calculate_growth@?$basic_string@DU?$char_traits@D@std@@V?$allocator@D@2@@std@@CA_K_K00@Z$rtcVarDesc 0000000140000010     rocket.obj
 0003:fff88010       ?_Orphan_all_locked_v3@_Container_base12@std@@AEAAXXZ$rtcVarDesc 0000000140000010     rocket.obj
 0003:fff88010       ?max_size@?$basic_string@DU?$char_traits@D@std@@V?$allocator@D@2@@std@@QEBA_KXZ$rtcVarDesc 0000000140000010     rocket.obj
 0003:fff88010       ??$_Reallocate_for@V<lambda_1>@?1??assign@?$basic_string@DU?$char_traits@D@std@@V?$allocator@D@2@@std@@QEAAAEAV34@QEBD_K@Z@PEBD@?$basic_string@DU?$char_traits@D@std@@V?$allocator@D@2@@std@@AEAAAEAV01@_KV<lambda_1>@?1??assign@01@QEAAAEAV01@QEBD0@Z@PEBD@Z$rtcVarDesc 0000000140000010     shadertoy.obj
 0003:fff88010       ??0?$basic_string@DU?$char_traits@D@std@@V?$allocator@D@2@@std@@QEAA@QEBD@Z$rtcVarDesc 0000000140000010     shadertoy.obj
 0003:fff88010       ??1?$basic_string@DU?$char_traits@D@std@@V?$allocator@D@2@@std@@QEAA@XZ$rtcVarDesc 0000000140000010     shadertoy.obj
 0003:fff88010       ?Normalized@Vector3@@QEBA?BV1@XZ$rtcVarDesc 0000000140000010     shadertoy.obj
 0003:fff88010       ?_Calculate_growth@?$basic_string@DU?$char_traits@D@std@@V?$allocator@D@2@@std@@CA_K_K00@Z$rtcVarDesc 0000000140000010     shadertoy.obj
 0003:fff88010       ?_Orphan_all_locked_v3@_Container_base12@std@@AEAAXXZ$rtcVarDesc 0000000140000010     shadertoy.obj
 0003:fff88010       ?max_size@?$basic_string@DU?$char_traits@D@std@@V?$allocator@D@2@@std@@QEBA_KXZ$rtcVarDesc 0000000140000010     shadertoy.obj
 0003:fff88010       ??$_Reallocate_for@V<lambda_1>@?1??assign@?$basic_string@DU?$char_traits@D@std@@V?$allocator@D@2@@std@@QEAAAEAV34@QEBD_K@Z@PEBD@?$basic_string@DU?$char_traits@D@std@@V?$allocator@D@2@@std@@AEAAAEAV01@_KV<lambda_1>@?1??assign@01@QEAAAEAV01@QEBD0@Z@PEBD@Z$rtcVarDesc 0000000140000010     shared-resources.obj
 0003:fff88010       ??0?$basic_string@DU?$char_traits@D@std@@V?$allocator@D@2@@std@@QEAA@QEBD@Z$rtcVarDesc 0000000140000010     shared-resources.obj
 0003:fff88010       ??1?$basic_string@DU?$char_traits@D@std@@V?$allocator@D@2@@std@@QEAA@XZ$rtcVarDesc 0000000140000010     shared-resources.obj
 0003:fff88010       ?_Calculate_growth@?$basic_string@DU?$char_traits@D@std@@V?$allocator@D@2@@std@@CA_K_K00@Z$rtcVarDesc 0000000140000010     shared-resources.obj
 0003:fff88010       ?_Orphan_all_locked_v3@_Container_base12@std@@AEAAXXZ$rtcVarDesc 0000000140000010     shared-resources.obj
 0003:fff88010       ?max_size@?$basic_string@DU?$char_traits@D@std@@V?$allocator@D@2@@std@@QEBA_KXZ$rtcVarDesc 0000000140000010     shared-resources.obj
 0003:fff88010       ??$_Reallocate_for@V<lambda_1>@?1??assign@?$basic_string@DU?$char_traits@D@std@@V?$allocator@D@2@@std@@QEAAAEAV34@QEBD_K@Z@PEBD@?$basic_string@DU?$char_traits@D@std@@V?$allocator@D@2@@std@@AEAAAEAV01@_KV<lambda_1>@?1??assign@01@QEAAAEAV01@QEBD0@Z@PEBD@Z$rtcVarDesc 0000000140000010     torus-twister.obj
 0003:fff88010       ??0?$basic_string@DU?$char_traits@D@std@@V?$allocator@D@2@@std@@QEAA@QEBD@Z$rtcVarDesc 0000000140000010     torus-twister.obj
 0003:fff88010       ??1?$basic_string@DU?$char_traits@D@std@@V?$allocator@D@2@@std@@QEAA@XZ$rtcVarDesc 0000000140000010     torus-twister.obj
 0003:fff88010       ?_Calculate_growth@?$basic_string@DU?$char_traits@D@std@@V?$allocator@D@2@@std@@CA_K_K00@Z$rtcVarDesc 0000000140000010     torus-twister.obj
 0003:fff88010       ?_Orphan_all_locked_v3@_Container_base12@std@@AEAAXXZ$rtcVarDesc 0000000140000010     torus-twister.obj
 0003:fff88010       ?max_size@?$basic_string@DU?$char_traits@D@std@@V?$allocator@D@2@@std@@QEBA_KXZ$rtcVarDesc 0000000140000010     torus-twister.obj
 0003:fff88010       ??$_Reallocate_for@V<lambda_1>@?1??assign@?$basic_string@DU?$char_traits@D@std@@V?$allocator@D@2@@std@@QEAAAEAV34@QEBD_K@Z@PEBD@?$basic_string@DU?$char_traits@D@std@@V?$allocator@D@2@@std@@AEAAAEAV01@_KV<lambda_1>@?1??assign@01@QEAAAEAV01@QEBD0@Z@PEBD@Z$rtcVarDesc 0000000140000010     tunnelscape.obj
 0003:fff88010       ??0?$basic_string@DU?$char_traits@D@std@@V?$allocator@D@2@@std@@QEAA@QEBD@Z$rtcVarDesc 0000000140000010     tunnelscape.obj
 0003:fff88010       ??1?$basic_string@DU?$char_traits@D@std@@V?$allocator@D@2@@std@@QEAA@XZ$rtcVarDesc 0000000140000010     tunnelscape.obj
 0003:fff88010       ?_Calculate_growth@?$basic_string@DU?$char_traits@D@std@@V?$allocator@D@2@@std@@CA_K_K00@Z$rtcVarDesc 0000000140000010     tunnelscape.obj
 0003:fff88010       ?_Orphan_all_locked_v3@_Container_base12@std@@AEAAXXZ$rtcVarDesc 0000000140000010     tunnelscape.obj
 0003:fff88010       ?max_size@?$basic_string@DU?$char_traits@D@std@@V?$allocator@D@2@@std@@QEBA_KXZ$rtcVarDesc 0000000140000010     tunnelscape.obj
 0003:fff88014       ??0?$basic_string@DU?$char_traits@D@std@@V?$allocator@D@2@@std@@QEAA@U_String_constructor_concat_tag@1@AEBV01@QEBD_K23@Z$rtcName$2 0000000140000014     display.obj
 0003:fff88014       ??0?$basic_string@DU?$char_traits@D@std@@V?$allocator@D@2@@std@@QEAA@U_String_constructor_concat_tag@1@AEBV01@QEBD_K23@Z$rtcName$2 0000000140000014     image.obj
 0003:fff88020       ??0?$basic_string@DU?$char_traits@D@std@@V?$allocator@D@2@@std@@QEAA@U_String_constructor_concat_tag@1@AEBV01@QEBD_K23@Z$rtcName$3 0000000140000020     display.obj
 0003:fff88020       ??0?$basic_string@DU?$char_traits@D@std@@V?$allocator@D@2@@std@@QEAA@U_String_constructor_concat_tag@1@AEBV01@QEBD_K23@Z$rtcName$3 0000000140000020     image.obj
 0003:fff88030       ??0?$basic_string@DU?$char_traits@D@std@@V?$allocator@D@2@@std@@QEAA@U_String_constructor_concat_tag@1@AEBV01@QEBD_K23@Z$rtcVarDesc 0000000140000030     display.obj
 0003:fff88030       ??0?$basic_string@DU?$char_traits@D@std@@V?$allocator@D@2@@std@@QEAA@U_String_constructor_concat_tag@1@AEBV01@QEBD_K23@Z$rtcVarDesc 0000000140000030     image.obj
 0003:fff88050       ?Normalized@Vector3@@QEBA?BV1@XZ$rtcFrameData 0000000140000050     Quaternion.obj
 0003:fff88050       ?Normalized@Vector4@@QEBA?BV1@XZ$rtcFrameData 0000000140000050     Quaternion.obj
 0003:fff88050       ??$_Reallocate_for@V<lambda_1>@?1??assign@?$basic_string@DU?$char_traits@D@std@@V?$allocator@D@2@@std@@QEAAAEAV34@QEBD_K@Z@PEBD@?$basic_string@DU?$char_traits@D@std@@V?$allocator@D@2@@std@@AEAAAEAV01@_KV<lambda_1>@?1??assign@01@QEAAAEAV01@QEBD0@Z@PEBD@Z$rtcFrameData 0000000140000050     ball.obj
 0003:fff88050       ??1?$basic_string@DU?$char_traits@D@std@@V?$allocator@D@2@@std@@QEAA@XZ$rtcFrameData 0000000140000050     ball.obj
 0003:fff88050       ?_Calculate_growth@?$basic_string@DU?$char_traits@D@std@@V?$allocator@D@2@@std@@CA_K_K00@Z$rtcFrameData 0000000140000050     ball.obj
 0003:fff88050       ?_Orphan_all_locked_v3@_Container_base12@std@@AEAAXXZ$rtcFrameData 0000000140000050     ball.obj
 0003:fff88050       ?max_size@?$basic_string@DU?$char_traits@D@std@@V?$allocator@D@2@@std@@QEBA_KXZ$rtcFrameData 0000000140000050     ball.obj
 0003:fff88050       ??$_Reallocate_for@V<lambda_1>@?1??assign@?$basic_string@DU?$char_traits@D@std@@V?$allocator@D@2@@std@@QEAAAEAV34@QEBD_K@Z@PEBD@?$basic_string@DU?$char_traits@D@std@@V?$allocator@D@2@@std@@AEAAAEAV01@_KV<lambda_1>@?1??assign@01@QEAAAEAV01@QEBD0@Z@PEBD@Z$rtcFrameData 0000000140000050     demo.obj
 0003:fff88050       ??1?$basic_string@DU?$char_traits@D@std@@V?$allocator@D@2@@std@@QEAA@XZ$rtcFrameData 0000000140000050     demo.obj
 0003:fff88050       ?_Calculate_growth@?$basic_string@DU?$char_traits@D@std@@V?$allocator@D@2@@std@@CA_K_K00@Z$rtcFrameData 0000000140000050     demo.obj
 0003:fff88050       ?_Orphan_all_locked_v3@_Container_base12@std@@AEAAXXZ$rtcFrameData 0000000140000050     demo.obj
 0003:fff88050       ?max_size@?$basic_string@DU?$char_traits@D@std@@V?$allocator@D@2@@std@@QEBA_KXZ$rtcFrameData 0000000140000050     demo.obj
 0003:fff88050       ??$_Reallocate_for@V<lambda_1>@?1??assign@?$basic_string@DU?$char_traits@D@std@@V?$allocator@D@2@@std@@QEAAAEAV34@QEBD_K@Z@PEBD@?$basic_string@DU?$char_traits@D@std@@V?$allocator@D@2@@std@@AEAAAEAV01@_KV<lambda_1>@?1??assign@01@QEAAAEAV01@QEBD0@Z@PEBD@Z$rtcFrameData 0000000140000050     display.obj
 0003:fff88050       ??1?$basic_string@DU?$char_traits@D@std@@V?$allocator@D@2@@std@@QEAA@XZ$rtcFrameData 0000000140000050     display.obj
 0003:fff88050       ?_Calculate_growth@?$basic_string@DU?$char_traits@D@std@@V?$allocator@D@2@@std@@CA_K_K00@Z$rtcFrameData 0000000140000050     display.obj
 0003:fff88050       ?_Orphan_all_locked_v3@_Container_base12@std@@AEAAXXZ$rtcFrameData 0000000140000050     display.obj
 0003:fff88050       ?max_size@?$basic_string@DU?$char_traits@D@std@@V?$allocator@D@2@@std@@QEBA_KXZ$rtcFrameData 0000000140000050     display.obj
 0003:fff88050       ??1?$basic_string@DU?$char_traits@D@std@@V?$allocator@D@2@@std@@QEAA@XZ$rtcFrameData 0000000140000050     image.obj
 0003:fff88050       ?_Calculate_growth@?$basic_string@DU?$char_traits@D@std@@V?$allocator@D@2@@std@@CA_K_K00@Z$rtcFrameData 0000000140000050     image.obj
 0003:fff88050       ?_Orphan_all_locked_v3@_Container_base12@std@@AEAAXXZ$rtcFrameData 0000000140000050     image.obj
 0003:fff88050       ?max_size@?$basic_string@DU?$char_traits@D@std@@V?$allocator@D@2@@std@@QEBA_KXZ$rtcFrameData 0000000140000050     image.obj
 0003:fff88050       ??$_Reallocate_for@V<lambda_1>@?1??assign@?$basic_string@DU?$char_traits@D@std@@V?$allocator@D@2@@std@@QEAAAEAV34@QEBD_K@Z@PEBD@?$basic_string@DU?$char_traits@D@std@@V?$allocator@D@2@@std@@AEAAAEAV01@_KV<lambda_1>@?1??assign@01@QEAAAEAV01@QEBD0@Z@PEBD@Z$rtcFrameData 0000000140000050     landscape.obj
 0003:fff88050       ??1?$basic_string@DU?$char_traits@D@std@@V?$allocator@D@2@@std@@QEAA@XZ$rtcFrameData 0000000140000050     landscape.obj
 0003:fff88050       ?_Calculate_growth@?$basic_string@DU?$char_traits@D@std@@V?$allocator@D@2@@std@@CA_K_K00@Z$rtcFrameData 0000000140000050     landscape.obj
 0003:fff88050       ?_Orphan_all_locked_v3@_Container_base12@std@@AEAAXXZ$rtcFrameData 0000000140000050     landscape.obj
 0003:fff88050       ?max_size@?$basic_string@DU?$char_traits@D@std@@V?$allocator@D@2@@std@@QEBA_KXZ$rtcFrameData 0000000140000050     landscape.obj
 0003:fff88050       ??$_Reallocate_for@V<lambda_1>@?1??assign@?$basic_string@DU?$char_traits@D@std@@V?$allocator@D@2@@std@@QEAAAEAV34@QEBD_K@Z@PEBD@?$basic_string@DU?$char_traits@D@std@@V?$allocator@D@2@@std@@AEAAAEAV01@_KV<lambda_1>@?1??assign@01@QEAAAEAV01@QEBD0@Z@PEBD@Z$rtcFrameData 0000000140000050     main.obj
 0003:fff88050       ??1?$basic_string@DU?$char_traits@D@std@@V?$allocator@D@2@@std@@QEAA@XZ$rtcFrameData 0000000140000050     main.obj
 0003:fff88050       ?_Calculate_growth@?$basic_string@DU?$char_traits@D@std@@V?$allocator@D@2@@std@@CA_K_K00@Z$rtcFrameData 0000000140000050     main.obj
 0003:fff88050       ?_Orphan_all_locked_v3@_Container_base12@std@@AEAAXXZ$rtcFrameData 0000000140000050     main.obj
 0003:fff88050       ?max_size@?$basic_string@DU?$char_traits@D@std@@V?$allocator@D@2@@std@@QEBA_KXZ$rtcFrameData 0000000140000050     main.obj
 0003:fff88050       snprintf$rtcFrameData      0000000140000050     main.obj
 0003:fff88050       ??$_Reallocate_for@V<lambda_1>@?1??assign@?$basic_string@DU?$char_traits@D@std@@V?$allocator@D@2@@std@@QEAAAEAV34@QEBD_K@Z@PEBD@?$basic_string@DU?$char_traits@D@std@@V?$allocator@D@2@@std@@AEAAAEAV01@_KV<lambda_1>@?1??assign@01@QEAAAEAV01@QEBD0@Z@PEBD@Z$rtcFrameData 0000000140000050     rocket.obj
 0003:fff88050       ??1?$basic_string@DU?$char_traits@D@std@@V?$allocator@D@2@@std@@QEAA@XZ$rtcFrameData 0000000140000050     rocket.obj
 0003:fff88050       ?_Calculate_growth@?$basic_string@DU?$char_traits@D@std@@V?$allocator@D@2@@std@@CA_K_K00@Z$rtcFrameData 0000000140000050     rocket.obj
 0003:fff88050       ?_Orphan_all_locked_v3@_Container_base12@std@@AEAAXXZ$rtcFrameData 0000000140000050     rocket.obj
 0003:fff88050       ?max_size@?$basic_string@DU?$char_traits@D@std@@V?$allocator@D@2@@std@@QEBA_KXZ$rtcFrameData 0000000140000050     rocket.obj
 0003:fff88050       ??$_Reallocate_for@V<lambda_1>@?1??assign@?$basic_string@DU?$char_traits@D@std@@V?$allocator@D@2@@std@@QEAAAEAV34@QEBD_K@Z@PEBD@?$basic_string@DU?$char_traits@D@std@@V?$allocator@D@2@@std@@AEAAAEAV01@_KV<lambda_1>@?1??assign@01@QEAAAEAV01@QEBD0@Z@PEBD@Z$rtcFrameData 0000000140000050     shadertoy.obj
 0003:fff88050       ??1?$basic_string@DU?$char_traits@D@std@@V?$allocator@D@2@@std@@QEAA@XZ$rtcFrameData 0000000140000050     shadertoy.obj
 0003:fff88050       ?Normalized@Vector3@@QEBA?BV1@XZ$rtcFrameData 0000000140000050     shadertoy.obj
 0003:fff88050       ?_Calculate_growth@?$basic_string@DU?$char_traits@D@std@@V?$allocator@D@2@@std@@CA_K_K00@Z$rtcFrameData 0000000140000050     shadertoy.obj
 0003:fff88050       ?_Orphan_all_locked_v3@_Container_base12@std@@AEAAXXZ$rtcFrameData 0000000140000050     shadertoy.obj
 0003:fff88050       ?max_size@?$basic_string@DU?$char_traits@D@std@@V?$allocator@D@2@@std@@QEBA_KXZ$rtcFrameData 0000000140000050     shadertoy.obj
 0003:fff88050       ??$_Reallocate_for@V<lambda_1>@?1??assign@?$basic_string@DU?$char_traits@D@std@@V?$allocator@D@2@@std@@QEAAAEAV34@QEBD_K@Z@PEBD@?$basic_string@DU?$char_traits@D@std@@V?$allocator@D@2@@std@@AEAAAEAV01@_KV<lambda_1>@?1??assign@01@QEAAAEAV01@QEBD0@Z@PEBD@Z$rtcFrameData 0000000140000050     shared-resources.obj
 0003:fff88050       ??1?$basic_string@DU?$char_traits@D@std@@V?$allocator@D@2@@std@@QEAA@XZ$rtcFrameData 0000000140000050     shared-resources.obj
 0003:fff88050       ?_Calculate_growth@?$basic_string@DU?$char_traits@D@std@@V?$allocator@D@2@@std@@CA_K_K00@Z$rtcFrameData 0000000140000050     shared-resources.obj
 0003:fff88050       ?_Orphan_all_locked_v3@_Container_base12@std@@AEAAXXZ$rtcFrameData 0000000140000050     shared-resources.obj
 0003:fff88050       ?max_size@?$basic_string@DU?$char_traits@D@std@@V?$allocator@D@2@@std@@QEBA_KXZ$rtcFrameData 0000000140000050     shared-resources.obj
 0003:fff88050       ??$_Reallocate_for@V<lambda_1>@?1??assign@?$basic_string@DU?$char_traits@D@std@@V?$allocator@D@2@@std@@QEAAAEAV34@QEBD_K@Z@PEBD@?$basic_string@DU?$char_traits@D@std@@V?$allocator@D@2@@std@@AEAAAEAV01@_KV<lambda_1>@?1??assign@01@QEAAAEAV01@QEBD0@Z@PEBD@Z$rtcFrameData 0000000140000050     torus-twister.obj
 0003:fff88050       ??1?$basic_string@DU?$char_traits@D@std@@V?$allocator@D@2@@std@@QEAA@XZ$rtcFrameData 0000000140000050     torus-twister.obj
 0003:fff88050       ?_Calculate_growth@?$basic_string@DU?$char_traits@D@std@@V?$allocator@D@2@@std@@CA_K_K00@Z$rtcFrameData 0000000140000050     torus-twister.obj
 0003:fff88050       ?_Orphan_all_locked_v3@_Container_base12@std@@AEAAXXZ$rtcFrameData 0000000140000050     torus-twister.obj
 0003:fff88050       ?max_size@?$basic_string@DU?$char_traits@D@std@@V?$allocator@D@2@@std@@QEBA_KXZ$rtcFrameData 0000000140000050     torus-twister.obj
 0003:fff88050       ??$_Reallocate_for@V<lambda_1>@?1??assign@?$basic_string@DU?$char_traits@D@std@@V?$allocator@D@2@@std@@QEAAAEAV34@QEBD_K@Z@PEBD@?$basic_string@DU?$char_traits@D@std@@V?$allocator@D@2@@std@@AEAAAEAV01@_KV<lambda_1>@?1??assign@01@QEAAAEAV01@QEBD0@Z@PEBD@Z$rtcFrameData 0000000140000050     tunnelscape.obj
 0003:fff88050       ??1?$basic_string@DU?$char_traits@D@std@@V?$allocator@D@2@@std@@QEAA@XZ$rtcFrameData 0000000140000050     tunnelscape.obj
 0003:fff88050       ?_Calculate_growth@?$basic_string@DU?$char_traits@D@std@@V?$allocator@D@2@@std@@CA_K_K00@Z$rtcFrameData 0000000140000050     tunnelscape.obj
 0003:fff88050       ?_Orphan_all_locked_v3@_Container_base12@std@@AEAAXXZ$rtcFrameData 0000000140000050     tunnelscape.obj
 0003:fff88050       ?max_size@?$basic_string@DU?$char_traits@D@std@@V?$allocator@D@2@@std@@QEBA_KXZ$rtcFrameData 0000000140000050     tunnelscape.obj
 0003:fff88090       ??0?$basic_string@DU?$char_traits@D@std@@V?$allocator@D@2@@std@@QEAA@QEBD@Z$rtcFrameData 0000000140000090     ball.obj
 0003:fff88090       ??0?$basic_string@DU?$char_traits@D@std@@V?$allocator@D@2@@std@@QEAA@QEBD@Z$rtcFrameData 0000000140000090     demo.obj
 0003:fff88090       ??0?$basic_string@DU?$char_traits@D@std@@V?$allocator@D@2@@std@@QEAA@QEBD@Z$rtcFrameData 0000000140000090     display.obj
 0003:fff88090       ??0?$basic_string@DU?$char_traits@D@std@@V?$allocator@D@2@@std@@QEAA@QEBD@Z$rtcFrameData 0000000140000090     landscape.obj
 0003:fff88090       ??0?$basic_string@DU?$char_traits@D@std@@V?$allocator@D@2@@std@@QEAA@QEBD@Z$rtcFrameData 0000000140000090     main.obj
 0003:fff88090       ??0?$basic_string@DU?$char_traits@D@std@@V?$allocator@D@2@@std@@QEAA@QEBD@Z$rtcFrameData 0000000140000090     rocket.obj
 0003:fff88090       ??0?$basic_string@DU?$char_traits@D@std@@V?$allocator@D@2@@std@@QEAA@QEBD@Z$rtcFrameData 0000000140000090     shadertoy.obj
 0003:fff88090       ??0?$basic_string@DU?$char_traits@D@std@@V?$allocator@D@2@@std@@QEAA@QEBD@Z$rtcFrameData 0000000140000090     shared-resources.obj
 0003:fff88090       ??0?$basic_string@DU?$char_traits@D@std@@V?$allocator@D@2@@std@@QEAA@QEBD@Z$rtcFrameData 0000000140000090     torus-twister.obj
 0003:fff88090       ??0?$basic_string@DU?$char_traits@D@std@@V?$allocator@D@2@@std@@QEAA@QEBD@Z$rtcFrameData 0000000140000090     tunnelscape.obj
 0003:fff88130       ??0?$basic_string@DU?$char_traits@D@std@@V?$allocator@D@2@@std@@QEAA@U_String_constructor_concat_tag@1@AEBV01@QEBD_K23@Z$rtcFrameData 0000000140000130     display.obj
 0003:fff88130       ??0?$basic_string@DU?$char_traits@D@std@@V?$allocator@D@2@@std@@QEAA@U_String_constructor_concat_tag@1@AEBV01@QEBD_K23@Z$rtcFrameData 0000000140000130     image.obj
 0002:00002720       ??__EfNautilus_global@@YAXXZ 0000000140028720 f   shadertoy.obj
 0002:00002760       ??__EfSpike_global@@YAXXZ  0000000140028760 f   shadertoy.obj
 0002:000027a0       ??__Es_pGC@@YAXXZ          00000001400287a0 f   image.obj
 0002:000027f0       ??__Es_lastErr@@YAXXZ      00000001400287f0 f   main.obj
 0002:000042e0       create_leading_dirs        000000014002a2e0 f   device.obj
 0002:00004440       create_track               000000014002a440 f   device.obj
 0002:000045e0       fetch_track_data           000000014002a5e0 f   device.obj
 0002:00004790       find_track                 000000014002a790 f   device.obj
 0002:000048f0       handle_del_key_cmd         000000014002a8f0 f   device.obj
 0002:00004a10       handle_set_key_cmd         000000014002aa10 f   device.obj
 0002:00004bc0       path_encode                000000014002abc0 f   device.obj
 0002:00004d50       read_track_data            000000014002ad50 f   device.obj
 0002:00004f80       save_track                 000000014002af80 f   device.obj
 0002:00005170       server_connect             000000014002b170 f   device.obj
 0002:000054f0       socket_poll                000000014002b4f0 f   device.obj
 0002:00005660       stat                       000000014002b660 f   device.obj
 0002:00005d40       sync_track_path            000000014002bd40 f   device.obj
 0002:000062b0       valid_path_char            000000014002c2b0 f   device.obj
 0002:00006410       xrecv                      000000014002c410 f   device.obj
 0002:000064f0       xsend                      000000014002c4f0 f   device.obj
 0002:000065d0       key_idx_floor              000000014002c5d0 f   track.obj
 0002:00006640       key_linear                 000000014002c640 f   track.obj
 0002:00006750       key_ramp                   000000014002c750 f   track.obj
 0002:00006880       key_smooth                 000000014002c880 f   track.obj
 0002:0000e190       ?comparef@@YA_NMM@Z        0000000140034190 f   Matrix44.obj
 0002:0000e270       ??$lerpf@VVector4@@@@YA?BVVector4@@AEBV0@0M@Z 0000000140034270 f   Quaternion.obj
 0002:0000edf0       ?clampf@@YAMMMM@Z          0000000140034df0 f   Quaternion.obj
 0002:00011234       $LN39                      0000000140037234     audio.obj
 0002:00011240       $LN38                      0000000140037240     audio.obj
 0002:0001125c       $LN37                      000000014003725c     audio.obj
 0002:00011268       $LN36                      0000000140037268     audio.obj
 0002:00012e90       ??$lerpf@M@@YA?BMAEBM0M@Z  0000000140038e90 f   ball.obj
 0002:00013e50       ?BoxBlurScale@@YAMM@Z      0000000140039e50 f   ball.obj
 0002:00013ee0       ?bsamp32_16@@YA?AT__m128i@@PEBIIIIIII@Z 0000000140039ee0 f   ball.obj
 0002:000143b0       ?bsamp8@@YAIPEBEIIIIII@Z   000000014003a3b0 f   ball.obj
 0002:00014560       ?bsamp_prepUVs@@YAXHHIIAEAI00000@Z 000000014003a560 f   ball.obj
 0002:00014710       ?calc_fandeltas@voxel@@YAXMAEAM0@Z 000000014003a710 f   ball.obj
 0002:000147b0       ?clampf@@YAMMMM@Z          000000014003a7b0 f   ball.obj
 0002:00014850       ?clampi@@YAHHHH@Z          000000014003a850 f   ball.obj
 0002:000148c0       ?cspanISSE16@@YAXPEAIHIIT__m128i@@1@Z 000000014003a8c0 f   ball.obj
 0002:00014cc0       ?ftofp24@@YAHM@Z           000000014003acc0 f   ball.obj
 0002:00014d10       ?getf@Rocket@@YAMPEBUsync_track@@@Z 000000014003ad10 f   ball.obj
 0002:00014d60       ?geti@Rocket@@YAHPEBUsync_track@@@Z 000000014003ad60 f   ball.obj
 0002:00014e10       ?memset32@@YAXPEAXH_K@Z    000000014003ae10 f   ball.obj
 0002:00014ef0       ?saturatef@@YAMM@Z         000000014003aef0 f   ball.obj
 0002:00014f90       ?smoothstepf@@YAMMMM@Z     000000014003af90 f   ball.obj
 0002:00015040       ?v2cISSE16@@YAIT__m128i@@@Z 000000014003b040 f   ball.obj
 0002:000150c0       ?vball$omp$1@@YAXPEAIM@Z   000000014003b0c0 f   ball.obj
 0002:000152c0       ?vball@@YAXPEAIM@Z         000000014003b2c0 f   ball.obj
 0002:00015540       ?vball_precalc@@YAXXZ      000000014003b540 f   ball.obj
 0002:00015870       ?vball_ray_beams@@YAXPEAIHHHH@Z 000000014003b870 f   ball.obj
 0002:000161d0       ?vball_ray_no_beams@@YAXPEAIHHHH@Z 000000014003c1d0 f   ball.obj
 0002:00016960       ?vnorm2D@voxel@@YAXAEAM0@Z 000000014003c960 f   ball.obj
 0002:00016a70       ?Add@@YAXAEAT__m128i@@0II@Z 000000014003ca70 f   boxblur.obj
 0002:00016d40       ?Div@@YAIT__m128i@@0@Z     000000014003cd40 f   boxblur.obj
 0002:00016de0       ?HorizontalBoxBlur32$omp$1@@YAXPEAIPEBIIIM@Z 000000014003cde0 f   boxblur.obj
 0002:000176e0       ?Sub@@YAXAEAT__m128i@@0II@Z 000000014003d6e0 f   boxblur.obj
 0002:00017850       ?VerticalBoxBlur32$omp$1@@YAXPEAIPEBIIIM@Z 000000014003d850 f   boxblur.obj
 0002:00018140       ?WeightToDiv@@YAII@Z       000000014003e140 f   boxblur.obj
 0002:00018190       ?clampi@@YAHHHH@Z          000000014003e190 f   boxblur.obj
 0002:00018570       ?Fx_Blit_2x2$omp$1@@YAXPEAI0@Z 000000014003e570 f   fx-blitter.obj
 0002:00018d00       ?c2vISSE32@@YA?AT__m128i@@I@Z 000000014003ed00 f   fx-blitter.obj
 0002:00018d70       ?ini_func1@@YAII@Z         000000014003ed70 f   random.obj
 0002:00018dd0       ?ini_func2@@YAII@Z         000000014003edd0 f   random.obj
 0002:00018f40       ?period_certification@@YAXPEAUTINYMT32_T@@@Z 000000014003ef40 f   random.obj
 0002:00019070       tinymt32_generate_float    000000014003f070 f   random.obj
 0002:000190e0       tinymt32_generate_floatOC  000000014003f0e0 f   random.obj
 0002:00019150       tinymt32_generate_uint32   000000014003f150 f   random.obj
 0002:00019bf0       tinymt32_next_state        000000014003fbf0 f   random.obj
 0002:00019e00       tinymt32_temper            000000014003fe00 f   random.obj
 0002:0001a210       ??$lerpf@M@@YA?BMAEBM0M@Z  0000000140040210 f   shadertoy.obj
 0002:0001a760       ?BoxBlurScale@@YAMM@Z      0000000140040760 f   shadertoy.obj
 0002:0001a7f0       ?Desaturate@Shadertoy@@YA?AT__m128@@T2@M@Z 00000001400407f0 f   shadertoy.obj
 0002:0001a930       ?ExpFog@Shadertoy@@YAMMM@Z 0000000140040930 f   shadertoy.obj
 0002:0001a9d0       ?GammaAdj@Shadertoy@@YA?AT__m128@@T2@M@Z 00000001400409d0 f   shadertoy.obj
 0002:0001aaa0       ?LauraNormal@@YA?BVVector3@@MAEBV1@@Z 0000000140040aa0 f   shadertoy.obj
 0002:0001ad50       ?MichielPal@Shadertoy@@YA?AVVector3@@M@Z 0000000140040d50 f   shadertoy.obj
 0002:0001b010       ?Q3_rsqrtf@@YAMM@Z         0000000140041010 f   shadertoy.obj
 0002:0001b0f0       ?RenderLaura_2x2$omp$1@@YAXPEAIM@Z 00000001400410f0 f   shadertoy.obj
 0002:0001ba80       ?RenderNautilusMap_2x2$omp$1@@YAXPEAIM@Z 0000000140041a80 f   shadertoy.obj
 0002:0001c3d0       ?RenderNautilusMap_2x2@@YAXPEAIM@Z 00000001400423d0 f   shadertoy.obj
 0002:0001c710       ?RenderPlasmaMap$omp$1@@YAXPEAIM@Z 0000000140042710 f   shadertoy.obj
 0002:0001cc10       ?RenderPlasmaMap@@YAXPEAIM@Z 0000000140042c10 f   shadertoy.obj
 0002:0001ced0       ?RenderSinMap_2x2$omp$1@@YAXPEAIM@Z 0000000140042ed0 f   shadertoy.obj
 0002:0001d680       ?RenderSinMap_2x2@@YAXPEAIM@Z 0000000140043680 f   shadertoy.obj
 0002:0001d860       ?RenderSpikeyMap_2x2_Close$omp$1@@YAXPEAIM@Z 0000000140043860 f   shadertoy.obj
 0002:0001e0f0       ?RenderSpikeyMap_2x2_Close@@YAXPEAIM@Z 00000001400440f0 f   shadertoy.obj
 0002:0001e550       ?RenderSpikeyMap_2x2_Distant$omp$1@@YAXPEAIM@Z 0000000140044550 f   shadertoy.obj
 0002:0001ecd0       ?RenderSpikeyMap_2x2_Distant@@YAXPEAIM@Z 0000000140044cd0 f   shadertoy.obj
 0002:0001efa0       ?RenderSpikeyMap_2x2_Distant_SpecularOnly$omp$1@@YAXPEAIMM@Z 0000000140044fa0 f   shadertoy.obj
 0002:0001f660       ?RenderSpikeyMap_2x2_Distant_SpecularOnly@@YAXPEAIMM@Z 0000000140045660 f   shadertoy.obj
 0002:0001f790       ?RenderTunnelMap_2x2$omp$1@@YAXPEAI0M@Z 0000000140045790 f   shadertoy.obj
 0002:00020140       ?RenderTunnelMap_2x2@@YAXPEAI0M@Z 0000000140046140 f   shadertoy.obj
 0002:00020c80       ?Specular@Shadertoy@@YAMAEBVVector3@@000M@Z 0000000140046c80 f   shadertoy.obj
 0002:00021480       ?ToPixel4@Shadertoy@@YA?AT__m128i@@PEBT__m128@@@Z 0000000140047480 f   shadertoy.obj
 0002:00021750       ?ToPixel4_NoConv@Shadertoy@@YA?AT__m128i@@PEBT__m128@@@Z 0000000140047750 f   shadertoy.obj
 0002:000218e0       ?ToUV_FxMap@Shadertoy@@YA?BVVector2@@IIM@Z 00000001400478e0 f   shadertoy.obj
 0002:00021c20       ?bsamp32_32@@YA?AT__m128i@@PEBIIIIIII@Z 0000000140047c20 f   shadertoy.obj
 0002:00022130       ?bsamp32_32f@@YA?AT__m128@@PEBIIIIIII@Z 0000000140048130 f   shadertoy.obj
 0002:000221f0       ?bsamp_prepUVs@@YAXHHIIAEAI00000@Z 00000001400481f0 f   shadertoy.obj
 0002:000223a0       ?c2vISSE32@@YA?AT__m128i@@I@Z 00000001400483a0 f   shadertoy.obj
 0002:00022410       ?clampf@@YAMMMM@Z          0000000140048410 f   shadertoy.obj
 0002:00022c60       ?easeInOutElasticf@@YAMM@Z 0000000140048c60 f   shadertoy.obj
 0002:00023470       ?fLaura@@YAMAEBVVector3@@@Z 0000000140049470 f   shadertoy.obj
 0002:00023530       ?fNautilus@@YAMAEBVVector3@@M@Z 0000000140049530 f   shadertoy.obj
 0002:000236f0       ?fPlasma@@YAMAEBVVector3@@M@Z 00000001400496f0 f   shadertoy.obj
 0002:00023860       ?fSinMap@@YAMAEBVVector3@@@Z 0000000140049860 f   shadertoy.obj
 0002:00023b80       ?fSinPath@@YA?BVVector3@@M@Z 0000000140049b80 f   shadertoy.obj
 0002:00023c80       ?fSpikey1@@YAMAEBVVector3@@@Z 0000000140049c80 f   shadertoy.obj
 0002:00023d90       ?fSpikey2@@YAMAEBVVector3@@@Z 0000000140049d90 f   shadertoy.obj
 0002:00023ea0       ?fracf@@YAMM@Z             0000000140049ea0 f   shadertoy.obj
 0002:00023f00       ?ftofp24@@YAHM@Z           0000000140049f00 f   shadertoy.obj
 0002:00023f50       ?getf@Rocket@@YAMPEBUsync_track@@@Z 0000000140049f50 f   shadertoy.obj
 0002:00023fa0       ?geti@Rocket@@YAHPEBUsync_track@@@Z 0000000140049fa0 f   shadertoy.obj
 0002:000247c0       ?lutcosf@@YAMH@Z           000000014004a7c0 f   shadertoy.obj
 0002:00024820       ?lutcosf@@YAMM@Z           000000014004a820 f   shadertoy.obj
 0002:00024870       ?lutsinf@@YAMH@Z           000000014004a870 f   shadertoy.obj
 0002:000248c0       ?lutsinf@@YAMM@Z           000000014004a8c0 f   shadertoy.obj
 0002:00024910       ?rotX@Shadertoy@@YAXMAEAM0@Z 000000014004a910 f   shadertoy.obj
 0002:00024a30       ?rotY@Shadertoy@@YAXMAEAM0@Z 000000014004aa30 f   shadertoy.obj
 0002:00024b50       ?rotZ@Shadertoy@@YAXMAEAM0@Z 000000014004ab50 f   shadertoy.obj
 0002:00024c70       ?saturatef@@YAMM@Z         000000014004ac70 f   shadertoy.obj
 0002:00025e60       ?smoothstepf@@YAMMMM@Z     000000014004be60 f   shadertoy.obj
 0002:00025f10       ?tocosindex@@YAHM@Z        000000014004bf10 f   shadertoy.obj
 0002:00025f70       ?vFastLen3@Shadertoy@@YAMAEBVVector3@@@Z 000000014004bf70 f   shadertoy.obj
 0002:00026010       ?vFastNorm3@Shadertoy@@YAXAEAVVector3@@@Z 000000014004c010 f   shadertoy.obj
 0002:000260e0       ?vLerp4@Shadertoy@@YA?AT__m128@@T2@0M@Z 000000014004c0e0 f   shadertoy.obj
 0002:000261b0       ??$lerpf@M@@YA?BMAEBM0M@Z  000000014004c1b0 f   demo.obj
 0002:00026230       ?BloodBlend@@YAPEAIMQEAPEAI@Z 000000014004c230 f   demo.obj
 0002:000264b0       ?BoxBlurScale@@YAMM@Z      000000014004c4b0 f   demo.obj
 0002:00029710       $LN72                      000000014004f710     demo.obj
 0002:00029744       $LN71                      000000014004f744     demo.obj
 0002:00029d30       ?FadeFlash@@YAXPEAIMM@Z    000000014004fd30 f   demo.obj
 0002:00029e10       ?clampf@@YAMMMM@Z          000000014004fe10 f   demo.obj
 0002:00029eb0       ?clampi@@YAHHHH@Z          000000014004feb0 f   demo.obj
 0002:00029f20       ?easeInBackf@@YAMM@Z       000000014004ff20 f   demo.obj
 0002:00029fc0       ?easeOutElasticf@@YAMM@Z   000000014004ffc0 f   demo.obj
 0002:0002a120       ?getf@Rocket@@YAMPEBUsync_track@@@Z 0000000140050120 f   demo.obj
 0002:0002a170       ?geti@Rocket@@YAHPEBUsync_track@@@Z 0000000140050170 f   demo.obj
 0002:0002a1c0       ?memset32@@YAXPEAXH_K@Z    00000001400501c0 f   demo.obj
 0002:0002a2a0       ?saturatef@@YAMM@Z         00000001400502a0 f   demo.obj
 0002:0002a340       ?smootherstepf@@YAMMMM@Z   0000000140050340 f   demo.obj
 0002:0002c290       ?Image_Load@@YAPEAXAEBV?$basic_string@DU?$char_traits@D@std@@V?$allocator@D@2@@std@@_NPEAI1@Z 0000000140052290 f   image.obj
 0002:0002d690       ?bsamp32_16@@YA?AT__m128i@@PEBIIIIIII@Z 0000000140053690 f   landscape.obj
 0002:0002db60       ?bsamp8@@YAIPEBEIIIIII@Z   0000000140053b60 f   landscape.obj
 0002:0002dd10       ?bsamp_prepUVs@@YAXHHIIAEAI00000@Z 0000000140053d10 f   landscape.obj
 0002:0002dec0       ?c2vISSE16@@YA?AT__m128i@@I@Z 0000000140053ec0 f   landscape.obj
 0002:0002df40       ?clampf@@YAMMMM@Z          0000000140053f40 f   landscape.obj
 0002:0002dfe0       ?cspanISSE16@@YAXPEAIHIIT__m128i@@1@Z 0000000140053fe0 f   landscape.obj
 0002:0002e390       ?ftofp24@@YAHM@Z           0000000140054390 f   landscape.obj
 0002:0002e3e0       ?getf@Rocket@@YAMPEBUsync_track@@@Z 00000001400543e0 f   landscape.obj
 0002:0002e430       ?memset32@@YAXPEAXH_K@Z    0000000140054430 f   landscape.obj
 0002:0002e510       ?vnorm2D@voxel@@YAXAEAM0@Z 0000000140054510 f   landscape.obj
 0002:0002e620       ?vrot2D@voxel@@YAXMMAEAM0@Z 0000000140054620 f   landscape.obj
 0002:0002e710       ?vscape$omp$1@@YAXPEAIMM@Z 0000000140054710 f   landscape.obj
 0002:0002ea30       ?vscape@@YAXPEAIMM@Z       0000000140054a30 f   landscape.obj
 0002:0002ef80       ?vscape_ray@@YAXPEAIHHHHM@Z 0000000140054f80 f   landscape.obj
 0002:000343e0       ?HandleEvents@@YA_NXZ      000000014005a3e0 f   main.obj
 0002:00037890       ?memset32@@YAXPEAXH_K@Z    000000014005d890 f   main.obj
 0002:00038a30       ?CalculateMaps@@YAXPEAH0IIII@Z 000000014005ea30 f   polar.obj
 0002:00038eb0       ?Fetch16@@YA?AT__m128i@@PEAHPEBII@Z 000000014005eeb0 f   polar.obj
 0002:00038fe0       ?Fetch32@@YA?AT__m128i@@PEAHPEBII@Z 000000014005efe0 f   polar.obj
 0002:00039110       ?Polar_Blit$omp$1@@YAXPEAIPEBI_N@Z 000000014005f110 f   polar.obj
 0002:000394c0       ?Polar_BlitA$omp$1@@YAXPEAIPEBI_N@Z 000000014005f4c0 f   polar.obj
 0002:00039870       ?Polar_Blit_2x2$omp$1@@YAXPEAIPEBI_N@Z 000000014005f870 f   polar.obj
 0002:00039db0       ?bsamp32_16@@YA?AT__m128i@@PEBIIIIIII@Z 000000014005fdb0 f   polar.obj
 0002:0003a280       ?bsamp32_32@@YA?AT__m128i@@PEBIIIIIII@Z 0000000140060280 f   polar.obj
 0002:0003a790       ?c2vISSE32@@YA?AT__m128i@@I@Z 0000000140060790 f   polar.obj
 0002:0003a800       ?ftofp24@@YAHM@Z           0000000140060800 f   polar.obj
 0002:0003aa40       ?c2vISSE16@@YA?AT__m128i@@I@Z 0000000140060a40 f   shared-resources.obj
 0002:0003aba0       ?BoxBlurScale@@YAMM@Z      0000000140060ba0 f   torus-twister.obj
 0002:0003af70       ?bsamp32_16@@YA?AT__m128i@@PEBIIIIIII@Z 0000000140060f70 f   torus-twister.obj
 0002:0003b440       ?bsamp8@@YAIPEBEIIIIII@Z   0000000140061440 f   torus-twister.obj
 0002:0003b5f0       ?bsamp_prepUVs@@YAXHHIIAEAI00000@Z 00000001400615f0 f   torus-twister.obj
 0002:0003b7a0       ?clampf@@YAMMMM@Z          00000001400617a0 f   torus-twister.obj
 0002:0003b840       ?cspanISSE16@@YAXPEAIHIIT__m128i@@1@Z 0000000140061840 f   torus-twister.obj
 0002:0003bbf0       ?ftofp24@@YAHM@Z           0000000140061bf0 f   torus-twister.obj
 0002:0003bc40       ?getf@Rocket@@YAMPEBUsync_track@@@Z 0000000140061c40 f   torus-twister.obj
 0002:0003bc90       ?memset32@@YAXPEAXH_K@Z    0000000140061c90 f   torus-twister.obj
 0002:0003bd70       ?vtwister$omp$1@@YAXPEAIM@Z 0000000140061d70 f   torus-twister.obj
 0002:0003bfd0       ?vtwister@@YAXPEAIM@Z      0000000140061fd0 f   torus-twister.obj
 0002:0003c230       ?vtwister_ray@@YAXPEAIHHH@Z 0000000140062230 f   torus-twister.obj
 0002:0003c730       ?BoxBlurScale@@YAMM@Z      0000000140062730 f   tunnelscape.obj
 0002:0003cb70       ?bsamp32_16@@YA?AT__m128i@@PEBIIIIIII@Z 0000000140062b70 f   tunnelscape.obj
 0002:0003d040       ?bsamp8@@YAIPEBEIIIIII@Z   0000000140063040 f   tunnelscape.obj
 0002:0003d1f0       ?bsamp_prepUVs@@YAXHHIIAEAI00000@Z 00000001400631f0 f   tunnelscape.obj
 0002:0003d3a0       ?c2vISSE16@@YA?AT__m128i@@I@Z 00000001400633a0 f   tunnelscape.obj
 0002:0003d420       ?clampf@@YAMMMM@Z          0000000140063420 f   tunnelscape.obj
 0002:0003d4c0       ?cspanISSE16@@YAXPEAIHIIT__m128i@@1@Z 00000001400634c0 f   tunnelscape.obj
 0002:0003d870       ?ftofp24@@YAHM@Z           0000000140063870 f   tunnelscape.obj
 0002:0003d8c0       ?getf@Rocket@@YAMPEBUsync_track@@@Z 00000001400638c0 f   tunnelscape.obj
 0002:0003d910       ?memset32@@YAXPEAXH_K@Z    0000000140063910 f   tunnelscape.obj
 0002:0003d9f0       ?tscape$omp$1@@YAXPEAIM@Z  00000001400639f0 f   tunnelscape.obj
 0002:0003dba0       ?tscape@@YAXPEAIM@Z        0000000140063ba0 f   tunnelscape.obj
 0002:0003dd60       ?tscape_ray@@YAXPEAIHHHH@Z 0000000140063d60 f   tunnelscape.obj
 0002:0003e210       ?Add32$omp$1@@YAXPEAIPEBII@Z 0000000140064210 f   util.obj
 0002:0003e4f0       ?BlitAdd32$omp$1@@YAXPEAIPEBIIII@Z 00000001400644f0 f   util.obj
 0002:0003e8a0       ?BlitAdd32A$omp$1@@YAXPEAIPEBIIIIM@Z 00000001400648a0 f   util.obj
 0002:0003ecf0       ?BlitSrc32$omp$1@@YAXPEAIPEBIIII@Z 0000000140064cf0 f   util.obj
 0002:0003f140       ?BlitSrc32A$omp$1@@YAXPEAIPEBIIIIM@Z 0000000140065140 f   util.obj
 0002:0003f640       ?Darken32_50$omp$1@@YAXPEAIPEBII@Z 0000000140065640 f   util.obj
 0002:0003f9e0       ?Excl32$omp$1@@YAXPEAIPEBII@Z 00000001400659e0 f   util.obj
 0002:0003fd20       ?Fade32$omp$1@@YAXPEAIIIE@Z 0000000140065d20 f   util.obj
 0002:000400c0       ?Mix32$omp$1@@YAXPEAIPEBIIE@Z 00000001400660c0 f   util.obj
 0002:00040470       ?MixOver32$omp$1@@YAXPEAIPEBII@Z 0000000140066470 f   util.obj
 0002:00040810       ?MixSrc32$omp$1@@YAXPEAIPEBII@Z 0000000140066810 f   util.obj
 0002:00040b90       ?MixSrc32S$omp$1@@YAXPEAIPEBIIII@Z 0000000140066b90 f   util.obj
 0002:00040fe0       ?MulSrc32$omp$1@@YAXPEAIPEBII@Z 0000000140066fe0 f   util.obj
 0002:000412e0       ?MulSrc32A$omp$1@@YAXPEAIPEBII@Z 00000001400672e0 f   util.obj
 0002:00041610       ?Overlay32$omp$1@@YAXPEAIPEBII@Z 0000000140067610 f   util.obj
 0002:00041a00       ?Overlay32A$omp$1@@YAXPEAIPEBII@Z 0000000140067a00 f   util.obj
 0002:00041ea0       ?SoftLight32$omp$1@@YAXPEAIPEBII@Z 0000000140067ea0 f   util.obj
 0002:000421a0       ?SoftLight32A$omp$1@@YAXPEAIPEBII@Z 00000001400681a0 f   util.obj
 0002:00042530       ?SoftLight32AA$omp$1@@YAXPEAIPEBIIM@Z 0000000140068530 f   util.obj
 0002:00042900       ?SoftLightBlend@@YAIEE@Z   0000000140068900 f   util.obj
 0002:000429d0       ?Sub32$omp$1@@YAXPEAIPEBII@Z 00000001400689d0 f   util.obj
 0002:00042cb0       ?TapeWarp32$omp$1@@YAXPEAIPEBIIIMM@Z 0000000140068cb0 f   util.obj
 0002:000431e0       ?bsamp32_16@@YA?AT__m128i@@PEBIIIIIII@Z 00000001400691e0 f   util.obj
 0002:000436b0       ?c2vISSE16@@YA?AT__m128i@@I@Z 00000001400696b0 f   util.obj
 0002:00043730       ?ftofp24@@YAHM@Z           0000000140069730 f   util.obj
 0002:00043780       ?lutcosf@@YAMH@Z           0000000140069780 f   util.obj
 0002:000437e0       ?lutcosf@@YAMM@Z           00000001400697e0 f   util.obj
 0002:00043830       ?lutsinf@@YAMH@Z           0000000140069830 f   util.obj
 0002:00043880       ?lutsinf@@YAMM@Z           0000000140069880 f   util.obj
 0002:000438d0       ?saturatef@@YAMM@Z         00000001400698d0 f   util.obj
 0002:00043970       ?tocosindex@@YAHM@Z        0000000140069970 f   util.obj
 0002:000439d0       ?v2cISSE16@@YAIT__m128i@@@Z 00000001400699d0 f   util.obj
 0002:00044060       $$000000                   000000014006a060     MSVCRTD:chkstk.obj
 0002:00044100       ?find_pe_section@@YAPEAU_IMAGE_SECTION_HEADER@@QEAE_K@Z 000000014006a100 f   MSVCRTD:utility.obj
 0002:00044220       ?is_potentially_valid_image_base@@YA_NQEAX@Z 000000014006a220 f   MSVCRTD:utility.obj
 0002:00044940       ?pre_c_initialization@@YAHXZ 000000014006a940 f   MSVCRTD:exe_winmain.obj
 0002:00044a20       ?post_pgo_initialization@@YAHXZ 000000014006aa20 f   MSVCRTD:exe_winmain.obj
 0002:00044a40       ?pre_cpp_initialization@@YAXXZ 000000014006aa40 f   MSVCRTD:exe_winmain.obj
 0002:00044a60       ?__scrt_common_main@@YAHXZ 000000014006aa60 f   MSVCRTD:exe_winmain.obj
 0002:00044a80       ?__scrt_common_main_seh@@YAHXZ 000000014006aa80 f   MSVCRTD:exe_winmain.obj
 0002:00044c90       ?invoke_main@@YAHXZ        000000014006ac90 f   MSVCRTD:exe_winmain.obj
 0002:00044d70       ?DebuggerProbe@@YA_NK@Z    000000014006ad70 f   MSVCRTD:error.obj
 0002:00044dc0       ?DebuggerRuntime@@YA_NKHPEAXPEB_W@Z 000000014006adc0 f   MSVCRTD:error.obj
 0002:00045150       ?_getMemBlockDataString@@YAXPEAD0PEBD_K@Z 000000014006b150 f   MSVCRTD:error.obj
 0002:00045230       ?_strlen_priv@@YA_KPEBD@Z  000000014006b230 f   MSVCRTD:error.obj
 0002:00045250       ?failwithmessage@@YAXPEAXHHPEBD@Z 000000014006b250 f   MSVCRTD:error.obj
 0002:00045550       ?notify_debugger@@YAXAEBUtagEXCEPTION_VISUALCPP_DEBUG_INFO@@@Z 000000014006b550 f   MSVCRTD:error.obj
 0002:00046310       __castguard_compat_check   000000014006c310 f   MSVCRTD:guard_support.obj
 0002:000464f0       __castguard_slow_path_compat_check 000000014006c4f0 f   MSVCRTD:guard_support.obj
 0002:000465e0       __get_entropy              000000014006c5e0 f   MSVCRTD:gs_support.obj
 0002:000469b0       ?GetPdbDll@@YAPEAUHINSTANCE__@@XZ 000000014006c9b0 f   MSVCRTD:pdblkup.obj
 0002:00046b50       ?GetPdbDllFromInstallPath@@YAPEAUHINSTANCE__@@XZ 000000014006cb50 f   MSVCRTD:pdblkup.obj
 0002:00046eb0       ?GetPdbDllPathFromFilePath@@YAHPEB_WPEA_W_K@Z 000000014006ceb0 f   MSVCRTD:pdblkup.obj
 0002:00047650       $$000000                   000000014006d650     MSVCRTD:amdsecgs.obj
 0002:00047a40       capture_current_context    000000014006da40 f   MSVCRTD:gs_report.obj
 0002:00047b00       capture_previous_context   000000014006db00 f   MSVCRTD:gs_report.obj
 0002:00047c20       ?_Test@_Whitespace_bitmap_t@?A0xf6b3e556@@QEBA_ND@Z 000000014006dc20 f   msvcprtd:syserror_import_lib.obj
 0002:00048110       ?_Create_symlink@?A0x78a54454@@YA?AW4__std_win_error@@QEB_W0K@Z 000000014006e110 f   msvcprtd:filesystem.obj
 0002:00048200       ?_Get_last_write_time_by_handle@?A0x78a54454@@YA?AW4__std_win_error@@QEAXQEA_J@Z 000000014006e200 f   msvcprtd:filesystem.obj
 0002:000482d0       ?_Translate_CreateFile_last_error@?A0x78a54454@@YA?AW4__std_win_error@@QEAX@Z 000000014006e2d0 f   msvcprtd:filesystem.obj
 0002:00048300       ?_Translate_not_found_to_success@?A0x78a54454@@YA?AW4__std_win_error@@W42@@Z 000000014006e300 f   msvcprtd:filesystem.obj
 0002:00048380       ?__vcp_Copyfile@?A0x78a54454@@YA?AU__std_fs_copy_file_result@@QEB_W0_N@Z 000000014006e380 f   msvcprtd:filesystem.obj
 0002:0004c890       $$000000                   0000000140072890     MSVCRTD:guard_dispatch.obj
 0002:0004c8b0       $$000000                   00000001400728b0     MSVCRTD:guard_xfg_dispatch.obj
 0002:0004d8d0       ?dtor$0@?0??Rotation@Matrix44@@SA?BV1@AEBVQuaternion@@@Z@4HA 00000001400738d0 f   Matrix44.obj
 0002:0004d900       ?dtor$0@?0??RotationAxis@Matrix44@@SA?BV1@AEBVVector3@@M@Z@4HA 0000000140073900 f   Matrix44.obj
 0002:0004d930       ?dtor$1@?0??Slerp@Quaternion@@SA?BV1@AEBV1@0M@Z@4HA 0000000140073930 f   Quaternion.obj
 0002:0004d960       ?dtor$2@?0??Slerp@Quaternion@@SA?BV1@AEBV1@0M@Z@4HA 0000000140073960 f   Quaternion.obj
 0002:0004d990       ?dtor$0@?0???0?$basic_string@DU?$char_traits@D@std@@V?$allocator@D@2@@std@@QEAA@QEBD@Z@4HA 0000000140073990 f   audio.obj
 0002:0004d9c0       ?dtor$1@?0???0?$basic_string@DU?$char_traits@D@std@@V?$allocator@D@2@@std@@QEAA@QEBD@Z@4HA 00000001400739c0 f   audio.obj
 0002:0004d9f0       ?dtor$0@?0???0?$basic_string@DU?$char_traits@D@std@@V?$allocator@D@2@@std@@QEAA@U_String_constructor_concat_tag@1@AEBV01@QEBD_K23@Z@4HA 00000001400739f0 f   audio.obj
 0002:0004da20       ?dtor$1@?0???0?$basic_string@DU?$char_traits@D@std@@V?$allocator@D@2@@std@@QEAA@U_String_constructor_concat_tag@1@AEBV01@QEBD_K23@Z@4HA 0000000140073a20 f   audio.obj
 0002:0004da50       ?dtor$0@?0??Audio_Create@@YA_NIAEBV?$basic_string@DU?$char_traits@D@std@@V?$allocator@D@2@@std@@PEAUHWND__@@_N@Z@4HA 0000000140073a50 f   audio.obj
 0002:0004da80       ?dtor$1@?0??Audio_Create@@YA_NIAEBV?$basic_string@DU?$char_traits@D@std@@V?$allocator@D@2@@std@@PEAUHWND__@@_N@Z@4HA 0000000140073a80 f   audio.obj
 0002:0004dab0       ?dtor$0@?0??Ball_Create@@YA_NXZ@4HA 0000000140073ab0 f   ball.obj
 0002:0004dae0       ?dtor$1@?0??Ball_Create@@YA_NXZ@4HA 0000000140073ae0 f   ball.obj
 0002:0004db10       ?dtor$2@?0??Ball_Create@@YA_NXZ@4HA 0000000140073b10 f   ball.obj
 0002:0004db40       ?dtor$3@?0??Ball_Create@@YA_NXZ@4HA 0000000140073b40 f   ball.obj
 0002:0004db70       ?dtor$4@?0??Ball_Create@@YA_NXZ@4HA 0000000140073b70 f   ball.obj
 0002:0004dba0       ?dtor$5@?0??Ball_Create@@YA_NXZ@4HA 0000000140073ba0 f   ball.obj
 0002:0004dbd0       ?dtor$6@?0??Ball_Create@@YA_NXZ@4HA 0000000140073bd0 f   ball.obj
 0002:0004dc00       ?dtor$7@?0??Ball_Create@@YA_NXZ@4HA 0000000140073c00 f   ball.obj
 0002:0004dc30       ?dtor$8@?0??Ball_Create@@YA_NXZ@4HA 0000000140073c30 f   ball.obj
 0002:0004dc60       ?dtor$9@?0??Ball_Create@@YA_NXZ@4HA 0000000140073c60 f   ball.obj
 0002:0004dc90       ?dtor$0@?0??Launch@Rocket@@YA_NXZ@4HA 0000000140073c90 f   rocket.obj
 0002:0004dcc0       ?dtor$0@?0??Shadertoy_Create@@YA_NXZ@4HA 0000000140073cc0 f   shadertoy.obj
 0002:0004dcf0       ?dtor$1@?0??Shadertoy_Create@@YA_NXZ@4HA 0000000140073cf0 f   shadertoy.obj
 0002:0004dd20       ?dtor$2@?0??Shadertoy_Create@@YA_NXZ@4HA 0000000140073d20 f   shadertoy.obj
 0002:0004dd50       ?dtor$3@?0??Shadertoy_Create@@YA_NXZ@4HA 0000000140073d50 f   shadertoy.obj
 0002:0004dd80       ?dtor$0@?0??Demo_Create@@YA_NXZ@4HA 0000000140073d80 f   demo.obj
 0002:0004ddb0       ?dtor$1@?0??Demo_Create@@YA_NXZ@4HA 0000000140073db0 f   demo.obj
 0002:0004dde0       ?dtor$2@?0??Demo_Create@@YA_NXZ@4HA 0000000140073de0 f   demo.obj
 0002:0004de10       ?dtor$3@?0??Demo_Create@@YA_NXZ@4HA 0000000140073e10 f   demo.obj
 0002:0004de40       ?dtor$4@?0??Demo_Create@@YA_NXZ@4HA 0000000140073e40 f   demo.obj
 0002:0004de70       ?dtor$5@?0??Demo_Create@@YA_NXZ@4HA 0000000140073e70 f   demo.obj
 0002:0004dea0       ?dtor$6@?0??Demo_Create@@YA_NXZ@4HA 0000000140073ea0 f   demo.obj
 0002:0004ded0       ?dtor$7@?0??Demo_Create@@YA_NXZ@4HA 0000000140073ed0 f   demo.obj
 0002:0004df00       ?dtor$8@?0??Demo_Create@@YA_NXZ@4HA 0000000140073f00 f   demo.obj
 0002:0004df30       ?dtor$9@?0??Demo_Create@@YA_NXZ@4HA 0000000140073f30 f   demo.obj
 0002:0004df60       ?dtor$10@?0??Demo_Create@@YA_NXZ@4HA 0000000140073f60 f   demo.obj
 0002:0004df90       ?dtor$11@?0??Demo_Create@@YA_NXZ@4HA 0000000140073f90 f   demo.obj
 0002:0004dfc0       ?dtor$12@?0??Demo_Create@@YA_NXZ@4HA 0000000140073fc0 f   demo.obj
 0002:0004dff0       ?dtor$13@?0??Demo_Create@@YA_NXZ@4HA 0000000140073ff0 f   demo.obj
 0002:0004e020       ?dtor$14@?0??Demo_Create@@YA_NXZ@4HA 0000000140074020 f   demo.obj
 0002:0004e050       ?dtor$15@?0??Demo_Create@@YA_NXZ@4HA 0000000140074050 f   demo.obj
 0002:0004e080       ?dtor$16@?0??Demo_Create@@YA_NXZ@4HA 0000000140074080 f   demo.obj
 0002:0004e0b0       ?dtor$17@?0??Demo_Create@@YA_NXZ@4HA 00000001400740b0 f   demo.obj
 0002:0004e0e0       ?dtor$18@?0??Demo_Create@@YA_NXZ@4HA 00000001400740e0 f   demo.obj
 0002:0004e110       ?dtor$19@?0??Demo_Create@@YA_NXZ@4HA 0000000140074110 f   demo.obj
 0002:0004e140       ?dtor$20@?0??Demo_Create@@YA_NXZ@4HA 0000000140074140 f   demo.obj
 0002:0004e170       ?dtor$21@?0??Demo_Create@@YA_NXZ@4HA 0000000140074170 f   demo.obj
 0002:0004e1a0       ?dtor$22@?0??Demo_Create@@YA_NXZ@4HA 00000001400741a0 f   demo.obj
 0002:0004e1d0       ?dtor$23@?0??Demo_Create@@YA_NXZ@4HA 00000001400741d0 f   demo.obj
 0002:0004e200       ?dtor$24@?0??Demo_Create@@YA_NXZ@4HA 0000000140074200 f   demo.obj
 0002:0004e230       ?dtor$25@?0??Demo_Create@@YA_NXZ@4HA 0000000140074230 f   demo.obj
 0002:0004e260       ?dtor$26@?0??Demo_Create@@YA_NXZ@4HA 0000000140074260 f   demo.obj
 0002:0004e290       ?dtor$27@?0??Demo_Create@@YA_NXZ@4HA 0000000140074290 f   demo.obj
 0002:0004e2c0       ?dtor$28@?0??Demo_Create@@YA_NXZ@4HA 00000001400742c0 f   demo.obj
 0002:0004e2f0       ?dtor$29@?0??Demo_Create@@YA_NXZ@4HA 00000001400742f0 f   demo.obj
 0002:0004e320       ?dtor$30@?0??Demo_Create@@YA_NXZ@4HA 0000000140074320 f   demo.obj
 0002:0004e350       ?dtor$31@?0??Demo_Create@@YA_NXZ@4HA 0000000140074350 f   demo.obj
 0002:0004e380       ?dtor$32@?0??Demo_Create@@YA_NXZ@4HA 0000000140074380 f   demo.obj
 0002:0004e3b0       ?dtor$33@?0??Demo_Create@@YA_NXZ@4HA 00000001400743b0 f   demo.obj
 0002:0004e3e0       ?dtor$34@?0??Demo_Create@@YA_NXZ@4HA 00000001400743e0 f   demo.obj
 0002:0004e410       ?dtor$35@?0??Demo_Create@@YA_NXZ@4HA 0000000140074410 f   demo.obj
 0002:0004e440       ?dtor$36@?0??Demo_Create@@YA_NXZ@4HA 0000000140074440 f   demo.obj
 0002:0004e470       ?dtor$37@?0??Demo_Create@@YA_NXZ@4HA 0000000140074470 f   demo.obj
 0002:0004e4a0       ?dtor$38@?0??Demo_Create@@YA_NXZ@4HA 00000001400744a0 f   demo.obj
 0002:0004e4d0       ?dtor$39@?0??Demo_Create@@YA_NXZ@4HA 00000001400744d0 f   demo.obj
 0002:0004e500       ?dtor$40@?0??Demo_Create@@YA_NXZ@4HA 0000000140074500 f   demo.obj
 0002:0004e530       ?dtor$41@?0??Demo_Create@@YA_NXZ@4HA 0000000140074530 f   demo.obj
 0002:0004e560       ?dtor$42@?0??Demo_Create@@YA_NXZ@4HA 0000000140074560 f   demo.obj
 0002:0004e590       ?dtor$43@?0??Demo_Create@@YA_NXZ@4HA 0000000140074590 f   demo.obj
 0002:0004e5c0       ?dtor$44@?0??Demo_Create@@YA_NXZ@4HA 00000001400745c0 f   demo.obj
 0002:0004e5f0       ?dtor$45@?0??Demo_Create@@YA_NXZ@4HA 00000001400745f0 f   demo.obj
 0002:0004e620       ?dtor$46@?0??Demo_Create@@YA_NXZ@4HA 0000000140074620 f   demo.obj
 0002:0004e650       ?dtor$47@?0??Demo_Create@@YA_NXZ@4HA 0000000140074650 f   demo.obj
 0002:0004e680       ?dtor$48@?0??Demo_Create@@YA_NXZ@4HA 0000000140074680 f   demo.obj
 0002:0004e6b0       ?dtor$49@?0??Demo_Create@@YA_NXZ@4HA 00000001400746b0 f   demo.obj
 0002:0004e6e0       ?dtor$50@?0??Demo_Create@@YA_NXZ@4HA 00000001400746e0 f   demo.obj
 0002:0004e710       ?dtor$51@?0??Demo_Create@@YA_NXZ@4HA 0000000140074710 f   demo.obj
 0002:0004e740       ?dtor$52@?0??Demo_Create@@YA_NXZ@4HA 0000000140074740 f   demo.obj
 0002:0004e770       ?dtor$53@?0??Demo_Create@@YA_NXZ@4HA 0000000140074770 f   demo.obj
 0002:0004e7a0       ?dtor$54@?0??Demo_Create@@YA_NXZ@4HA 00000001400747a0 f   demo.obj
 0002:0004e7d0       ?dtor$55@?0??Demo_Create@@YA_NXZ@4HA 00000001400747d0 f   demo.obj
 0002:0004e800       ?dtor$56@?0??Demo_Create@@YA_NXZ@4HA 0000000140074800 f   demo.obj
 0002:0004e830       ?dtor$57@?0??Demo_Create@@YA_NXZ@4HA 0000000140074830 f   demo.obj
 0002:0004e860       ?dtor$0@?0??Open@Display@@QEAA_NAEBV?$basic_string@DU?$char_traits@D@std@@V?$allocator@D@2@@std@@II_N@Z@4HA 0000000140074860 f   display.obj
 0002:0004e890       ?dtor$1@?0??Open@Display@@QEAA_NAEBV?$basic_string@DU?$char_traits@D@std@@V?$allocator@D@2@@std@@II_N@Z@4HA 0000000140074890 f   display.obj
 0002:0004e8c0       ?catch$0@?0???$_Emplace_reallocate@AEBQEAX@?$vector@PEAXV?$allocator@PEAX@std@@@std@@QEAAPEAPEAXQEAPEAXAEBQEAX@Z@4HA 00000001400748c0 f   image.obj
 0002:0004e8d4       __catch$??$_Emplace_reallocate@AEBQEAX@?$vector@PEAXV?$allocator@PEAX@std@@@std@@QEAAPEAPEAXQEAPEAXAEBQEAX@Z$0 00000001400748d4 f   image.obj
 0002:0004e940       ?dtor$0@?0???$_Uninitialized_move@PEAPEAXV?$allocator@PEAX@std@@@std@@YAPEAPEAXQEAPEAX0PEAPEAXAEAV?$allocator@PEAX@0@@Z@4HA 0000000140074940 f   image.obj
 0002:0004e970       ?dtor$0@?0??Image_Load@@YAPEAXAEBV?$basic_string@DU?$char_traits@D@std@@V?$allocator@D@2@@std@@_NPEAI1@Z@4HA 0000000140074970 f   image.obj
 0002:0004e9a0       ?dtor$0@?0??_Orphan_range_locked@?$vector@PEAXV?$allocator@PEAX@std@@@std@@AEBAXPEAPEAX0@Z@4HA 00000001400749a0 f   image.obj
 0002:0004e9d0       ?dtor$0@?0??Landscape_Create@@YA_NXZ@4HA 00000001400749d0 f   landscape.obj
 0002:0004ea00       ?dtor$1@?0??Landscape_Create@@YA_NXZ@4HA 0000000140074a00 f   landscape.obj
 0002:0004ea30       ?dtor$2@?0??Landscape_Create@@YA_NXZ@4HA 0000000140074a30 f   landscape.obj
 0002:0004ea60       ?dtor$0@?0???$_Convert_wide_to_narrow_replace_chars@U?$char_traits@D@std@@V?$allocator@D@2@@filesystem@std@@YA?AV?$basic_string@DU?$char_traits@D@std@@V?$allocator@D@2@@1@W4__std_code_page@@V?$basic_string_view@_WU?$char_traits@_W@std@@@1@AEBV?$allocator@D@1@@Z@4HA 0000000140074a60 f   main.obj
 0002:0004ea90       ?dtor$0@?0???0?$basic_string@DU?$char_traits@D@std@@V?$allocator@D@2@@std@@QEAA@AEBV01@@Z@4HA 0000000140074a90 f   main.obj
 0002:0004eac0       ?dtor$1@?0???0?$basic_string@DU?$char_traits@D@std@@V?$allocator@D@2@@std@@QEAA@AEBV01@@Z@4HA 0000000140074ac0 f   main.obj
 0002:0004eaf0       ?dtor$0@?0???0?$basic_string@DU?$char_traits@D@std@@V?$allocator@D@2@@std@@QEAA@QEBD_K@Z@4HA 0000000140074af0 f   main.obj
 0002:0004eb20       ?dtor$1@?0???0?$basic_string@DU?$char_traits@D@std@@V?$allocator@D@2@@std@@QEAA@QEBD_K@Z@4HA 0000000140074b20 f   main.obj
 0002:0004eb50       ?dtor$0@?0???0?$basic_string@_WU?$char_traits@_W@std@@V?$allocator@_W@2@@std@@QEAA@AEBV01@@Z@4HA 0000000140074b50 f   main.obj
 0002:0004eb80       ?dtor$1@?0???0?$basic_string@_WU?$char_traits@_W@std@@V?$allocator@_W@2@@std@@QEAA@AEBV01@@Z@4HA 0000000140074b80 f   main.obj
 0002:0004ebb0       ?dtor$1@?0???0_System_error@std@@IEAA@Verror_code@1@AEBV?$basic_string@DU?$char_traits@D@std@@V?$allocator@D@2@@1@@Z@4HA 0000000140074bb0 f   main.obj
 0002:0004ebe0       ?dtor$0@?0???0filesystem_error@filesystem@std@@QEAA@AEBV012@@Z@4HA 0000000140074be0 f   main.obj
 0002:0004ec10       ?dtor$1@?0???0filesystem_error@filesystem@std@@QEAA@AEBV012@@Z@4HA 0000000140074c10 f   main.obj
 0002:0004ec50       ?dtor$2@?0???0filesystem_error@filesystem@std@@QEAA@AEBV012@@Z@4HA 0000000140074c50 f   main.obj
 0002:0004ec90       ?dtor$0@?0???0filesystem_error@filesystem@std@@QEAA@AEBV?$basic_string@DU?$char_traits@D@std@@V?$allocator@D@2@@2@AEBVpath@12@Verror_code@2@@Z@4HA 0000000140074c90 f   main.obj
 0002:0004ecc0       ?dtor$1@?0???0filesystem_error@filesystem@std@@QEAA@AEBV?$basic_string@DU?$char_traits@D@std@@V?$allocator@D@2@@2@AEBVpath@12@Verror_code@2@@Z@4HA 0000000140074cc0 f   main.obj
 0002:0004ed00       ?dtor$2@?0???0filesystem_error@filesystem@std@@QEAA@AEBV?$basic_string@DU?$char_traits@D@std@@V?$allocator@D@2@@2@AEBVpath@12@Verror_code@2@@Z@4HA 0000000140074d00 f   main.obj
 0002:0004ed40       ?dtor$3@?0???0filesystem_error@filesystem@std@@QEAA@AEBV?$basic_string@DU?$char_traits@D@std@@V?$allocator@D@2@@2@AEBVpath@12@Verror_code@2@@Z@4HA 0000000140074d40 f   main.obj
 0002:0004ed70       ?dtor$0@?0???0system_error@std@@QEAA@Verror_code@1@@Z@4HA 0000000140074d70 f   main.obj
 0002:0004eda0       ?dtor$0@?0??_Convert_narrow_to_wide@filesystem@std@@YA?AV?$basic_string@_WU?$char_traits@_W@std@@V?$allocator@_W@2@@2@W4__std_code_page@@V?$basic_string_view@DU?$char_traits@D@std@@@2@@Z@4HA 0000000140074da0 f   main.obj
 0002:0004edd0       ?dtor$0@?0??_Makestr@_System_error@std@@CA?AV?$basic_string@DU?$char_traits@D@std@@V?$allocator@D@2@@2@Verror_code@2@V32@@Z@4HA 0000000140074dd0 f   main.obj
 0002:0004ee00       ?dtor$1@?0??_Makestr@_System_error@std@@CA?AV?$basic_string@DU?$char_traits@D@std@@V?$allocator@D@2@@2@Verror_code@2@V32@@Z@4HA 0000000140074e00 f   main.obj
 0002:0004ee30       ?dtor$0@?0??_Pretty_message@filesystem_error@filesystem@std@@CA?AV?$basic_string@DU?$char_traits@D@std@@V?$allocator@D@2@@3@V?$basic_string_view@DU?$char_traits@D@std@@@3@AEBVpath@23@1@Z@4HA 0000000140074e30 f   main.obj
 0002:0004ee60       ?dtor$1@?0??_Pretty_message@filesystem_error@filesystem@std@@CA?AV?$basic_string@DU?$char_traits@D@std@@V?$allocator@D@2@@3@V?$basic_string_view@DU?$char_traits@D@std@@@3@AEBVpath@23@1@Z@4HA 0000000140074e60 f   main.obj
 0002:0004ee90       ?dtor$2@?0??_Pretty_message@filesystem_error@filesystem@std@@CA?AV?$basic_string@DU?$char_traits@D@std@@V?$allocator@D@2@@3@V?$basic_string_view@DU?$char_traits@D@std@@@3@AEBVpath@23@1@Z@4HA 0000000140074e90 f   main.obj
 0002:0004eec0       ?dtor$0@?0??_Throw_fs_error@filesystem@std@@YAXPEBDW4__std_win_error@@AEBVpath@12@@Z@4HA 0000000140074ec0 f   main.obj
 0002:0004eef0       ?dtor$0@?0??message@_System_error_category@std@@UEBA?AV?$basic_string@DU?$char_traits@D@std@@V?$allocator@D@2@@2@H@Z@4HA 0000000140074ef0 f   main.obj
 0002:0004ef20       ?dtor$0@?0??Shared_Create@@YA_NXZ@4HA 0000000140074f20 f   shared-resources.obj
 0002:0004ef50       ?dtor$1@?0??Shared_Create@@YA_NXZ@4HA 0000000140074f50 f   shared-resources.obj
 0002:0004ef80       ?dtor$0@?0??Twister_Create@@YA_NXZ@4HA 0000000140074f80 f   torus-twister.obj
 0002:0004efb0       ?dtor$1@?0??Twister_Create@@YA_NXZ@4HA 0000000140074fb0 f   torus-twister.obj
 0002:0004efe0       ?dtor$2@?0??Twister_Create@@YA_NXZ@4HA 0000000140074fe0 f   torus-twister.obj
 0002:0004f010       ?dtor$0@?0??Tunnelscape_Create@@YA_NXZ@4HA 0000000140075010 f   tunnelscape.obj
 0002:0004f040       ?dtor$1@?0??Tunnelscape_Create@@YA_NXZ@4HA 0000000140075040 f   tunnelscape.obj
 0002:0004f070       ?dtor$2@?0??Tunnelscape_Create@@YA_NXZ@4HA 0000000140075070 f   tunnelscape.obj
 0002:0004f0a0       __scrt_is_nonwritable_in_current_image$filt$0 00000001400750a0 f   MSVCRTD:utility.obj
 0002:0004f0f0       ?filt$0@?0??__scrt_common_main_seh@@YAHXZ@4HA 00000001400750f0 f   MSVCRTD:exe_winmain.obj
 0002:0004f130       ?filt$0@?0??notify_debugger@@YAXAEBUtagEXCEPTION_VISUALCPP_DEBUG_INFO@@@Z@4HA 0000000140075130 f   MSVCRTD:error.obj
 0002:000501d0       ??__Fs_pGC@@YAXXZ          00000001400761d0 f   image.obj
 0002:00050200       ??__Fs_lastErr@@YAXXZ      0000000140076200 f   main.obj
 0003:00000110       ?pre_cpp_initializer@@3P6AXXZEA 0000000140078110     MSVCRTD:exe_winmain.obj
 0003:00000220       ?fNautilus_global$initializer$@@3P6AXXZEA 0000000140078220     shadertoy.obj
 0003:00000228       ?fSpike_global$initializer$@@3P6AXXZEA 0000000140078228     shadertoy.obj
 0003:00000238       ?s_pGC$initializer$@@3P6AXXZEA 0000000140078238     image.obj
 0003:00000248       ?s_lastErr$initializer$@@3P6AXXZEA 0000000140078248     main.obj
 0003:00000578       ?pre_c_initializer@@3P6AHXZEA 0000000140078578     MSVCRTD:exe_winmain.obj
 0003:00000688       ?post_pgo_initializer@@3P6AHXZEA 0000000140078688     MSVCRTD:exe_winmain.obj
 0003:00000cf0       sync_update$rtcName$0      0000000140078cf0     device.obj
 0003:00000cf4       sync_update$rtcName$1      0000000140078cf4     device.obj
 0003:00000d00       sync_update$rtcName$2      0000000140078d00     device.obj
 0003:00000d08       sync_update$rtcName$3      0000000140078d08     device.obj
 0003:00000d0c       sync_update$rtcName$4      0000000140078d0c     device.obj
 0003:00000d18       sync_update$rtcFrameData   0000000140078d18     device.obj
 0003:00000d30       sync_update$rtcVarDesc     0000000140078d30     device.obj
 0003:00000ec0       fprintf$rtcName$0          0000000140078ec0     device.obj
 0003:00000ed0       fprintf$rtcVarDesc         0000000140078ed0     device.obj
 0003:00000f10       fprintf$rtcFrameData       0000000140078f10     device.obj
 0003:00000f40       snprintf$rtcName$0         0000000140078f40     device.obj
 0003:00000f50       snprintf$rtcVarDesc        0000000140078f50     device.obj
 0003:00000f90       snprintf$rtcFrameData      0000000140078f90     device.obj
 0003:00000fc0       socket_poll$rtcName$0      0000000140078fc0     device.obj
 0003:00000fc4       socket_poll$rtcName$1      0000000140078fc4     device.obj
 0003:00000fd0       socket_poll$rtcVarDesc     0000000140078fd0     device.obj
 0003:00001050       socket_poll$rtcFrameData   0000000140079050     device.obj
 0003:00001080       server_connect$rtcName$0   0000000140079080     device.obj
 0003:00001088       server_connect$rtcName$1   0000000140079088     device.obj
 0003:00001090       server_connect$rtcName$2   0000000140079090     device.obj
 0003:00001094       server_connect$rtcName$3   0000000140079094     device.obj
 0003:000010a0       server_connect$rtcVarDesc  00000001400790a0     device.obj
 0003:000011a0       server_connect$rtcFrameData 00000001400791a0     device.obj
 0003:000011f0       read_track_data$rtcName$0  00000001400791f0     device.obj
 0003:00001200       read_track_data$rtcVarDesc 0000000140079200     device.obj
 0003:00001240       read_track_data$rtcFrameData 0000000140079240     device.obj
 0003:00001270       create_leading_dirs$rtcName$0 0000000140079270     device.obj
 0003:00001274       create_leading_dirs$rtcName$1 0000000140079274     device.obj
 0003:00001280       create_leading_dirs$rtcVarDesc 0000000140079280     device.obj
 0003:00001300       create_leading_dirs$rtcFrameData 0000000140079300     device.obj
 0003:00001330       save_track$rtcName$0       0000000140079330     device.obj
 0003:00001340       save_track$rtcVarDesc      0000000140079340     device.obj
 0003:00001380       save_track$rtcFrameData    0000000140079380     device.obj
 0003:000013b0       fetch_track_data$rtcName$0 00000001400793b0     device.obj
 0003:000013b8       fetch_track_data$rtcName$1 00000001400793b8     device.obj
 0003:000013d0       fetch_track_data$rtcVarDesc 00000001400793d0     device.obj
 0003:00001450       fetch_track_data$rtcFrameData 0000000140079450     device.obj
 0003:00001490       handle_set_key_cmd$rtcName$0 0000000140079490     device.obj
 0003:00001498       handle_set_key_cmd$rtcName$1 0000000140079498     device.obj
 0003:0000149c       handle_set_key_cmd$rtcName$2 000000014007949c     device.obj
 0003:000014a0       handle_set_key_cmd$rtcName$3 00000001400794a0     device.obj
 0003:000014a4       handle_set_key_cmd$rtcName$4 00000001400794a4     device.obj
 0003:000014b0       handle_set_key_cmd$rtcVarDesc 00000001400794b0     device.obj
 0003:000015f0       handle_set_key_cmd$rtcFrameData 00000001400795f0     device.obj
 0003:00001650       handle_del_key_cmd$rtcName$0 0000000140079650     device.obj
 0003:00001658       handle_del_key_cmd$rtcName$1 0000000140079658     device.obj
 0003:00001660       handle_del_key_cmd$rtcVarDesc 0000000140079660     device.obj
 0003:000016e0       handle_del_key_cmd$rtcFrameData 00000001400796e0     device.obj
 0003:000019c0       ?Normalized@Vector3@@QEBA?BV1@XZ$rtcName$0 00000001400799c0     Matrix44.obj
 0003:000019d0       ?Normalized@Vector3@@QEBA?BV1@XZ$rtcVarDesc 00000001400799d0     Matrix44.obj
 0003:00001a10       ?Normalized@Vector3@@QEBA?BV1@XZ$rtcFrameData 0000000140079a10     Matrix44.obj
 0003:00001a40       ?Normalized@Vector4@@QEBA?BV1@XZ$rtcName$0 0000000140079a40     Matrix44.obj
 0003:00001a50       ?Normalized@Vector4@@QEBA?BV1@XZ$rtcVarDesc 0000000140079a50     Matrix44.obj
 0003:00001a90       ?Normalized@Vector4@@QEBA?BV1@XZ$rtcFrameData 0000000140079a90     Matrix44.obj
 0003:00001ac0       ?Identity@Matrix44@@SA?BV1@XZ$rtcName$0 0000000140079ac0     Matrix44.obj
 0003:00001ad0       ?Identity@Matrix44@@SA?BV1@XZ$rtcVarDesc 0000000140079ad0     Matrix44.obj
 0003:00001b10       ?Identity@Matrix44@@SA?BV1@XZ$rtcFrameData 0000000140079b10     Matrix44.obj
 0003:00001b40       ?Scaling@Matrix44@@SA?BV1@AEBVVector3@@@Z$rtcName$0 0000000140079b40     Matrix44.obj
 0003:00001b50       ?Scaling@Matrix44@@SA?BV1@AEBVVector3@@@Z$rtcVarDesc 0000000140079b50     Matrix44.obj
 0003:00001b90       ?Scaling@Matrix44@@SA?BV1@AEBVVector3@@@Z$rtcFrameData 0000000140079b90     Matrix44.obj
 0003:00001bc0       ?Translation@Matrix44@@SA?BV1@AEBVVector3@@@Z$rtcName$0 0000000140079bc0     Matrix44.obj
 0003:00001bd0       ?Translation@Matrix44@@SA?BV1@AEBVVector3@@@Z$rtcVarDesc 0000000140079bd0     Matrix44.obj
 0003:00001c10       ?Translation@Matrix44@@SA?BV1@AEBVVector3@@@Z$rtcFrameData 0000000140079c10     Matrix44.obj
 0003:00001c40       ?Rotation@Matrix44@@SA?BV1@AEBVQuaternion@@@Z$rtcName$0 0000000140079c40     Matrix44.obj
 0003:00001c48       ?Rotation@Matrix44@@SA?BV1@AEBVQuaternion@@@Z$rtcName$1 0000000140079c48     Matrix44.obj
 0003:00001c50       ?Rotation@Matrix44@@SA?BV1@AEBVQuaternion@@@Z$rtcVarDesc 0000000140079c50     Matrix44.obj
 0003:00001cd0       ?Rotation@Matrix44@@SA?BV1@AEBVQuaternion@@@Z$rtcFrameData 0000000140079cd0     Matrix44.obj
 0003:00001d00       ?RotationX@Matrix44@@SA?BV1@M@Z$rtcName$0 0000000140079d00     Matrix44.obj
 0003:00001d10       ?RotationX@Matrix44@@SA?BV1@M@Z$rtcVarDesc 0000000140079d10     Matrix44.obj
 0003:00001d50       ?RotationX@Matrix44@@SA?BV1@M@Z$rtcFrameData 0000000140079d50     Matrix44.obj
 0003:00001d80       ?RotationY@Matrix44@@SA?BV1@M@Z$rtcName$0 0000000140079d80     Matrix44.obj
 0003:00001d90       ?RotationY@Matrix44@@SA?BV1@M@Z$rtcVarDesc 0000000140079d90     Matrix44.obj
 0003:00001dd0       ?RotationY@Matrix44@@SA?BV1@M@Z$rtcFrameData 0000000140079dd0     Matrix44.obj
 0003:00001e00       ?RotationZ@Matrix44@@SA?BV1@M@Z$rtcName$0 0000000140079e00     Matrix44.obj
 0003:00001e10       ?RotationZ@Matrix44@@SA?BV1@M@Z$rtcVarDesc 0000000140079e10     Matrix44.obj
 0003:00001e50       ?RotationZ@Matrix44@@SA?BV1@M@Z$rtcFrameData 0000000140079e50     Matrix44.obj
 0003:00001e80       ?RotationYawPitchRoll@Matrix44@@SA?BV1@MMM@Z$rtcName$0 0000000140079e80     Matrix44.obj
 0003:00001e90       ?RotationYawPitchRoll@Matrix44@@SA?BV1@MMM@Z$rtcVarDesc 0000000140079e90     Matrix44.obj
 0003:00001ed0       ?RotationYawPitchRoll@Matrix44@@SA?BV1@MMM@Z$rtcFrameData 0000000140079ed0     Matrix44.obj
 0003:00001f00       ?View@Matrix44@@SA?BV1@AEBVVector3@@00@Z$rtcName$0 0000000140079f00     Matrix44.obj
 0003:00001f08       ?View@Matrix44@@SA?BV1@AEBVVector3@@00@Z$rtcName$1 0000000140079f08     Matrix44.obj
 0003:00001f10       ?View@Matrix44@@SA?BV1@AEBVVector3@@00@Z$rtcName$2 0000000140079f10     Matrix44.obj
 0003:00001f18       ?View@Matrix44@@SA?BV1@AEBVVector3@@00@Z$rtcName$3 0000000140079f18     Matrix44.obj
 0003:00001f1c       ?View@Matrix44@@SA?BV1@AEBVVector3@@00@Z$rtcName$4 0000000140079f1c     Matrix44.obj
 0003:00001f28       ?View@Matrix44@@SA?BV1@AEBVVector3@@00@Z$rtcFrameData 0000000140079f28     Matrix44.obj
 0003:00001f40       ?View@Matrix44@@SA?BV1@AEBVVector3@@00@Z$rtcVarDesc 0000000140079f40     Matrix44.obj
 0003:000020d0       ?Perspective@Matrix44@@SA?BV1@MMMM@Z$rtcName$0 000000014007a0d0     Matrix44.obj
 0003:000020e0       ?Perspective@Matrix44@@SA?BV1@MMMM@Z$rtcVarDesc 000000014007a0e0     Matrix44.obj
 0003:00002120       ?Perspective@Matrix44@@SA?BV1@MMMM@Z$rtcFrameData 000000014007a120     Matrix44.obj
 0003:00002150       ?Orthographic@Matrix44@@SA?BV1@AEBVVector2@@0MM@Z$rtcName$0 000000014007a150     Matrix44.obj
 0003:00002160       ?Orthographic@Matrix44@@SA?BV1@AEBVVector2@@0MM@Z$rtcVarDesc 000000014007a160     Matrix44.obj
 0003:000021a0       ?Orthographic@Matrix44@@SA?BV1@AEBVVector2@@0MM@Z$rtcFrameData 000000014007a1a0     Matrix44.obj
 0003:000021d0       ?FromArray@Matrix44@@SA?BV1@QEBM@Z$rtcName$0 000000014007a1d0     Matrix44.obj
 0003:000021e0       ?FromArray@Matrix44@@SA?BV1@QEBM@Z$rtcVarDesc 000000014007a1e0     Matrix44.obj
 0003:00002220       ?FromArray@Matrix44@@SA?BV1@QEBM@Z$rtcFrameData 000000014007a220     Matrix44.obj
 0003:00002250       ?FromArray33@Matrix44@@SA?BV1@QEBM@Z$rtcName$0 000000014007a250     Matrix44.obj
 0003:00002260       ?FromArray33@Matrix44@@SA?BV1@QEBM@Z$rtcVarDesc 000000014007a260     Matrix44.obj
 0003:000022a0       ?FromArray33@Matrix44@@SA?BV1@QEBM@Z$rtcFrameData 000000014007a2a0     Matrix44.obj
 0003:000022d0       ?Multiply@Matrix44@@QEBA?BV1@AEBV1@@Z$rtcName$0 000000014007a2d0     Matrix44.obj
 0003:000022e0       ?Multiply@Matrix44@@QEBA?BV1@AEBV1@@Z$rtcVarDesc 000000014007a2e0     Matrix44.obj
 0003:00002320       ?Multiply@Matrix44@@QEBA?BV1@AEBV1@@Z$rtcFrameData 000000014007a320     Matrix44.obj
 0003:00002350       ?Transpose@Matrix44@@QEBA?BV1@XZ$rtcName$0 000000014007a350     Matrix44.obj
 0003:00002360       ?Transpose@Matrix44@@QEBA?BV1@XZ$rtcVarDesc 000000014007a360     Matrix44.obj
 0003:000023a0       ?Transpose@Matrix44@@QEBA?BV1@XZ$rtcFrameData 000000014007a3a0     Matrix44.obj
 0003:000023d0       ?OrthoInverse@Matrix44@@QEBA?BV1@XZ$rtcName$0 000000014007a3d0     Matrix44.obj
 0003:000023d8       ?OrthoInverse@Matrix44@@QEBA?BV1@XZ$rtcName$1 000000014007a3d8     Matrix44.obj
 0003:000023f0       ?OrthoInverse@Matrix44@@QEBA?BV1@XZ$rtcVarDesc 000000014007a3f0     Matrix44.obj
 0003:00002470       ?OrthoInverse@Matrix44@@QEBA?BV1@XZ$rtcFrameData 000000014007a470     Matrix44.obj
 0003:000024b0       ?GeneralInverse@Matrix44@@QEBA?BV1@XZ$rtcName$0 000000014007a4b0     Matrix44.obj
 0003:000024c0       ?GeneralInverse@Matrix44@@QEBA?BV1@XZ$rtcVarDesc 000000014007a4c0     Matrix44.obj
 0003:00002500       ?GeneralInverse@Matrix44@@QEBA?BV1@XZ$rtcFrameData 000000014007a500     Matrix44.obj
 0003:00002650       ?AxisAngle@Quaternion@@SA?BV1@AEBVVector3@@M@Z$rtcName$0 000000014007a650     Quaternion.obj
 0003:00002660       ?AxisAngle@Quaternion@@SA?BV1@AEBVVector3@@M@Z$rtcVarDesc 000000014007a660     Quaternion.obj
 0003:000026a0       ?AxisAngle@Quaternion@@SA?BV1@AEBVVector3@@M@Z$rtcFrameData 000000014007a6a0     Quaternion.obj
 0003:000026d0       ?Slerp@Quaternion@@SA?BV1@AEBV1@0M@Z$rtcName$0 000000014007a6d0     Quaternion.obj
 0003:000026e0       ?Slerp@Quaternion@@SA?BV1@AEBV1@0M@Z$rtcVarDesc 000000014007a6e0     Quaternion.obj
 0003:00002720       ?Slerp@Quaternion@@SA?BV1@AEBV1@0M@Z$rtcFrameData 000000014007a720     Quaternion.obj
 0003:00002770       ?_Orphan_all_locked_v3@_Container_base12@std@@AEAAXXZ$rtcName$0 000000014007a770     audio.obj
 0003:00002780       ?_Orphan_all_locked_v3@_Container_base12@std@@AEAAXXZ$rtcVarDesc 000000014007a780     audio.obj
 0003:000027c0       ?_Orphan_all_locked_v3@_Container_base12@std@@AEAAXXZ$rtcFrameData 000000014007a7c0     audio.obj
 0003:000027f0       ??0?$basic_string@DU?$char_traits@D@std@@V?$allocator@D@2@@std@@QEAA@QEBD@Z$rtcName$0 000000014007a7f0     audio.obj
 0003:000027f8       ??0?$basic_string@DU?$char_traits@D@std@@V?$allocator@D@2@@std@@QEAA@QEBD@Z$rtcName$1 000000014007a7f8     audio.obj
 0003:00002800       ??0?$basic_string@DU?$char_traits@D@std@@V?$allocator@D@2@@std@@QEAA@QEBD@Z$rtcVarDesc 000000014007a800     audio.obj
 0003:00002880       ??0?$basic_string@DU?$char_traits@D@std@@V?$allocator@D@2@@std@@QEAA@QEBD@Z$rtcFrameData 000000014007a880     audio.obj
 0003:000028b0       ??0?$basic_string@DU?$char_traits@D@std@@V?$allocator@D@2@@std@@QEAA@U_String_constructor_concat_tag@1@AEBV01@QEBD_K23@Z$rtcName$0 000000014007a8b0     audio.obj
 0003:000028bc       ??0?$basic_string@DU?$char_traits@D@std@@V?$allocator@D@2@@std@@QEAA@U_String_constructor_concat_tag@1@AEBV01@QEBD_K23@Z$rtcName$1 000000014007a8bc     audio.obj
 0003:000028c4       ??0?$basic_string@DU?$char_traits@D@std@@V?$allocator@D@2@@std@@QEAA@U_String_constructor_concat_tag@1@AEBV01@QEBD_K23@Z$rtcName$2 000000014007a8c4     audio.obj
 0003:000028d0       ??0?$basic_string@DU?$char_traits@D@std@@V?$allocator@D@2@@std@@QEAA@U_String_constructor_concat_tag@1@AEBV01@QEBD_K23@Z$rtcName$3 000000014007a8d0     audio.obj
 0003:000028e0       ??0?$basic_string@DU?$char_traits@D@std@@V?$allocator@D@2@@std@@QEAA@U_String_constructor_concat_tag@1@AEBV01@QEBD_K23@Z$rtcVarDesc 000000014007a8e0     audio.obj
 0003:000029e0       ??0?$basic_string@DU?$char_traits@D@std@@V?$allocator@D@2@@std@@QEAA@U_String_constructor_concat_tag@1@AEBV01@QEBD_K23@Z$rtcFrameData 000000014007a9e0     audio.obj
 0003:00002a30       ??1?$basic_string@DU?$char_traits@D@std@@V?$allocator@D@2@@std@@QEAA@XZ$rtcName$0 000000014007aa30     audio.obj
 0003:00002a40       ??1?$basic_string@DU?$char_traits@D@std@@V?$allocator@D@2@@std@@QEAA@XZ$rtcVarDesc 000000014007aa40     audio.obj
 0003:00002a80       ??1?$basic_string@DU?$char_traits@D@std@@V?$allocator@D@2@@std@@QEAA@XZ$rtcFrameData 000000014007aa80     audio.obj
 0003:00002ab0       ?max_size@?$basic_string@DU?$char_traits@D@std@@V?$allocator@D@2@@std@@QEBA_KXZ$rtcName$0 000000014007aab0     audio.obj
 0003:00002ac0       ?max_size@?$basic_string@DU?$char_traits@D@std@@V?$allocator@D@2@@std@@QEBA_KXZ$rtcVarDesc 000000014007aac0     audio.obj
 0003:00002b00       ?max_size@?$basic_string@DU?$char_traits@D@std@@V?$allocator@D@2@@std@@QEBA_KXZ$rtcFrameData 000000014007ab00     audio.obj
 0003:00002b30       ?_Calculate_growth@?$basic_string@DU?$char_traits@D@std@@V?$allocator@D@2@@std@@CA_K_K00@Z$rtcName$0 000000014007ab30     audio.obj
 0003:00002b40       ?_Calculate_growth@?$basic_string@DU?$char_traits@D@std@@V?$allocator@D@2@@std@@CA_K_K00@Z$rtcVarDesc 000000014007ab40     audio.obj
 0003:00002b80       ?_Calculate_growth@?$basic_string@DU?$char_traits@D@std@@V?$allocator@D@2@@std@@CA_K_K00@Z$rtcFrameData 000000014007ab80     audio.obj
 0003:00002bb0       ??$_Reallocate_for@V<lambda_1>@?1??assign@?$basic_string@DU?$char_traits@D@std@@V?$allocator@D@2@@std@@QEAAAEAV34@QEBD_K@Z@PEBD@?$basic_string@DU?$char_traits@D@std@@V?$allocator@D@2@@std@@AEAAAEAV01@_KV<lambda_1>@?1??assign@01@QEAAAEAV01@QEBD0@Z@PEBD@Z$rtcName$0 000000014007abb0     audio.obj
 0003:00002bc0       ??$_Reallocate_for@V<lambda_1>@?1??assign@?$basic_string@DU?$char_traits@D@std@@V?$allocator@D@2@@std@@QEAAAEAV34@QEBD_K@Z@PEBD@?$basic_string@DU?$char_traits@D@std@@V?$allocator@D@2@@std@@AEAAAEAV01@_KV<lambda_1>@?1??assign@01@QEAAAEAV01@QEBD0@Z@PEBD@Z$rtcVarDesc 000000014007abc0     audio.obj
 0003:00002c00       ??$_Reallocate_for@V<lambda_1>@?1??assign@?$basic_string@DU?$char_traits@D@std@@V?$allocator@D@2@@std@@QEAAAEAV34@QEBD_K@Z@PEBD@?$basic_string@DU?$char_traits@D@std@@V?$allocator@D@2@@std@@AEAAAEAV01@_KV<lambda_1>@?1??assign@01@QEAAAEAV01@QEBD0@Z@PEBD@Z$rtcFrameData 000000014007ac00     audio.obj
 0003:00002fd0       ?vball_ray_beams@@YAXPEAIHHHH@Z$rtcName$0 000000014007afd0     ball.obj
 0003:00002fd4       ?vball_ray_beams@@YAXPEAIHHHH@Z$rtcName$1 000000014007afd4     ball.obj
 0003:00002fd8       ?vball_ray_beams@@YAXPEAIHHHH@Z$rtcName$2 000000014007afd8     ball.obj
 0003:00002fdc       ?vball_ray_beams@@YAXPEAIHHHH@Z$rtcName$3 000000014007afdc     ball.obj
 0003:00002fe0       ?vball_ray_beams@@YAXPEAIHHHH@Z$rtcName$4 000000014007afe0     ball.obj
 0003:00002fe8       ?vball_ray_beams@@YAXPEAIHHHH@Z$rtcName$5 000000014007afe8     ball.obj
 0003:00002ff0       ?vball_ray_beams@@YAXPEAIHHHH@Z$rtcName$6 000000014007aff0     ball.obj
 0003:00002ff4       ?vball_ray_beams@@YAXPEAIHHHH@Z$rtcName$7 000000014007aff4     ball.obj
 0003:00002ff8       ?vball_ray_beams@@YAXPEAIHHHH@Z$rtcName$8 000000014007aff8     ball.obj
 0003:00002ffc       ?vball_ray_beams@@YAXPEAIHHHH@Z$rtcName$9 000000014007affc     ball.obj
 0003:00003000       ?vball_ray_beams@@YAXPEAIHHHH@Z$rtcName$10 000000014007b000     ball.obj
 0003:00003008       ?vball_ray_beams@@YAXPEAIHHHH@Z$rtcName$11 000000014007b008     ball.obj
 0003:00003010       ?vball_ray_beams@@YAXPEAIHHHH@Z$rtcVarDesc 000000014007b010     ball.obj
 0003:00003310       ?vball_ray_beams@@YAXPEAIHHHH@Z$rtcFrameData 000000014007b310     ball.obj
 0003:000033d0       ?vball_ray_no_beams@@YAXPEAIHHHH@Z$rtcName$0 000000014007b3d0     ball.obj
 0003:000033d4       ?vball_ray_no_beams@@YAXPEAIHHHH@Z$rtcName$1 000000014007b3d4     ball.obj
 0003:000033d8       ?vball_ray_no_beams@@YAXPEAIHHHH@Z$rtcName$2 000000014007b3d8     ball.obj
 0003:000033dc       ?vball_ray_no_beams@@YAXPEAIHHHH@Z$rtcName$3 000000014007b3dc     ball.obj
 0003:000033e0       ?vball_ray_no_beams@@YAXPEAIHHHH@Z$rtcName$4 000000014007b3e0     ball.obj
 0003:000033e8       ?vball_ray_no_beams@@YAXPEAIHHHH@Z$rtcName$5 000000014007b3e8     ball.obj
